(dp0
S'http://www.ign.com/articles/2016/07/25/top-10-worst-star-wars-games-ever-made?watch'
p1
F2.2216827433446718e-07
sS'http://www.ign.com/games/dicetiny/iphone-20033605'
p2
F2.2381694309057197e-07
sS'http://www.ign.com/boards/forums/movies-tv-and-tech.80003/index.rss'
p3
F1.6203307549600954e-07
sS'http://www.ign.com/articles/2016/12/07/the-flash-the-present-review'
p4
F5.522327889918703e-07
sS'http://www.ign.com/boards/forums/sonic-the-hedgehog.5224/'
p5
F1.6329963478930668e-07
sS'http://www.ign.com/articles/2016/12/02/dcs-legends-of-tomorrow-invasion-review'
p6
F4.420084154440797e-07
sS'https://www.youtube.com/watch?v=azEdCro4f-c'
p7
F1.6528650420949353e-07
sS'http://www.ign.com/videos/2016/12/01/ea-taking-a-break-from-battlefield-ign-daily-fix'
p8
F4.7509313189006463e-07
sS'http://www.ign.com/articles/2016/10/05/playstation-vr-review'
p9
F2.3674919030020775e-07
sS'http://www.ign.com/articles/2016/12/05/valiants-x-o-manowar-returns-in-march-2017'
p10
F2.1752198854379342e-07
sS'http://www.ign.com/articles/2016/11/14/eagle-flight-review'
p11
F7.920797492563127e-07
sS'http://www.ziffdavis.com/terms-of-use'
p12
F5.945482407014405e-07
sS'http://www.ign.com/wikis/ign-community-central/Making_Yourself_Known'
p13
F2.3427323386754543e-07
sS'https://www.youtube.com/watch?v=leG2uIzuSGQ&list=PLraFbwCoisJBTyMjQXyP8zf3EB3sUdUje'
p14
F1.6903126456565536e-07
sS'http://www.ign.com/images/games/strafe-pc-20030452'
p15
F2.0970354770526066e-07
sS'http://www.ign.com/trailers/transformers-the-last-knight-official-trailer'
p16
F4.211998964956318e-07
sS'http://www.ign.com/articles/2016/12/09/hands-on-with-resident-evil-7-biohazard-collectors-edition?watch'
p17
F2.3779952207181647e-07
sS'http://www.ign.com/games/for-honor/ps4-20038802'
p18
F2.1596515144939201e-07
sS'http://www.ign.com/boards/forums/classic-gaming-lobby.5138/index.rss'
p19
F1.611851159508061e-07
sS'http://www.ign.com/boards/threads/04-grand-prix-gt-starting-disabled-due-to-theft-system.454858041/'
p20
F1.6063856641671332e-07
sS'http://www.ign.com/videos/games/ultimate-marvel-vs-capcom-3-ps4-20062336'
p21
F2.08702467659888e-07
sS'http://www.ign.com/wikis/pokemon-sun-pokemon-moon?objectid=20050014'
p22
F2.0303122068403423e-07
sS'http://www.ign.com/boards/forums/socom-u-s-navy-seals.6233/'
p23
F1.6329176586430903e-07
sS'http://www.ign.com/boards/forums/tales-of-series-namco.7713/'
p24
F1.633103574203541e-07
sS'http://www.ign.com/articles/2016/01/27/darkest-dungeon-review?read'
p25
F2.1995034485668387e-07
sS'http://www.ign.com/articles/2016/11/16/best-xbox-gifts-of-2016'
p26
F2.7937074547612193e-07
sS'http://www.ign.com/articles/2016/11/15/best-playstation-gifts-of-2016'
p27
F2.7619032992660837e-07
sS'http://www.ign.com/wikis/create?objectid=20032525'
p28
F2.105316241214175e-07
sS'http://www.ign.com/blogs/constructive_review'
p29
F2.2020130589726967e-07
sS'http://people.ign.com'
p30
F2.3849836364866113e-07
sS'http://www.ign.com/boards/forums/international.8184/index.rss'
p31
F1.6191862436011348e-07
sS'https://www.youtube.com/watch?v=8etV3VqR1uE'
p32
F1.6921992180310006e-07
sS'http://www.ign.com/articles/2016/11/30/new-mighty-morphin-power-ranger-makes-mysterious-debut'
p33
F2.1745538116467982e-07
sS'http://www.ign.com/videos/2015/12/26/destinys-potentially-dastardly-and-dangerous-microtransaction-plan-esports-weekly-with-coca-cola'
p34
F2.262955051323576e-07
sS'http://www.ign.com/videos/2016/12/06/rogue-one-a-star-wars-story-gareth-edwards-on-the-fall-of-the-jedi'
p35
F2.756971003856491e-07
sS'http://www.ign.com/articles/2016/12/03/psx-2016-windjammers-coming-to-playstation-4-and-ps-vita'
p36
F2.200037032688746e-07
sS'https://twitter.com/Alienware'
p37
F2.697872321090882e-07
sS'https://www.youtube.com/feed/history'
p38
F8.811138930743924e-07
sS'http://www.ign.com/watch/beyond'
p39
F9.065397848275163e-06
sS'http://www.ign.com/articles/2016/12/08/the-walking-dead-midseason-finale-beware-the-zombie-pond'
p40
F2.78063449410649e-07
sS'http://www.ign.com/videos/2016/12/03/nintendo-voice-chat-pokemon-reviews-and-a-community-question-block'
p41
F3.760076401383535e-07
sS'http://www.ign.com/articles/2015/09/17/tgs-2015-first-look-at-the-gorgeous-new-playstation-4-and-vita-hardware?watch'
p42
F1.6021635565871902e-07
sS'http://www.ign.com/articles/2016/04/01/the-walking-dead-michonne-episode-2-review?read'
p43
F2.2151788153350535e-07
sS'https://twitter.com/IGN?lang=el'
p44
F2.5144551106349286e-07
sS'http://www.ign.com/games/ys-origin/ps4-20062330'
p45
F4.039309423537697e-07
sS'http://www.ign.com/images/games/crash-bandicoot-remastered-ps4-20054856'
p46
F2.0993322469955834e-07
sS'https://twitter.com/IGN?lang=es'
p47
F2.5144551106349286e-07
sS'http://www.ign.com/boards/forums/nfl-2k-series.6054/'
p48
F1.633022904181267e-07
sS'http://www.ign.com/articles/2016/10/05/thumper-vr-review'
p49
F2.595847981650726e-07
sS'http://www.ign.com/cheats/games/watch-dogs-2-ps4-20054628'
p50
F2.0503738576064078e-07
sS'http://www.ign.com/videos/2016/12/08/the-first-17-minutes-of-bully-anniversary-on-ipad'
p51
F2.8466284088963626e-07
sS'http://www.ign.com/videos/2016/12/03/final-fantasy-xv-didnt-suffer-the-duke-nukem-forever-curse'
p52
F2.930138156620359e-07
sS'https://www.pinterest.com/ign/'
p53
F2.6717015923727735e-07
sS'http://www.ign.com/games/gravity-rush-2/ps4-143643'
p54
F2.1930724450825675e-07
sS'http://www.ign.com/videos/2016/12/03/final-fantasy-15-worth-the-wait-game-scoop'
p55
F3.6620234123128563e-07
sS'http://www.ign.com/boards/threads/anyone-have-experience-with-making-vanilla-extract.454893395/'
p56
F1.6092354815121885e-07
sS'http://www.ign.com/boards/forums/college-basketball.8691/'
p57
F1.64871625849497e-07
sS'https://www.youtube.com/watch?v=wqT4hXxnjYE'
p58
F1.94212394995561e-07
sS'http://www.ign.com/articles/2016/05/10/the-13-biggest-video-games-that-never-came-out?read'
p59
F2.2198732981766914e-07
sS'https://www.youtube.com/watch?v=9UM-4TOGSyI&list=PLraFbwCoisJBTl0oXn8UoUam5HXWUZ7ES'
p60
F1.6903128186310626e-07
sS'http://www.ign.com/watch/jose-otero'
p61
F5.518289237269355e-07
sS'http://www.ign.com/articles/2016/11/07/call-of-duty-infinite-warfare-review'
p62
F2.2150657848216038e-07
sS'http://www.ign.com/videos/2016/12/04/full-destiny-srl-match-on-new-winter-track-haakons-precipice'
p63
F4.6730605824983974e-07
sS'http://www.ign.com/wikis/dishonored-2'
p64
F2.960154390154197e-07
sS'http://www.ign.com/boards/threads/best-exclusive-commodore-64-games.454873300/'
p65
F1.6067945998413058e-07
sS'http://www.ign.com/articles/2016/12/08/guitar-hero-skylanders-developer-vicarious-visions-working-on-destiny'
p66
F3.505483403075957e-07
sS'http://www.ign.com/wikis/gta-5/Cheats_and_Secrets'
p67
F1.1112024191276962e-06
sS'http://www.ign.com/games/the-dwarves/xbox-one-20060259'
p68
F2.1695693603873498e-07
sS'http://www.ign.com/boards/forums/announcements.14/'
p69
F1.6576176338012455e-07
sS'http://www.ign.com/boards/forums/hitman.5848/'
p70
F1.633022904181267e-07
sS'http://www.ign.com/boards/forums/mario-bros.5215/'
p71
F1.6329437266342983e-07
sS'http://www.ign.com/games/super-mario-run/iphone-20058495'
p72
F4.10139829339484e-07
sS'http://www.ign.com/articles/2016/12/08/tekken-7-first-ps4-footage-of-bob-and-master-raven-ign-first'
p73
F1.8309744219901017e-06
sS'http://www.ign.com/articles/2016/12/05/out-this-week-the-last-guardian-dead-rising-4'
p74
F3.471550330653712e-07
sS'http://www.ign.com/videos/2016/08/10/what-the-heck-is-transformers-the-last-knight-even-about'
p75
F2.748649448756614e-07
sS'http://www.ign.com/boards/threads/is-prime-dead.454855406/'
p76
F1.6015770137927838e-07
sS'https://www.youtube.com/playlist?list=PLraFbwCoisJDET9N2S4Edc6UYR5WHq-fN'
p77
F1.692447950051874e-07
sS'http://www.ign.com/articles/2016/12/06/top-comics-to-buy-this-week-december-7-2016'
p78
F2.1748836556916524e-07
sS'http://www.ign.com/wikis/watch-dogs-2?objectid=20054628'
p79
F2.0309542001784947e-07
sS'http://www.ign.com/wikis/watch-dogs-2?objectid=20054627'
p80
F2.0314716764045597e-07
sS'http://www.ign.com/articles/2016/12/08/legends-of-tomorrow-the-legion-of-doom-strikes-in-the-midseason-finale'
p81
F2.808078994838899e-07
sS'http://www.ign.com/articles/2016/12/08/ww2-shooter-days-of-war-hits-early-access-in-january?read'
p82
F2.183111879239975e-07
sS'http://www.ign.com/articles/2016/06/17/final-fantasy-15-vr-made-me-cry'
p83
F2.1964900174743597e-07
sS'http://www.ign.com/articles?tags=feature'
p84
F1.6893405653952395e-07
sS'http://www.ign.com/games/abzu/xbox-one-20060928'
p85
F2.1443106866432408e-07
sS'http://www.ign.com/games/reviews/3ds'
p86
F2.231839654898823e-07
sS'http://www.ign.com/boards/threads/%D9%A9%E0%B9%8F%CC%AF%CD%A1%E0%B9%8F-%DB%B6-crosswalk-community-thread-freundschaft-macht-frei-%D9%A9%E0%B9%8F%CC%AF%CD%A1%E0%B9%8F-%DB%B6.454850177/page-45'
p87
F1.5830730570476364e-07
sS'http://www.ign.com/wikis/pokemon-sun-pokemon-moon'
p88
F1.2109942240185472e-06
sS'http://www.ign.com/games/halo-wars-2/pc-20041132'
p89
F2.3157820867547116e-07
sS'http://fi.ign.com/'
p90
F3.577694449753359e-07
sS'http://www.ign.com/articles/2016/12/06/the-future-of-the-transformers-cinematic-universe'
p91
F2.811345170609936e-07
sS'http://www.ign.com/articles/2016/11/29/pc-gear-through-the-ages'
p92
F2.1834430213132965e-07
sS'http://www.ign.com/videos/2016/12/07/soulcalibur-official-20th-anniversary-trailer'
p93
F2.8466284088963626e-07
sS'http://www.ign.com/articles/2016/12/06/the-unspoken-review'
p94
F9.226253454087931e-07
sS'http://www.ign.com/wikis/playstation-4/How_To_Set_Up_PlayStation_VR'
p95
F2.204669502602693e-07
sS'https://www.youtube.com/watch?v=Fea8mIQRjkM'
p96
F1.6822641696489775e-07
sS'http://www.ign.com/videos/2016/12/05/every-sith-ever'
p97
F2.1844756718927043e-07
sS'http://www.ign.com/boards/forums/god-of-war.7525/'
p98
F1.63291765864309e-07
sS'http://www.ign.com/wikis/the-last-guardian/Barrels'
p99
F3.812166209187927e-07
sS'http://www.ign.com/videos/2016/03/09/indiana-jones-face-melting-candle-time-lapse'
p100
F3.0877416876927343e-07
sS'http://www.ign.com/blogs/techportal11'
p101
F2.2082774683283697e-07
sS'https://support.twitter.com/groups/31-twitter-basics/topics/111-features/articles/119135-about-verified-accounts'
p102
F1.5922664412334036e-07
sS'http://www.ign.com/boards/forums/ratchet-and-clank.6688/'
p103
F1.6331308031888083e-07
sS'http://www.ign.com/boards/forums/rainbow-six.6173/'
p104
F1.6329963478930668e-07
sS'http://www.ign.com/cheats/games/dead-rising-4-pc-20054801'
p105
F2.0346909001474157e-07
sS'https://www.youtube.com/watch?v=WZxVkOe8QXA'
p106
F1.75099424084107e-07
sS'http://www.ign.com/games/upcoming/vita'
p107
F2.3287976587608393e-07
sS'http://www.ign.com/blogs/pacquiaovsvargaslive/2016/12/06/13th-fina-world-swimming-championships-25-m-live-stream-2016'
p108
F2.2003650003201338e-07
sS'http://www.ign.com/boards/forums/silent-hill.6286/'
p109
F1.6329699558839648e-07
sS'http://www.ign.com/boards/forums/street-fighter.6376/'
p110
F1.633022904181267e-07
sS'http://www.ign.com/wikis/ign-community-central/Contests/Sweepstakes/Giveaways'
p111
F3.676969119865199e-07
sS'https://www.youtube.com/playlist?list=PLraFbwCoisJBTl0oXn8UoUam5HXWUZ7ES'
p112
F1.6924843217421926e-07
sS'http://www.ign.com/articles/2016/12/09/spider-man-homecoming-star-tom-holland-calls-vultures-debut-like-a-horror-movie?abthid=584a07217bb8cf2b2000002d&watch'
p113
F2.173600824943864e-07
sS'https://www.youtube.com/channel/UCKy1dAqELo0zrOtPkf0eTMw'
p114
F6.791099266049696e-07
sS'http://www.ign.com/videos/2016/12/02/zelda-breath-of-the-wild-game-awards-teaser'
p115
F3.9222484698154893e-07
sS'http://www.ign.com/wikis/ign-community-central/Community_How_To%27s'
p116
F3.097743438890113e-07
sS'http://www.ign.com/articles/2016/12/09/spider-man-homecoming-star-tom-holland-calls-vultures-debut-like-a-horror-movie'
p117
F2.1970816572603825e-06
sS'https://www.youtube.com/watch?v=wztdA-V18vs'
p118
F1.6528650420949353e-07
sS'http://www.ign.com/tv'
p119
F9.067159634837094e-06
sS'http://www.ign.com/articles/2016/12/08/the-walking-dead-161-review'
p120
F3.046900896641917e-07
sS'http://www.ign.com/articles/2016/11/08/call-of-duty-modern-warfare-remastered-review?read'
p121
F2.1783109481963216e-07
sS'http://www.ign.com/articles/2016/05/16/doom-review-2?watch'
p122
F1.6002362176317007e-07
sS'http://www.ign.com/boards/forums/anime.5036/index.rss'
p123
F1.6165646321163662e-07
sS'http://people.ign.com/brianalbert'
p124
F1.6531989849496902e-07
sS'http://www.ign.com/trailers/marvel-vs-capcom-infinite-reveal-trailer'
p125
F4.211998964956318e-07
sS'http://www.ign.com/boards/forums/battlefield.7641/'
p126
F1.63291765864309e-07
sS'http://corp.ign.com'
p127
F6.2463697328214914e-06
sS'http://www.ign.com/wikis/final-fantasy-15/Oracle_Ascension_Coins'
p128
F3.355960259344583e-07
sS'http://www.ign.com/cheats/games/dead-rising-4-xbox-one-20054254'
p129
F2.076595849913514e-07
sS'http://www.ign.com/games/the-last-guardian/ps4-14230646'
p130
F2.5019615595944717e-07
sS'https://twitter.com/IGN?lang=fa'
p131
F2.5144551106349286e-07
sS'https://twitter.com/IGN?lang=fi'
p132
F2.5144551106349286e-07
sS'http://www.ign.com/articles/2016/05/16/doom-review-2?page=1'
p133
F2.153254736948127e-07
sS'http://www.ign.com/cheats/games/eagle-flight-ps4-20046733'
p134
F2.0559673501327166e-07
sS'http://www.askmen.com/'
p135
F3.165920267434734e-06
sS'http://www.ign.com/videos/2016/12/06/this-xenomorph-queen-from-aliens-is-beautiful-ign-unboxing'
p136
F2.7867739049231753e-07
sS'http://www.ign.com/trailers/resident-evil-7-biohazard-psx-2016-trailer'
p137
F4.211998964956318e-07
sS'https://www.youtube.com/watch?v=pbFelXAdtWw'
p138
F2.0708268674673242e-07
sS'http://www.ign.com/videos/2016/11/21/watch-party-flcl-episodes-1-and-2'
p139
F3.1865150847166397e-07
sS'http://www.ign.com/boards/forums/feature-and-board-requests.4/'
p140
F1.6576690659962736e-07
sS'http://www.ign.com/cheats/games/batman-the-telltale-series-episode-4-pc-20060180'
p141
F2.032850967705543e-07
sS'https://www.youtube.com/watch?v=C_fhTko1Bok'
p142
F1.6822641696489775e-07
sS'http://www.ign.com/watch/prepare-to-try'
p143
F9.0628637053306e-06
sS'http://www.ign.com/boards/threads/video-why-you-deserve-the-friend-zone.454894044/'
p144
F1.6091282472900484e-07
sS'http://oyster.ignimgs.com/wordpress/stg.ign.com/2016/12/Legends-of-Tomorrow-Key-Art.jpg'
p145
F2.396089630899017e-07
sS'http://www.ign.com/videos/2016/12/08/sea-of-thieves-official-technical-alpha-update-010-the-quest-for-gold-trailer'
p146
F2.3287247304434473e-07
sS'https://www.youtube.com/red'
p147
F2.8414165672371583e-07
sS'http://www.ign.com/articles/2016/11/04/the-original-diablo-returns-in-diablo-3-next-week'
p148
F2.1773691314548886e-07
sS'https://twitter.com/intent/tweet?text=I%E2%80%99m%20Going%20to%20Go%20out%20on%20a%20Limb%20via%20%40ign%20%23e3&url=http%3A%2F%2Fwww.ign.com%2Fblogs%2Fjeriahking%2F2016%2F12%2F06%2Fiam-going-to-go-out-on-a-limb&original_referer='
p149
F1.5758296086690262e-07
sS'https://twitter.com/IGN?lang=tr'
p150
F2.5144551106349286e-07
sS'http://www.ign.com/videos/2016/09/08/ps4-pro-reactions-and-impressions'
p151
F6.076033691957662e-07
sS'http://www.ign.com/boards/categories/individual-gaming-boards.80187/'
p152
F2.727001544685066e-07
sS'http://www.ign.com/articles/2016/12/01/south-park-not-funny-review'
p153
F4.3503952238158524e-07
sS'http://www.ign.com/articles/2016/11/08/first-mass-effect-andromeda-story-details-revealed'
p154
F2.1767010076272194e-07
sS'https://twitter.com/IGN?lang=ta'
p155
F2.5144551106349286e-07
sS'https://twitter.com/IGN?lang=th'
p156
F2.5144551106349286e-07
sS'http://www.ign.com/boards/forums/metal.5115/'
p157
F1.654944374458938e-07
sS'http://www.ign.com/boards/forums/dead-or-alive.5608/'
p158
F1.6331308031888083e-07
sS'http://www.ign.com/articles/2016/12/08/guitar-hero-skylanders-developer-vicarious-visions-working-on-destiny?watch'
p159
F3.489397215377327e-07
sS'http://www.ign.com/boards/forums/lord-of-the-rings.5373/'
p160
F1.6329437266342985e-07
sS'http://www.ign.com/wikis/ign/IGN_Deals_Standards_and_Practices'
p161
F2.365373252413596e-07
sS'http://www.ign.com/articles/2016/03/03/the-flame-in-the-flood-review'
p162
F1.5997976717133982e-07
sS'http://www.ign.com/articles/2016/12/05/the-last-guardian-review?watch'
p163
F2.1420063989305335e-07
sS'http://www.ign.com/articles/2016/12/08/into-the-badlands-see-the-fight-prep-for-season-2'
p164
F2.1809485015584282e-07
sS'http://www.ign.com/articles/2016/10/24/top-10-scariest-pokemon'
p165
F1.601406159041491e-07
sS'http://www.ign.com/videos/2016/12/08/the-last-guardian-official-living-with-trico-trailer'
p166
F2.2416790646549204e-07
sS'http://www.ign.com/articles/2016/10/05/playstation-vr-review?read'
p167
F2.1926024472714523e-07
sS'http://tr.ign.com/'
p168
F3.577694449753359e-07
sS'http://www.ign.com/cheats/games/the-last-guardian-ps4-14230646'
p169
F2.1545883960400844e-07
sS'http://www.ign.com/games/pokemon-sun-version/3ds-20050014'
p170
F2.082379012090675e-07
sS'http://www.ign.com/images/games/bulletstorm-full-clip-edition-xbox-one-20054907'
p171
F2.0982445336081437e-07
sS'https://twitter.com/hashtag/LaraCroft?src=hash'
p172
F2.704274484027181e-07
sS'https://twitter.com/signup'
p173
F4.487651499191549e-07
sS'http://www.ign.com/blogs/sportshd/2016/12/06/fina-world-swimming-championships-25m-2016-live'
p174
F2.2044947986227423e-07
sS'https://www.youtube.com/watch?v=IFsf1BjLTf0'
p175
F1.931510187494036e-07
sS'http://www.ign.com/boards/forums/donkey-kong.5645/'
p176
F1.6329963478930668e-07
sS'http://www.ign.com/articles/2016/11/23/marvel-studios-boss-kevin-feige-on-the-impossibility-of-a-foxmcu-rights-sharing-deal'
p177
F2.180623911354457e-07
sS'http://www.ign.com/articles/2016/04/26/severed-review'
p178
F2.2014548845379924e-07
sS'http://www.ign.com/boards/forums/ncaa-football-ea.6051/'
p179
F1.6329176586430903e-07
sS'http://www.ign.com/wikis/dead-rising-4'
p180
F2.3436063255113107e-07
sS'http://www.ign.com/articles/2016/12/08/bully-anniversary-edition-now-available-on-ios-and-android?abthid=5849e349f91de56c1f00001a&read'
p181
F2.2103163210470715e-07
sS'http://www.ign.com/articles/2016/12/03/psx-2016-the-last-of-us-part-2-announced'
p182
F2.670283813417618e-07
sS'http://www.ign.com/boards/forums/auto-racing.6043/index.rss'
p183
F1.6157366652380332e-07
sS'http://www.ign.com/articles/2016/11/07/call-of-duty-infinite-warfare-review?read'
p184
F2.1806731640289326e-07
sS'http://www.ign.com/wikis/create?objectid=20060259'
p185
F2.0611147215698642e-07
sS'http://www.ign.com/articles/2016/12/05/westworld-creators-on-the-season-finale-reveals-fords-plan-and-what-to-expect-in-season-2'
p186
F2.537332955814662e-07
sS'http://www.ign.com/wikis/nintendo-switch/Nintendo_Switch_Games'
p187
F1.6693270553838594e-07
sS'http://www.ign.com/watch/ign-plays'
p188
F9.0628637053306e-06
sS'http://www.ign.com/watch/keepin-it-reel'
p189
F9.0628637053306e-06
sS'http://people.ign.com/terrischwartz-ign'
p190
F1.5969512655245088e-07
sS'http://www.ign.com/articles/2016/12/07/westworld-questions-we-have-for-season-2'
p191
F2.3866402694128504e-07
sS'http://www.ign.com/trailers/kojima-productions-death-stranding-reveal-trailer-e3-2016'
p192
F4.211998964956318e-07
sS'http://www.ign.com/trailers'
p193
F9.0628637053306e-06
sS'http://www.ign.com/articles/2016/11/14/perfect-holiday-gifts-for-the-lego-lover-in-your-life'
p194
F2.4639657252561347e-07
sS'http://www.ign.com/trailers/death-stranding-mads-mikkelsen-game-awards-announcement-trailer'
p195
F4.211998964956318e-07
sS'http://www.ign.com/blogs/flamingtheronh/2015/10/30/the-love-of-bosses'
p196
F2.1786986034046754e-07
sS'https://www.youtube.com/watch?v=t0rCNL3ZfIs'
p197
F1.6528650420949353e-07
sS'https://www.youtube.com/channel/UCpomBjSkMr-AfhAR-dH8vhA'
p198
F1.715610037655816e-07
sS'http://fr.ign.com/'
p199
F3.577694449753359e-07
sS'https://www.youtube.com/watch?v=jhYWO5k_kNA'
p200
F1.6885993005811115e-07
sS'http://www.ign.com/articles/2016/12/09/former-pilot-and-astronaut-john-glenn-dies-at-95'
p201
F2.4151599171719214e-07
sS'http://www.ign.com/wikis/the-witcher-3-wild-hunt'
p202
F2.382141352409311e-07
sS'https://www.youtube.com/user/watc'
p203
F1.6334410773311554e-07
sS'https://support.twitter.com/articles/20170514'
p204
F4.281330941587852e-07
sS'http://www.ign.com/boards/threads/video-w-commentary-another-racist-teacher-caught-on-cam.454894000/'
p205
F1.6093454026312703e-07
sS'https://twitter.com/intent/tweet?text=Dec%207th%20-%20The%20Lost%20Guardian%20via%20%40ign%20%23e3&url=http%3A%2F%2Fwww.ign.com%2Fblogs%2Fttdog666%2F2016%2F12%2F07%2Fdec-7th-the-lost-guardian&original_referer='
p206
F1.5758296086690262e-07
sS'http://www.ign.com/boards/forums/ninja-gaiden.6073/'
p207
F1.6328149698814167e-07
sS'https://plus.google.com/+IGN'
p208
F6.623053457147539e-07
sS'http://www.ign.com/articles/2016/12/09/hands-on-with-resident-evil-7-biohazard-collectors-edition'
p209
F2.451629310122628e-06
sS'https://twitter.com/IGN?lang=fil'
p210
F2.5144551106349286e-07
sS'http://www.ign.com/articles/2016/12/05/state-of-decay-2-play-area-substantially-larger-than-first-game-a-ign-first'
p211
F2.3763802353096872e-07
sS'http://www.ign.com/cheats/top'
p212
F2.5176716653827957e-07
sS'http://www.ign.com/boards/forums/outpost.80128/'
p213
F1.643094019933003e-07
sS'http://www.ign.com/articles/2016/10/05/batman-arkham-vr-review'
p214
F2.262363520528721e-07
sS'http://www.ign.com/articles/2016/09/08/a-beginneras-guide-to-hearthstone'
p215
F2.2027401970218073e-07
sS'http://www.ign.com/articles/2016/12/03/psx-2016-uncharted-the-lost-legacy-setting-story-details-revealed'
p216
F2.481599057388165e-07
sS'http://corp.ign.com/press'
p217
F4.354896051942575e-06
sS'http://www.ign.com/blogs/popcultkid5555/2016/12/07/first-encounter'
p218
F2.2096771713355598e-07
sS'http://www.ign.com/games/halo-wars-2/xbox-one-20041087'
p219
F2.333152367196796e-07
sS'http://www.ign.com/articles/2016/12/08/sea-of-thieves-announces-alpha-playtest'
p220
F2.783821561910647e-07
sS'http://www.ign.com/articles/2016/11/04/the-original-diablo-returns-in-diablo-3-next-week?read'
p221
F2.1773691314548883e-07
sS'https://www.youtube.com/watch?v=BVolJ3L15lM'
p222
F1.933789906697053e-07
sS'http://www.ign.com/boards/forums/the-last-of-us.80152/'
p223
F1.6330765157688002e-07
sS'http://www.ign.com/videos/games/abzu-xbox-one-20060928'
p224
F2.0960943610093433e-07
sS'https://twitter.com/login?redirect_after_login=%2FIGN%2Ffollowers'
p225
F1.6160638778684517e-07
sS'http://www.ign.com/boards/forums/classic-gaming-lobby.5138/'
p226
F1.6486392207734588e-07
sS'http://www.ign.com/wikis/pokemon-sun-pokemon-moon/How_to_Get_Mimikyu_in_Pokemon_Sun_and_Moon'
p227
F2.2369188411000593e-07
sS'http://www.ign.com/wikis/dishonored-2/Rune_Locations'
p228
F2.4408905410233113e-07
sS'http://www.ign.com/games/atelier-shallie/vita-20046424'
p229
F2.1906810748932594e-07
sS'http://www.ign.com/wikis'
p230
F9.085880530986919e-06
sS'http://www.ign.com/articles/2016/12/06/daily-deals-star-wars-legos-ps4-slim-with-free-ps-plus-metal-gear-solid-v-definitive?abthid=5847264c327fc60911000020'
p231
F2.183686813832037e-07
sS'http://www.ign.com/articles/2016/11/08/first-mass-effect-andromeda-story-details-revealed?read'
p232
F2.1767010076272194e-07
sS'http://www.ign.com/articles'
p233
F1.732299860460165e-07
sS'http://www.ign.com/boards/forums/assassins-creed.8627/'
p234
F1.6329437266342983e-07
sS'http://www.ign.com/articles/2016/10/17/call-of-duty-created-as-a-little-bit-of-an-f-you-to-medal-of-honor-a-ign-unfiltered?watch'
p235
F2.8379752444116743e-07
sS'http://www.ign.com/boards/forums/tech-board.5124/index.rss'
p236
F1.6192270429129357e-07
sS'http://www.ign.com/images/games/halo-wars-definitive-edition-xbox-one-20054807'
p237
F2.0917966927458425e-07
sS'http://www.ign.com/images/games/sniper-elite-4-pc-20050478'
p238
F2.0725468853382985e-07
sS'http://www.ign.com/videos/games/crash-bandicoot-remastered-ps4-20054856'
p239
F2.0993322469955834e-07
sS'http://www.ign.com/games/oculus-touch/pc-20062371'
p240
F2.1600058768197027e-07
sS'http://www.ign.com/watch/ign-unfiltered'
p241
F9.0628637053306e-06
sS'http://www.ign.com/articles/2016/09/01/dreamcast-era-sega-was-like-an-uncool-grandpa-focus-groups-said-a-ign-unfiltered?watch'
p242
F1.5997976717133982e-07
sS'http://www.ign.com/articles/2016/12/03/psx-2016-new-uncharted-story-announced?watch'
p243
F2.1455450569375395e-07
sS'http://www.ign.com/boards/forums/soccer.5106/index.rss'
p244
F1.6157366652380332e-07
sS'http://www.ign.com/wikis/titanfall-2/Multiplayer_Tips'
p245
F2.427265171724808e-07
sS'https://www.youtube.com/watch?v=tPdp23gfbE0'
p246
F1.751669979108662e-07
sS'https://www.youtube.com/watch?v=dd9QS2lWUQ0'
p247
F1.6528650420949353e-07
sS'http://www.ign.com/wikis/batman-arkham-knight'
p248
F2.3843947363233503e-07
sS'http://www.ign.com/games/zodiac-orcanon-odyssey/vita-20025053'
p249
F2.1909530463325976e-07
sS'http://www.ign.com/wikis/titanfall-2'
p250
F2.438447247352948e-07
sS'https://twitter.com/IGN?lang=no'
p251
F2.5144551106349286e-07
sS'http://www.ign.com/images/games/danganronpa-v3-ps4-20042906'
p252
F2.0762953179449674e-07
sS'https://twitter.com/Terri_Schwartz'
p253
F2.983004130532832e-07
sS'http://www.ign.com/blogs/shmuga9/2016/12/06/just-another-castle-79-whats-a-zelda'
p254
F2.1852041503656374e-07
sS'http://www.ign.com/articles/2016/11/03/owlboy-review'
p255
F2.1815462289421058e-07
sS'http://www.ign.com/videos/2016/07/09/holy-chip-lets-play-aero-blasters-on-turbografx-16'
p256
F3.1158856948795556e-07
sS'https://www.youtube.com/user/IGNentertainment/about'
p257
F1.9158940390397674e-07
sS'http://www.ign.com/articles/2016/12/05/the-walking-dead-how-negan-and-carls-relationship-compares-to-the-comics'
p258
F3.2587759786386706e-07
sS'http://www.ign.com/videos/2016/12/06/godzilla-2-gareth-edwards-on-why-hes-not-directing-the-sequel'
p259
F2.1841247259404949e-07
sS'http://www.ign.com/ps-vita'
p260
F9.067159634837094e-06
sS'http://www.ign.com/articles/2016/11/30/ign-anime-club-episode-74-leave-lelouch-alone?watch'
p261
F1.5989662193647742e-07
sS'http://www.ign.com/boards/threads/portland-to-raise-taxes-on-companies-whose-ceo-make-100-times-average-worker.454894642/'
p262
F1.592954970178683e-07
sS'http://www.ign.com/articles/2016/10/25/world-of-final-fantasy-review?read'
p263
F2.1980057154322452e-07
sS'http://www.ign.com/boards/categories/dark-age-of-camelot.80123/'
p264
F1.6508296065493327e-07
sS'https://twitter.com/intent/tweet?url=http%3A%2F%2Fwww.ign.com%2Fblogs%2Fandri_g%2F2016%2F12%2F05%2Fdriving-passion-in-games-part-1-the-mako&text=Driving%20Passion%20in%20Games%20-%20Part%201%3A%20The%20Mako%20via%20%40ign%20%23e3&original_referer='
p265
F1.5758296086690262e-07
sS'http://www.ign.com/games/ni-oh/ps4-711566'
p266
F2.6912848270352225e-07
sS'http://www.ign.com/games/bastion/xbox-one-20061167'
p267
F2.1942192430324008e-07
sS'http://www.ign.com/boards/forums/nintendo-3ds-lobby.25212/'
p268
F1.6343475653400766e-07
sS'http://www.ign.com/articles/2016/09/26/ps-vita-a-great-machine-but-too-late-says-former-sony-exec-a-ign-unfiltered'
p269
F2.2014548845379924e-07
sS'http://www.ign.com/trailers/pokemon-a-live-action-movie-teaser-trailer-by-ideas-for-hollywood'
p270
F4.211998964956318e-07
sS'https://www.youtube.com/watch?v=OOsi5u5EPPU'
p271
F2.424620493167293e-07
sS'http://www.ign.com/wikis/assassins-creed-the-ezio-collection'
p272
F2.1271157331548678e-07
sS'http://people.ign.com/sportsmaniac1322'
p273
F1.593940173874674e-07
sS'https://www.youtube.com/watch?v=TIpicyfsay0'
p274
F1.9633091492678853e-07
sS'http://www.ign.com/articles/2016/12/06/new-photos-from-marvels-iron-fist-include-claire-temple-colleen-wing-and-more'
p275
F2.1812793155055945e-07
sS'https://twitter.com/IGN?lang=uk'
p276
F2.5144551106349286e-07
sS'http://www.ign.com/boards/forums/monster-hunter.6950/'
p277
F1.6328149698814164e-07
sS'http://www.ign.com/videos/2016/12/04/mass-effect-andromeda-zelda-breath-of-the-wild-gameplay-reveal-ign-daily-fix'
p278
F7.31563104420978e-07
sS'http://www.ign.com/boards/forums/pokemon.5012/'
p279
F1.6325213453192244e-07
sS'http://www.ign.com/boards/forums/ps-vita-psp-lobby.80083/'
p280
F1.6337489973919816e-07
sS'http://www.ign.com/videos/2016/12/08/nerding-out-about-star-wars-rogue-one-ign-plays-live'
p281
F4.842229901484492e-07
sS'http://www.ign.com/wikis/dishonored'
p282
F2.404053886617814e-07
sS'http://www.ign.com/watch/daily-fix'
p283
F9.065397848275163e-06
sS'http://www.ign.com/articles/2016/12/08/these-90s-batmobile-and-batwing-toys-are-spot-on-animated-series-replicas?read'
p284
F2.754756812155755e-07
sS'http://www.ign.com/blogs'
p285
F9.067159634837094e-06
sS'http://www.ign.com/wikis/the-elder-scrolls-5-skyrim/Things_Skyrim_Doesn%27t_Tell_You'
p286
F2.432672679434871e-07
sS'http://www.ign.com/videos/2016/12/07/watch-10-minutes-of-rogue-one-footage'
p287
F3.6218439823336414e-07
sS'http://www.ign.com/articles/2016/11/04/keepin-it-reel-episode-344-wonder-woman-the-flash-and-the-dceus-ups-and-downs-this-week?watch'
p288
F1.5978218526202536e-07
sS'http://www.ign.com/wikis/ign/Disclosures'
p289
F2.0262760458399983e-07
sS'http://www.ign.com/blogs/justguest'
p290
F2.2086685709491256e-07
sS'http://www.ign.com/boards/threads/trump-cancels-4-billion-dollar-boeing-deal.454893595/page-3'
p291
F1.583053443422997e-07
sS'https://twitter.com/intent/tweet?url=http%3A%2F%2Fwww.ign.com%2Fblogs%2Fmich-streams%2F2016%2F12%2F05%2Fis-call-of-duty-going-through-an-identity-crisis&text=Is%20Call%20of%20Duty%20going%20through%20an%20Identity%20Crisis%3F%20via%20%40ign%20%23e3&original_referer='
p292
F1.5758296086690262e-07
sS'http://www.ign.com/watch/ign-anime-club'
p293
F9.0628637053306e-06
sS'http://preferences-mgr.truste.com/?type=ziffdavispop&pid=ziffdavis01&aid=ziffdavis01'
p294
F9.197474187913148e-06
sS'http://www.ign.com/articles/2016/09/15/resident-evil-7-biohazard-beginning-hour-demo-updated-with-new-areas'
p295
F2.194885365588042e-07
sS'http://www.ign.com/boards/forums/dark-souls-demons-souls.25241/'
p296
F1.6329176586430903e-07
sS'https://twitter.com/IGN/status/806949486413119489'
p297
F2.8175229723698633e-07
sS'http://www.ign.com/articles/2016/11/04/nes-classic-edition-review?read'
p298
F2.8983936758657025e-07
sS'http://www.ign.com/videos/2016/12/03/playstation-experience-2016-showcase-ign-live-reacts'
p299
F3.965135563937079e-07
sS'http://www.ign.com/wikis/ign/Content_Team'
p300
F2.7097081949291396e-06
sS'http://www.ign.com/articles/2016/10/19/persona-5-english-voice-cast-revealed-2'
p301
F2.2133221034979804e-07
sS'https://twitter.com/IGN/status/806928938366803968'
p302
F2.7055195307461655e-07
sS'http://www.ign.com/wikis/ign-community-central/Support_FAQ%27s'
p303
F3.097743438890113e-07
sS'https://twitter.com/IGN?lang=gu'
p304
F2.5144551106349286e-07
sS'http://www.ign.com/faqs'
p305
F2.4184109046864505e-07
sS'http://www.ign.com/boards/threads/ign-sfcb-secret-santa.454894492/'
p306
F1.6029347428379486e-07
sS'http://www.ign.com/articles/2016/12/09/spider-man-homecoming-star-tom-holland-calls-vultures-debut-like-a-horror-movie?abthid=584a07217bb8cf2b2000002e'
p307
F2.69200079808042e-07
sS'http://www.ign.com/articles/2016/12/09/spider-man-homecoming-star-tom-holland-calls-vultures-debut-like-a-horror-movie?abthid=584a07217bb8cf2b2000002d'
p308
F2.173600824943864e-07
sS'http://www.ign.com/boards/forums/the-witcher.7687/'
p309
F1.6329963478930668e-07
sS'http://www.ign.com/videos/games/kingdom-hearts-hd-ii-8-ps4-20042901'
p310
F2.0987815283416256e-07
sS'http://www.ign.com/games/syberia-3/xbox-one-20053957'
p311
F2.196649751899488e-07
sS'http://www.ign.com/boards/forums/comics.5033/index.rss'
p312
F1.6165646321163662e-07
sS'http://www.ign.com/boards/forums/counter-strike.5568/'
p313
F1.633022904181267e-07
sS'http://www.ign.com/articles/2015/03/10/ori-and-the-blind-forest-review'
p314
F2.152095378312986e-07
sS'http://www.ign.com/mobile'
p315
F6.710445800465537e-07
sS'http://www.ign.com/wikis/killing-floor-2?objectid=20028713'
p316
F2.0370679224189667e-07
sS'http://www.ign.com/boards/forums/infamous.24156/'
p317
F1.633022904181267e-07
sS'http://www.ign.com/articles/2016/05/26/teenage-mutant-ninja-turtles-mutants-in-manhattan-review?watch'
p318
F2.2189286698339954e-07
sS'https://www.youtube.com/yt/dev/'
p319
F1.3205478928980398e-06
sS'http://www.ign.com/boards/forums/pro-wrestling.10733/index.rss'
p320
F1.6157366652380332e-07
sS'http://www.ign.com/videos/2016/12/05/star-wars-at-at-toys-have-changed-a-lot-in-20-years'
p321
F3.422386781735869e-07
sS'http://www.ign.com/articles/2016/02/22/psycho-pass-mandatory-happiness-releasing-in-the-west-this-fall'
p322
F2.2023684326238204e-07
sS'http://www.ign.com/wikis/halo-wars?objectid=20054807'
p323
F2.0256165401468636e-07
sS'http://www.ign.com/articles/2016/12/02/arrowverse-crossover-what-was-left-on-the-cutting-room-floor'
p324
F2.278418094213236e-07
sS'https://accounts.google.com/ServiceLogin?continue=https%3A%2F%2Fwww.youtube.com%2Fsignin%3Fnext%3D%252Fign%26feature%3Dsign_in_promo%26action_handle_signin%3Dtrue%26app%3Ddesktop%26hl%3Den&passive=true&service=youtube&uilel=3&hl=en'
p325
F1.5923045743319588e-07
sS'http://www.ign.com/boards/forums/board-issues-bug-reports.3/'
p326
F1.6519931170028913e-07
sS'http://www.ign.com/games/the-bunker/iphone-20055564'
p327
F2.237734433858357e-07
sS'http://www.ign.com/boards/forums/fable.6152/'
p328
F1.6328404074847567e-07
sS'http://www.ign.com/articles/2016/11/15/pokemon-sun-and-moon-review?read'
p329
F2.2299937559455197e-07
sS'http://www.ign.com/videos/2016/09/01/five-of-ben-brodes-favourite-hearthstone-cards'
p330
F2.239916583853781e-07
sS'http://www.ign.com/boards/forums/guild-wars.7695/'
p331
F1.633022904181267e-07
sS'http://www.ign.com/trailers/mass-effect-andromeda-avina-ark-and-nexus-briefing-trailer'
p332
F4.211998964956318e-07
sS'http://www.ign.com/articles/2016/12/08/vikings-the-vision-review'
p333
F4.936896719570835e-07
sS'http://www.ign.com/wikis/how-to/Beginner%27s_Guide_to_Wikis'
p334
F6.120191722032131e-07
sS'http://www.ign.com/cheats/games/dishonored-2-pc-20038694'
p335
F2.1094455829127282e-07
sS'http://www.ign.com/wikis/playstation-4/PS4_Pro_Game_Upgrades_and_Differences'
p336
F1.609166756364821e-07
sS'http://www.ign.com/articles/2016/10/14/world-of-warcraft-director-moves-onto-undisclosed-blizzard-project'
p337
F2.2132985304597354e-07
sS'http://www.ign.com/boards/forums/auto-racing.6043/'
p338
F1.6480988504948473e-07
sS'https://www.youtube.com/watch?v=wJo_0M3XK0Y'
p339
F1.7429902675627462e-07
sS'http://www.ign.com/articles/2016/11/18/8-things-the-elder-scrolls-series-needs-to-change'
p340
F2.171357791142074e-07
sS'http://www.ign.com/articles/2016/05/10/the-13-biggest-video-games-that-never-came-out?watch'
p341
F2.2198732981766916e-07
sS'http://www.ign.com/articles/2016/12/08/elite-dangerous-heading-to-ps4-early-next-year'
p342
F3.300721496196555e-07
sS'http://www.ign.com/videos/2016/12/04/rogue-one-a-star-wars-story-trust-goes-both-ways-clip'
p343
F2.723074313265767e-07
sS'http://www.ign.com/videos/2016/12/05/our-favorite-games-of-psx-2016'
p344
F4.244386158678684e-07
sS'http://www.ign.com/articles/2016/09/09/world-of-warcraft-legion-review?watch'
p345
F1.6002362176317007e-07
sS'http://www.ign.com/boards/forums/starcraft.5283/'
p346
F1.6328917504277628e-07
sS'http://www.ign.com/boards/threads/damn-this-place-is-dead.454863167/'
p347
F1.6023687238327218e-07
sS'http://www.ign.com/articles/2006/09/22/tgs-2006-ni-oh-at-a-glance'
p348
F1.6299013985983782e-07
sS'https://www.youtube.com/watch?v=MhZm1bJOKrA'
p349
F1.6528650420949353e-07
sS'http://www.ign.com/boards/categories/iconic-franchises.80282/'
p350
F1.6917076517452552e-07
sS'https://www.youtube.com/watch?v=rYWsD7u2AaM'
p351
F1.7648339697748305e-07
sS'http://www.ign.com/articles/2016/12/08/unlocked-274-ideas-for-an-xbox-experience-event?read'
p352
F2.802650044168967e-07
sS'https://twitter.com/IGN/status/806960313983647744'
p353
F2.7578387646940674e-07
sS'http://www.ign.com/boards/forums/marvel-vs-capcom.5988/'
p354
F1.63291765864309e-07
sS'http://www.ign.com/games/ultimate-chicken-horse/xbox-one-20050771'
p355
F2.2215438231104508e-07
sS'http://www.ign.com/articles/2016/05/26/teenage-mutant-ninja-turtles-mutants-in-manhattan-review?read'
p356
F2.218928669833995e-07
sS'http://www.ign.com/articles/2016/11/07/call-of-duty-infinite-warfare-review?watch'
p357
F2.1806731640289323e-07
sS'http://www.ign.com/videos/2016/10/06/18-new-transformers-you-should-check-out-ign-access'
p358
F1.6026939110571064e-07
sS'http://www.ign.com/articles/2016/12/02/harry-potter-and-the-cursed-child-in-talks-to-open-on-broadway-in-2018'
p359
F2.1732947872912338e-07
sS'http://www.ign.com/articles/2016/09/13/tgs-2016-kingdom-hearts-hd-28-delayed-to-january'
p360
F2.2499999517573596e-07
sS'http://www.ign.com/videos/2016/10/01/street-fighter-5-is-street-fighter-5-now-a-complete-game-ign-plays-live'
p361
F3.0270088702776205e-07
sS'https://twitter.com/IGN/status/806951565592399872'
p362
F2.8104469050444544e-07
sS'http://www.ign.com/games/the-unlikely-legend-of-rusty-pup/3ds-20001242'
p363
F2.257664211808693e-07
sS'https://twitter.com/hashtag/Baywatch?src=hash'
p364
F2.675849125678316e-07
sS'http://www.ign.com/articles/2016/12/07/sony-to-launch-smartphone-games-in-japan-based-on-classic-playstation-franchises?read'
p365
F2.213599133704227e-07
sS'http://www.ign.com/wikis/gta-5/Cell_Phone_Cheats'
p366
F8.824965630144376e-07
sS'http://www.ign.com/ds'
p367
F9.067159634837094e-06
sS'http://www.esquire.com/entertainment/tv/news/a51264/jeffrey-wright-westworld-finale-interview/'
p368
F2.3397959318970077e-07
sS'http://www.ign.com/wikis/the-elder-scrolls-5-skyrim/Cheats'
p369
F2.387733967241756e-07
sS'http://www.ign.com/wikis/iphone/IPhone_7_vs_7_Plus_vs_6s_Plus_Comparison_Chart'
p370
F2.204058367157384e-07
sS'http://www.ign.com/images/games/ys-origin-ps4-20062330'
p371
F2.0999929100932318e-07
sS'http://www.ign.com/articles/2016/12/03/psx-2016-new-uncharted-story-announced?read'
p372
F2.1455450569375395e-07
sS'http://www.ign.com/boards/forums/outpost.80128/index.rss'
p373
F1.620145588330228e-07
sS'http://www.ign.com/boards/forums/banjo-kazooie.5450/'
p374
F1.633022904181267e-07
sS'http://www.ign.com/boards/forums/tony-hawks-pro-skater.5225/'
p375
F1.6329437266342983e-07
sS'http://gtaxscripting.blogspot.com/'
p376
F1.7004863537370783e-07
sS'https://twitter.com/louis_herthum/status/783538955828469760'
p377
F2.3415980300549372e-07
sS'http://www.ign.com/articles/2016/11/23/everything-you-need-to-know-about-final-fantasy-xv-2'
p378
F2.186943256026224e-07
sS'http://www.ign.com/boards/forums/the-gcb.5313/'
p379
F1.6421123690219017e-07
sS'https://www.youtube.com/watch?v=sSCbBwEe9_s'
p380
F1.7671098839719914e-07
sS'http://www.ign.com/games/ghost-recon-wildlands/pc-20038799'
p381
F3.9274308800485454e-07
sS'http://www.pcmag.com/news/350101/nintendo-switch-uses-usb-c-for-charging'
p382
F2.390292579792191e-07
sS'http://www.ign.com/videos/2016/11/29/welcome-to-skyrim-episode-2-you-will-believe-a-horse-can-fly'
p383
F3.007418681901162e-07
sS'https://support.twitter.com'
p384
F4.105852155393473e-07
sS'http://www.ign.com/articles/2016/05/15/ranking-the-final-fantasy-games?read'
p385
F2.833423691398258e-07
sS'http://www.ign.com/videos/2016/12/03/the-last-of-us-2-psx-2016-reveal-trailer'
p386
F3.972920347407574e-07
sS'http://www.ign.com/wikis/pokemon-sun-pokemon-moon/List_of_Pokemon_(Pokedex)'
p387
F2.893661952625468e-07
sS'https://twitter.com/hashtag/iPhone7?src=hash'
p388
F2.6936795546513737e-07
sS'https://about.twitter.com/company'
p389
F1.7811610092088564e-07
sS'http://www.ign.com/videos/2016/03/16/dark-souls-prepare-to-try-episode-2-the-undead-burg'
p390
F3.5367323522692934e-07
sS'http://www.ign.com/boards/forums/rock-band.11059/'
p391
F1.633022904181267e-07
sS'http://www.ign.com/games/story-of-seasons-trio-of-towns/3ds-20054537'
p392
F2.2568108294787804e-07
sS'http://www.ign.com/articles/2016/11/06/9-skyrim-secrets-you-probably-didnt-find'
p393
F2.1678545293420697e-07
sS'http://www.ign.com/articles/2015/05/12/the-witcher-3-the-wild-hunt-review'
p394
F2.198836233679879e-07
sS'https://twitter.com/IGN'
p395
F4.743718663780748e-07
sS'https://www.youtube.com/watch?v=5dCqIz88OSA'
p396
F1.6891479581303826e-07
sS'https://www.youtube.com/channel/UCG275E2gosKB-UPk-qCK8qw'
p397
F1.9115796820989705e-07
sS'http://www.ign.com/videos?filter=movies-trailer'
p398
F5.322108565056308e-07
sS'http://www.ign.com/boards/forums/xbox-lobby.8271/index.rss'
p399
F1.611851159508061e-07
sS'https://www.youtube.com/user/ignentertainment?sub_confirmation=1'
p400
F3.5522401544017357e-07
sS'https://www.youtube.com/yt/creators/'
p401
F1.3205478928980398e-06
sS'http://www.ign.com/articles/2016/12/08/johnny-depp-will-smith-top-list-of-2016s-most-overpaid-actors'
p402
F2.1821551422677548e-07
sS'http://www.ign.com/wikis/titanfall-2/Pilot_Helmet_Locations'
p403
F2.427265171724808e-07
sS'http://www.ign.com/boards/forums/television.10502/'
p404
F1.799184530067434e-07
sS'http://www.ign.com/watch/nintendo-voice-chat'
p405
F9.066549542888347e-06
sS'http://www.ign.com/vr'
p406
F9.0628637053306e-06
sS'http://www.ign.com/games/yoshis-woolly-world/3ds-20058268'
p407
F2.2551184638216082e-07
sS'http://www.ign.com/articles/2016/05/23/salt-and-sanctuary-review'
p408
F2.2023684326238206e-07
sS'http://www.ign.com/articles/2016/11/15/pokemon-sun-and-moon-review'
p409
F9.286999921332279e-07
sS'http://www.ign.com/videos/2016/03/20/dark-souls-prepare-to-try-episode-4-the-lower-undead-burg-capra-demon'
p410
F3.5367323522692934e-07
sS'http://www.ign.com/boards/forums/the-vestibule.5296/index.rss'
p411
F1.62033956233303e-07
sS'http://www.ign.com/games/rise-race-the-future/wii-u-20054219'
p412
F2.2984906562308597e-07
sS'http://www.ign.com/watch/fireteam-chat'
p413
F9.065397848275163e-06
sS'http://www.ign.com/videos/2016/12/03/zelda-breath-of-the-wild-game-awards-trailer-all-easter-eggs-analysis-things-missed'
p414
F5.382761475486313e-07
sS'http://www.ign.com/articles/2016/03/10/hitman-episode-1-paris-review?watch'
p415
F1.5978218526202533e-07
sS'https://www.youtube.com/watch?v=2mOyU4oCBaE'
p416
F1.6528650420949353e-07
sS'http://www.ign.com/articles/2016/09/26/ps-vita-a-great-machine-but-too-late-says-former-sony-exec-a-ign-unfiltered?watch'
p417
F2.201454884537992e-07
sS'http://www.ign.com/boards/threads/can-we-get-the-old-bigger-icon-sizes-back.454883499/'
p418
F1.6085935151879402e-07
sS'http://www.ign.com/articles/2016/12/08/the-5-most-annoying-heroes-in-dota-2?watch'
p419
F2.1785561072648055e-07
sS'http://www.ign.com/videos/series/ign-live'
p420
F2.497617442358897e-07
sS'http://www.ign.com/trailers/cars-3-official-teaser-trailer'
p421
F4.211998964956318e-07
sS'http://www.ign.com/wikis/ign-community-central/Livefyre_and_Comments'
p422
F3.097743438890113e-07
sS'http://www.ign.com/wikis/pokemon-go/Gen_1_to_Gen_2_Evolutions_Candy_Chart'
p423
F2.872256920275485e-07
sS'http://www.ign.com/boards/forums/medal-of-honor.6000/'
p424
F1.633022904181267e-07
sS'http://www.ign.com/images/games/ni-oh-ps4-711566'
p425
F2.1016852443551088e-07
sS'http://www.ign.com/videos/2016/12/02/podcast-beyond-episode-470-a-decade-later-final-fantasy-xv-is-finally-here'
p426
F4.1754314701299724e-07
sS'http://www.ign.com/articles/2016/12/08/motor-crush-1-review'
p427
F2.4762882369452717e-07
sS'http://www.ign.com/images/games/resident-evil-7-ps4-20053763'
p428
F2.0918941795640034e-07
sS'http://www.ign.com/games/sniper-elite-4/pc-20050478'
p429
F2.219038187209565e-07
sS'https://twitter.com/IGN?lang=pl'
p430
F2.5144551106349286e-07
sS'http://www.ign.com/videos/2016/12/08/pokemon-sun-and-moon-walkthrough-ulaula-island-grand-trial'
p431
F2.541532362270909e-07
sS'http://www.ign.com/boards/forums/fallout.5729/'
p432
F1.6328404074847564e-07
sS'https://www.youtube.com/watch?v=mepTrvSO1EA'
p433
F1.6970662046112428e-07
sS'http://www.ign.com/wikis/ign-community-central/IGN_Prime'
p434
F3.097743438890113e-07
sS'http://www.ign.com/articles/2016/12/08/bully-anniversary-edition-now-available-on-ios-and-android?abthid=5849e349f91de56c1f00001a&watch'
p435
F2.2103163210470715e-07
sS'http://www.ign.com/articles/2016/12/08/super-mario-run-wont-come-to-nintendo-switch'
p436
F4.4106762816283175e-07
sS'https://twitter.com/intent/tweet?text=Naruto%20Online%3A%20Ready%20deliver%20you%20this%20new%20service%20via%20%40ign%20%23e3&url=http%3A%2F%2Fwww.ign.com%2Fblogs%2Fnancyli%2F2016%2F12%2F07%2Fnaruto-online-ready-deliver-you-this-new-service&original_referer='
p437
F1.5758296086690262e-07
sS'http://www.ign.com/games/touhou-genso-rondo-wanderer/vita-20054675'
p438
F2.191663039918799e-07
sS'http://www.ign.com/wikis/the-last-guardian/Part_7_-_The_Tree'
p439
F2.468273636996028e-07
sS'http://www.ign.com/videos/2016/12/08/these-might-be-the-best-street-fighter-figures-ever-made'
p440
F4.3728205107838034e-07
sS'http://www.ign.com/games/steep/xbox-one-20054838'
p441
F2.302179196940631e-07
sS'http://www.ign.com/boards/forums/bioshock.8010/'
p442
F1.633022904181267e-07
sS'https://www.amazon.com/Outlet/b/?_encoding=UTF8&camp=1789&creative=390957&linkCode=ur2&node=409566&pf_rd_i=517808&pf_rd_m=ATVPDKIKX0DER&pf_rd_p=1396814542&pf_rd_r=1P5G0D13Z872NN83JHGQ&pf_rd_s=browse&pf_rd_t=101&tag=homepagetextlink-20'
p443
F1.591402894989255e-07
sS'http://www.ign.com/articles/2016/12/09/spider-man-homecoming-star-tom-holland-calls-vultures-debut-like-a-horror-movie?abthid=584a07217bb8cf2b2000002e&watch'
p444
F2.6920007980804203e-07
sS'http://www.ign.com/articles/2016/12/04/star-wars-rebels-an-inside-man-review'
p445
F4.923137035227783e-07
sS'http://www.ign.com/boards/forums/yu-gi-oh.6607/'
p446
F1.6471362738888323e-07
sS'http://www.ign.com/boards/forums/mixed-martial-arts.8252/'
p447
F1.6533289333550295e-07
sS'http://www.ign.com/videos/2016/12/05/why-were-excited-for-the-last-of-us-part-ii-psx-2016'
p448
F4.671149652937936e-07
sS'http://www.ign.com/videos/2016/12/08/lara-croft-goes-indie-the-best-zelda-amiibo-our-top-10-games-of-2016-up-at-noon-live'
p449
F9.0628637053306e-06
sS'http://www.ign.com/boards/forums/animal-crossing.5310/'
p450
F1.6328404074847567e-07
sS'http://www.ign.com/games/assassins-creed-the-ezio-collection/ps4-20058808'
p451
F2.2426625927560987e-07
sS'http://www.ign.com/articles/2016/12/07/ign-anime-club-episode-75-our-least-favorite-anime-endings'
p452
F1.6144487570075882e-07
sS'http://www.offers.com/'
p453
F3.020439113559591e-06
sS'http://www.ign.com/wikis/halo-wars?objectid=20054810'
p454
F2.0256165401468636e-07
sS'http://www.ign.com/articles/2016/12/08/unlocked-274-ideas-for-an-xbox-experience-event?watch'
p455
F2.802650044168967e-07
sS'http://www.ign.com/articles/2016/11/30/the-flash-invasion-review'
p456
F4.3873960925073603e-07
sS'http://www.ign.com/articles/2016/10/20/10-of-the-best-oculus-rift-games'
p457
F2.192338791100756e-07
sS'http://people.ign.com/kicksplode'
p458
F1.6119671208143533e-07
sS'http://www.ign.com/videos/2016/12/06/whats-next-for-dota-2'
p459
F2.764308051474379e-07
sS'http://www.ign.com/videos/2016/08/18/13-minutes-of-new-sea-of-thieves-gameplay-gamescom-2016'
p460
F3.083234549170621e-07
sS'http://www.ign.com/articles/2016/11/23/killing-floor-2-review'
p461
F6.325194614699134e-07
sS'http://www.ign.com/boards/forums/madden-nfl.5973/'
p462
F1.633022904181267e-07
sS'https://www.youtube.com/user/IGNNews'
p463
F1.8428704219096192e-07
sS'http://www.ign.com/articles/2016/12/01/lethal-weapon-can-i-get-a-witness-review'
p464
F4.923137035227783e-07
sS'https://twitter.com/IGN/status/806974140510916608'
p465
F2.7648354899567405e-07
sS'http://www.ign.com/wikis/ign-community-central/Writing_Your_First_Blog'
p466
F2.304453876494865e-07
sS'http://www.ign.com/articles/2016/12/08/office-christmas-party-review?watch'
p467
F2.1827869670830097e-07
sS'http://www.ign.com/boards/categories/music.80077/'
p468
F1.707688969017137e-07
sS'http://www.ign.com/articles/2016/11/22/the-art-of-dc-comics-bombshells-shows-off-dcs-design-to-statue-process'
p469
F2.1755626881366796e-07
sS'http://www.ign.com/wikis/pokemon-sun-pokemon-moon/Zygarde_Cells_and_Cores'
p470
F2.121408745522707e-07
sS'http://www.ign.com/videos/2016/12/07/amnesia-laboratory-experiments-scared-senseless-episode-2'
p471
F3.1486748649171835e-07
sS'http://www.ign.com/boards/forums/warhammer.8643/'
p472
F1.633022904181267e-07
sS'http://www.ign.com/articles/2016/12/07/the-5-most-popular-dota-2-heroes?watch'
p473
F1.5976420407612936e-07
sS'http://www.ign.com/articles/2016/09/30/ign-unfiltered-11-longtime-playstation-boss-jack-tretton?watch'
p474
F1.6002362176317005e-07
sS'http://www.ign.com/videos/games/bulletstorm-full-clip-edition-pc-20059601'
p475
F2.0982470752551368e-07
sS'http://corp.ign.com/feeds'
p476
F4.300623846159225e-06
sS'http://www.ign.com/articles/2016/12/06/dragon-ball-super-episode-69-goku-vs-arale-a-ridiculous-battle-will-end-the-earth-review'
p477
F4.921007883512498e-07
sS'http://www.ign.com/blogs/andri_g/2016/12/07/driving-passion-in-games-part-2-catch-a-ride'
p478
F2.1922847592713372e-07
sS'http://www.ign.com/articles/2016/12/07/batman-the-telltale-series-episode-5-release-date-announced?read'
p479
F3.449948153304836e-07
sS'http://www.ign.com/articles/2016/12/01/unlocked-273-our-xbox-holiday-wishes'
p480
F1.616868249660446e-07
sS'http://www.ign.com/articles/2016/11/24/ad-after-death-book-1-review'
p481
F2.460399400886934e-07
sS'http://www.ign.com/articles/2016/11/04/the-original-diablo-returns-in-diablo-3-next-week?watch'
p482
F2.1773691314548886e-07
sS'https://www.youtube.com/watch?v=kDDkAK1LvSk'
p483
F1.6822641696489775e-07
sS'http://www.ign.com/articles/2016/10/21/ign-unfiltered-12-call-of-duty-and-titanfall-creator-vince-zampella?watch'
p484
F1.5995842560833558e-07
sS'http://www.ign.com/blogs/saleem44/2015/11/02/weekly-theme-blog-most-memorable-character-deaths'
p485
F2.173735260999509e-07
sS'http://www.ign.com/blogs/shmuga9'
p486
F2.1852041503656374e-07
sS'http://www.ign.com/videos/2016/12/07/rogue-one-a-star-wars-story-jyn-erso-and-saw-gerreras-relationship'
p487
F2.723074313265767e-07
sS'http://www.ign.com/wikis/bulletstorm?objectid=20054907'
p488
F2.0290274787800808e-07
sS'http://www.ign.com/videos/2016/11/04/fantastic-beasts-2-is-johnny-depp-playing-gellert-grindelwald-ign-keepin-it-reel'
p489
F2.871290121693503e-07
sS'http://people.ign.com/alexroth-ign'
p490
F1.7536492773060468e-07
sS'https://twitter.com/IGN?lang=msa'
p491
F2.5144551106349286e-07
sS'http://www.ign.com/articles/2016/12/01/ign-unfiltered-episode-13-inventor-and-oculus-co-founder-jack-mccauley?read'
p492
F2.194885365588042e-07
sS'http://www.ign.com/articles/2016/12/07/your-name-anime-director-makoto-shinkai-talks-the-oscar-contender'
p493
F2.23890638621561e-07
sS'http://www.ign.com/articles/2016/11/30/ign-anime-club-episode-74-leave-lelouch-alone'
p494
F1.6614268776765742e-07
sS'http://www.ign.com/articles/2016/11/22/marvel-reveals-new-inhumans-comics-for-spring-2017'
p495
F2.1739125665572692e-07
sS'http://www.ign.com/articles/2016/12/03/death-stranding-everything-you-missed-in-the-new-trailer'
p496
F1.7537751643204005e-07
sS'http://www.ign.com/articles/2016/12/07/batman-the-telltale-series-episode-5-release-date-announced'
p497
F3.449948153304836e-07
sS'http://www.ign.com/blogs/clinta13/2016/12/08/thursdays-wii-u-virtual-console-releases-12816-eshop-eshop-sales-sales'
p498
F2.1868960903599344e-07
sS'http://inttrax.com/track?cid=66424&pubid=70018&crid=481538&subid=0804igndd'
p499
F2.0910749097843544e-07
sS'http://www.ign.com/videos/2016/12/05/could-gt-sport-surpass-photorealism-psx-2016'
p500
F2.786326204649217e-07
sS'https://www.youtube.com/watch?v=6UCQkcz-gyM'
p501
F1.6635321052024796e-07
sS'http://www.ign.com/blogs/scottcollura/2016/11/23/why-star-trek-first-contact-is-still-awesome-20-years-later'
p502
F1.603975163439134e-07
sS'http://www.ign.com/games/the-unspoken/pc-20052379'
p503
F2.1980830372746863e-07
sS'http://www.ign.com/articles/2016/12/09/season-of-heaven-announced-as-a-nintendo-switch-exclusive'
p504
F1.5230983121903803e-06
sS'http://www.ign.com/boards/categories/technology.80145/'
p505
F1.7290968271467305e-07
sS'http://www.ign.com/boards/categories/archived-game-boards.80227/'
p506
F1.6318504224661164e-07
sS'http://www.ign.com/boards/forums/call-of-duty.6860/'
p507
F1.6328149698814167e-07
sS'http://www.ign.com/boards/forums/feature-and-board-requests.4/index.rss'
p508
F1.6190820893842416e-07
sS'http://www.ign.com/games/dead-rising-4/xbox-one-20054254'
p509
F2.1598501870232136e-07
sS'http://people.ign.com/havokrose'
p510
F2.1398594172484386e-07
sS'http://www.ign.com/games/nintendo-switch/nintendo-nx-20034301'
p511
F3.180978066764916e-07
sS'https://www.youtube.com/playlist?list=PLraFbwCoisJCG2Wsep4O6WneiWMOKnSe7'
p512
F1.692411836324172e-07
sS'http://www.ign.com/articles/2016/12/02/paterson-review'
p513
F2.442284336247705e-07
sS'http://www.ign.com/wikis/pokemon-sun-pokemon-moon/Things_Not_to_Do_in_Pokemon_Sun_and_Moon'
p514
F2.7288465077400566e-07
sS'http://www.ign.com/games/the-walking-dead-a-telltale-game-series-season-3/pc-20022256'
p515
F2.302704756396885e-07
sS'http://www.ign.com/watch/ign-originals'
p516
F9.0628637053306e-06
sS'https://www.youtube.com/watch?v=kcv7PwBXp7I'
p517
F1.6822641696489775e-07
sS'http://ro.ign.com/'
p518
F3.577694449753359e-07
sS'http://www.ign.com/articles/2016/12/05/star-wars-director-gareth-edwards-on-the-politics-of-rogue-one'
p519
F2.233365340256966e-07
sS'http://www.ign.com/articles/2016/12/09/arrow-how-did-that-thought-dead-character-come-back'
p520
F5.185527762872363e-06
sS'http://www.ign.com/boards/forums/indie-rock.6855/'
p521
F1.6550484549652118e-07
sS'http://www.ign.com/videos/2016/03/14/dark-souls-prepare-to-try-episode-1-the-northern-undead-asylum'
p522
F3.5367323522692934e-07
sS'http://www.ign.com/articles/2016/12/02/barbie-amy-schumer-may-star-in-live-action-movie?watch'
p523
F1.6009249761025675e-07
sS'http://www.ign.com/articles/2016/12/07/sprint-and-niantic-announce-new-pokemon-go-partnership'
p524
F2.2103163210470715e-07
sS'http://www.ign.com/articles/2015/07/04/what-its-really-like-to-play-minecraft-on-hololens'
p525
F2.195194443354919e-07
sS'https://www.youtube.com/channel/UCZfDHQE3mrZ7123Wl3iRhbg'
p526
F1.8826987622503273e-07
sS'http://www.ign.com/boards/forums/star-fox.6338/'
p527
F1.6331308031888083e-07
sS'http://www.ign.com/videos/2016/11/18/secret-history-of-westworld-ign-secret-origins'
p528
F2.803114884012125e-07
sS'http://www.ign.com/images/games/ultimate-marvel-vs-capcom-3-ps4-20062336'
p529
F2.08702467659888e-07
sS'http://www.ign.com/images/games/abzu-xbox-one-20060928'
p530
F2.0960943610093433e-07
sS'http://www.ign.com/videos/2016/12/03/the-last-of-us-part-2-uncharted-the-lost-legacy-ign-live-reacts'
p531
F3.3237340707531756e-07
sS'https://www.youtube.com/watch?v=a1XVZCXOgAo'
p532
F1.6528650420949353e-07
sS'http://www.ign.com/articles/2016/12/02/the-game-awards-2016-winners-announced'
p533
F2.1903798361264103e-07
sS'http://www.ign.com/articles/2015/08/26/ign-is-coming-to-snapchat'
p534
F2.705886550701479e-07
sS'http://www.ign.com/boards/forums/marvel-comics-games.7683/'
p535
F1.633022904181267e-07
sS'http://www.ign.com/videos/2016/10/05/the-first-12-minutes-of-batman-arkham-vr'
p536
F2.2572243857252475e-07
sS'http://www.ign.com/images/games/resident-evil-7-pc-20054862'
p537
F2.0804623296251705e-07
sS'http://www.ign.com/articles/2016/10/20/whats-new-in-splatoon-and-mario-kart-for-nintendo-switch'
p538
F2.2616648601487586e-07
sS'http://www.ign.com/watch/eric-goldman'
p539
F2.9345416133821224e-07
sS'https://www.instagram.com/igndotcom/'
p540
F2.742379937845712e-07
sS'http://www.ign.com/articles/2016/11/12/the-walking-dead-new-images-show-negan-arriving-on-ricks-turf'
p541
F2.1759122584323287e-07
sS'http://www.ign.com/videos/games/resident-evil-7-ps4-20053763'
p542
F2.0918941795640034e-07
sS'http://www.ign.com/games/ultimate-marvel-vs-capcom-3/ps4-20062336'
p543
F2.1023316951670948e-07
sS'http://www.ign.com/boards/forums/books.80225/'
p544
F1.6404561930140445e-07
sS'http://www.ign.com/articles/2016/11/04/nes-classic-edition-review'
p545
F2.8983936758657025e-07
sS'http://www.ign.com/wikis/create?objectid=20042750'
p546
F2.081150292030619e-07
sS'http://www.ign.com/videos/2016/11/26/totally-wild-halo-6-speculation-unlocked'
p547
F3.5215617916363645e-07
sS'http://www.ign.com/articles/2016/05/26/teenage-mutant-ninja-turtles-mutants-in-manhattan-review'
p548
F2.2189286698339956e-07
sS'http://www.ign.com/games/asdivine-hearts/vita-20060896'
p549
F2.1918104547453998e-07
sS'http://www.ign.com/articles/2016/12/08/batman-writer-scott-snyder-lands-movie-deal-for-ad-after-death-comic'
p550
F2.1745538116467982e-07
sS'http://www.ign.com/articles/2016/10/07/playstation-vr-everything-you-need-to-know'
p551
F2.2303087919416464e-07
sS'https://www.youtube.com/watch?v=A6S-6m7gFAs'
p552
F1.6895464535288997e-07
sS'http://www.ign.com/wikis/ign-community-central/IGN_Community_Team'
p553
F3.676969119865199e-07
sS'http://www.ign.com/videos/2016/12/08/pokemon-sun-and-moon-walkthrough-route-17'
p554
F2.5605881186843774e-07
sS'https://twitter.com/intent/tweet?text=JustGuest%20and%20the%20Super%20Comment%20Section%20via%20%40ign%20%23e3&url=http%3A%2F%2Fwww.ign.com%2Fblogs%2Fjustguest%2F2016%2F12%2F05%2Fjustguest-and-the-super-comment-section&original_referer='
p555
F1.5758296086690262e-07
sS'http://www.ign.com/games/upcoming/ps3'
p556
F2.3493195550362917e-07
sS'http://www.ign.com/wikis/pokemon-sun-pokemon-moon/Every_Pokemon_QR_Code_List'
p557
F1.0556602405171645e-06
sS'http://www.ign.com/articles/2016/08/19/deus-ex-mankind-divided-review?watch'
p558
F1.5967853542901254e-07
sS'http://www.ign.com/boards/forums/fire-emblem.5750/'
p559
F1.6328149698814167e-07
sS'https://twitter.com/IGN?lang=ar'
p560
F2.5144551106349286e-07
sS'http://www.ign.com/boards/forums/tech-board.5124/'
p561
F1.7955144817949798e-07
sS'http://www.ign.com/articles/2016/12/08/ww2-shooter-days-of-war-hits-early-access-in-january'
p562
F2.183111879239975e-07
sS'http://www.ign.com/blogs/pacquiaovsvargas'
p563
F2.204494798622742e-07
sS'http://www.ign.com/articles/2016/12/09/attack-on-titan-season-2-licensed-by-funimation?abthid=5849f1398a994e2d20000019'
p564
F2.4483894177751217e-07
sS'http://www.ign.com/articles/2016/12/02/star-wars-heres-the-advice-george-lucas-gave-to-rogue-one-director-gareth-edwards'
p565
F2.7545255705826285e-07
sS'http://corp.ign.com/'
p566
F4.300623846159225e-06
sS'http://www.ign.com/articles/2016/11/03/owlboy-review?watch'
p567
F2.1815462289421055e-07
sS'http://www.ign.com/boards/forums/acfriends.80124/'
p568
F1.6415632869269746e-07
sS'http://adria.ign.com/'
p569
F3.577694449753359e-07
sS'http://www.ign.com/wikis/gta-5'
p570
F1.1112024191276962e-06
sS'http://www.ign.com/articles/2016/05/05/top-10-secret-bosses-in-video-games?read'
p571
F2.2120725957579883e-07
sS'https://www.youtube.com/watch?v=gW6TqPJgwcU'
p572
F1.7197380624870662e-07
sS'http://www.ign.com/boards/forums/phantasy-star.5187/'
p573
F1.63291765864309e-07
sS'http://www.ign.com/videos'
p574
F9.067159634837094e-06
sS'http://adria.ign.com/sl/'
p575
F2.1813520634058188e-07
sS'http://www.ign.com/articles/2016/12/08/daily-deals-oculus-rift-miyazaki-movies-ps4-with-free-ps-plus/'
p576
F1.587313605496739e-07
sS'https://www.youtube.com/watch?v=nAbg97zWsoc'
p577
F1.6528650420949353e-07
sS'https://www.youtube.com/watch?v=elmlxR4kdC0'
p578
F1.6528650420949353e-07
sS'http://www.ign.com/videos/2016/12/08/star-wars-battlefront-scariff-dlc-fun-naming-episode-8-ign-plays-live'
p579
F5.94742430494045e-07
sS'http://www.ign.com/articles/2016/07/25/top-10-worst-star-wars-games-ever-made?read'
p580
F2.221682743344672e-07
sS'http://www.ign.com/articles/2016/10/20/10-of-the-best-oculus-rift-games?read'
p581
F2.192338791100756e-07
sS'http://www.ign.com/trailers/baywatch-official-teaser-trailer'
p582
F4.211998964956318e-07
sS'http://www.ign.com/articles/2016/12/05/daily-deals-ps4-with-free-ps-plus-dead-rising-4-the-last-guardian'
p583
F3.4387487355048223e-07
sS'http://www.ign.com/blogs/sportshd'
p584
F2.2044947986227423e-07
sS'http://www.ign.com/articles/2016/12/08/these-90s-batmobile-and-batwing-toys-are-spot-on-animated-series-replicas'
p585
F2.7709035448381126e-07
sS'http://www.ign.com/boards/forums/super-smash-bros.80153/'
p586
F1.6328917504277628e-07
sS'http://pt.ign.com/'
p587
F3.577694449753359e-07
sS'http://www.ign.com/cheats/games/pokemon-sun-version-3ds-20050014'
p588
F2.049367963253811e-07
sS'http://www.ign.com/articles/2016/12/08/arrow-what-we-leave-behind-review'
p589
F1.9680418083236166e-06
sS'http://www.ign.com/boards/forums/tomb-raider.6484/'
p590
F1.6330229041812668e-07
sS'http://www.ign.com/articles/2016/12/03/psx-2016-new-uncharted-story-announced'
p591
F2.503008239620618e-07
sS'http://www.ign.com/articles/2016/11/11/pokemon-just-hit-us-in-the-nostagia-with-updated-pokemon-base-set-cards'
p592
F2.8975547272943604e-07
sS'https://careers-ziffdavis.icims.com/jobs/search?ss=1&searchCompany=8'
p593
F1.5758296086690262e-07
sS'http://www.ign.com/articles/2016/11/28/star-wars-episode-8-luke-skywalker-lines-leak'
p594
F1.600461564243224e-07
sS'http://www.ign.com/boards/forums/saints-row.8406/'
p595
F1.6328149698814164e-07
sS'http://www.ign.com/articles/2016/12/07/sony-to-launch-smartphone-games-in-japan-based-on-classic-playstation-franchises?watch'
p596
F2.213599133704227e-07
sS'http://www.ign.com/boards/forums/gaming.80002/'
p597
F1.6519012301769712e-07
sS'http://www.ign.com/articles/2016/10/12/overwatch-officially-passes-20-million-registered-players'
p598
F2.208682727637185e-07
sS'http://www.ign.com/boards/forums/football.5105/index.rss'
p599
F1.6157366652380332e-07
sS'http://www.ign.com/articles/2016/10/25/world-of-final-fantasy-review'
p600
F2.208960500269965e-07
sS'http://www.ign.com/articles/2016/12/08/nintendo-shows-zelda-breath-of-the-wild-running-on-nintendo-switch'
p601
F1.7446363128781286e-06
sS'https://www.instagram.com/igndotcom/?hl=en'
p602
F2.48450827061396e-07
sS'http://www.ign.com/boards/categories/all-tv-shows-boards.80088/'
p603
F1.6393640722663088e-07
sS'http://www.ign.com/cheats/games/watch-dogs-2-xbox-one-20054627'
p604
F2.0634599704066883e-07
sS'http://www.ign.com/articles/2016/11/29/lethal-weapon-clip-riggs-bets-the-house'
p605
F2.764178915296335e-07
sS'http://www.ign.com/wikis/pokemon-sun-pokemon-moon/How_to_EV_Train_in_Pokemon_Sun_and_Moon'
p606
F1.0096700791112208e-06
sS'https://www.youtube.com/channel/UClgRkhTL3_hImCAmdLfDE4g'
p607
F2.8414165672371583e-07
sS'http://www.ign.com/games/yu-gi-oh-duel-links/iphone-20059937'
p608
F2.239090498618022e-07
sS'http://www.ign.com/videos/games/bulletstorm-full-clip-edition-ps4-20059600'
p609
F2.0982204592748211e-07
sS'https://twitter.com/intent/tweet?url=http%3A%2F%2Fwww.ign.com%2Fblogs%2Fboxinglive%2F2016%2F12%2F06%2F13th-fina-world-swimming-championships-25m-2016-live-stream&text=13th%20FINA%20World%20Swimming%20Championships%20%2825m%29%202016%20Live%20Stream%20via%20%40ign%20%23e3&original_referer='
p610
F1.5758296086690262e-07
sS'http://www.ign.com/movies/upcoming'
p611
F2.1613651734649626e-07
sS'https://www.youtube.com/watch?v=STvstEyzZK4&index=20&list=PLraFbwCoisJDZ8ZpheC4BOvxI2ithckux'
p612
F1.718821666499585e-07
sS'http://www.ign.com/boards/forums/the-vestibule.5296/'
p613
F1.6544252495948306e-07
sS'http://www.ign.com/boards/forums/onimusha.6087/'
p614
F1.6331308031888083e-07
sS'http://www.ign.com/articles/2016/10/26/nintendo-switch-the-unanswered-questions'
p615
F2.955673795181002e-07
sS'http://www.ign.com/articles/2016/12/06/daily-deals-star-wars-legos-ps4-slim-with-free-ps-plus-metal-gear-solid-v-definitive?abthid=5847264c327fc6091100001f'
p616
F2.8364644015675703e-07
sS'https://www.youtube.com/user/IGNentertainment/channels'
p617
F1.8882425545395513e-07
sS'http://www.ign.com/boards/forums/announcements.14/index.rss'
p618
F1.6190820893842416e-07
sS'http://www.ign.com/videos/2016/12/08/this-batman-dark-knight-returns-statue-features-bats-riding-a-stallion'
p619
F6.677529816650811e-07
sS'http://www.ign.com/games/upcoming/iphone'
p620
F2.35534494485204e-07
sS'http://www.ign.com/wikis/create?objectid=20052379'
p621
F2.0666901237242366e-07
sS'https://www.youtube.com/channel/UCl8dMTqDrJQ0c8y23UBu4kQ'
p622
F2.8414165672371583e-07
sS'http://www.ign.com/articles/2016/04/01/the-walking-dead-michonne-episode-2-review'
p623
F2.2151788153350535e-07
sS'http://www.ign.com/boards/forums/tekken.6428/'
p624
F1.6328149698814167e-07
sS'http://www.ign.com/videos/2016/11/29/final-fantasy-xv-official-ride-together-launch-trailer'
p625
F1.601653737207204e-07
sS'http://www.ign.com/wikis/ign-all-stars'
p626
F2.1805134228054962e-07
sS'https://www.youtube.com/watch?v=tGjACewDIg0'
p627
F1.6528650420949353e-07
sS'http://www.ign.com/articles/2016/12/03/psx-2016-ys-origin-coming-to-ps4-and-ps-vita'
p628
F2.8186518486176817e-07
sS'https://s.ign.com/signin'
p629
F1.4978763090698853e-06
sS'http://www.ign.com/boards/threads/new-recruit-briefs_cat11.454894307/'
p630
F1.5917793452647798e-07
sS'http://www.ign.com/boards/forums/dead-rising.8413/'
p631
F1.6329437266342983e-07
sS'http://www.ign.com/articles/2016/11/23/assassinas-creed-the-ezio-collection-review'
p632
F7.395151545746178e-07
sS'http://www.ign.com/articles/2016/12/07/podcast-beyond-episode-471-our-death-stranding-and-last-of-us-2-theories?read'
p633
F3.413855544805484e-07
sS'http://www.ign.com/boards/forums/other-sports.10753/index.rss'
p634
F1.6157366652380332e-07
sS'http://www.ign.com/videos/2016/12/03/stories-you-may-have-missed-no-mans-sky-cleared-of-misleading-pr-ign-daily-fix'
p635
F3.329840218568504e-07
sS'http://www.ign.com/videos/2015/01/21/the-platforming-bliss-of-super-mario-galaxy-2'
p636
F3.0342862872001634e-07
sS'http://www.ign.com/games/ember-nfusion/iphone-20025446'
p637
F2.2381694309057197e-07
sS'http://www.ign.com/articles/2016/12/05/the-last-guardian-review?read'
p638
F2.1420063989305332e-07
sS'http://www.ign.com/videos/games/yakuza-6-ps4-20042750'
p639
F2.0525061146324447e-07
sS'https://twitter.com/intent/tweet?text=First%20Encounter%20%20via%20%40ign%20%23e3&url=http%3A%2F%2Fwww.ign.com%2Fblogs%2Fpopcultkid5555%2F2016%2F12%2F07%2Ffirst-encounter&original_referer='
p640
F1.5758296086690262e-07
sS'http://www.ign.com/wikis/pokemon-sun-pokemon-moon/Walkthrough'
p641
F2.964562023802795e-07
sS'http://www.ign.com/pc'
p642
F9.067159634837094e-06
sS'https://twitter.com/intent/tweet?url=http%3A%2F%2Fwww.ign.com%2Fblogs%2Ftechportal11%2F2016%2F12%2F08%2Fhttpthetechportalcom20161208pokemon-go-partnership-sprint&text=http%3A%2F%2Fthetechportal.com%2F2016%2F12%2F08%2Fpokemon-go-partnership-sprint%2F%20via%20%40ign%20%23e3&original_referer='
p643
F1.5758296086690262e-07
sS'http://www.ign.com/articles/2016/11/17/what-we-want-from-dragon-ball-super?watch'
p644
F1.598190519155696e-07
sS'http://www.ign.com/videos/2016/07/12/pokemon-go-in-gta-5-ign-original'
p645
F3.0858140147910627e-07
sS'http://www.ign.com/wikis/create'
p646
F2.397607086263088e-07
sS'http://www.ign.com/videos/2016/12/08/call-of-duty-modern-warfare-remastered-december-update-trailer'
p647
F7.871044992458719e-07
sS'http://www.ign.com/wikis/gta-5/GTA_Online_Weekly_Updates'
p648
F1.01292591889175e-06
sS'http://www.ign.com/articles/2016/12/05/a-classic-piece-of-peter-parkers-costume-is-back-in-spider-man-homecoming?watch'
p649
F1.599797671713398e-07
sS'http://www.ign.com/boards/threads/pretty-clear-that-harbaugh-is-the-most-overrated-coach-in-college-football.454892736/page-3'
p650
F1.5866170624527534e-07
sS'http://www.ign.com/boards/forums/f-e-a-r.7699/'
p651
F1.633022904181267e-07
sS'http://www.ign.com/videos/2016/12/08/pokemon-sun-and-moon-walkthrough-shady-house'
p652
F2.5860222217264624e-07
sS'https://twitter.com/IGN?lang=bn'
p653
F2.5144551106349286e-07
sS'http://www.ign.com/comics/reviews'
p654
F2.5868336434728865e-07
sS'https://www.youtube.com/watch?v=od4yhVXIyHc'
p655
F1.726111083375032e-07
sS'https://www.youtube.com/watch?v=4WzpoPkTvS0'
p656
F1.6528650420949353e-07
sS'http://www.ign.com/boards/forums/college-basketball.8691/index.rss'
p657
F1.6157366652380332e-07
sS'https://www.youtube.com/watch?v=yQjh_AnA_y0'
p658
F1.86577451222538e-07
sS'https://accounts.google.com/ServiceLogin?continue=https%3A%2F%2Fwww.youtube.com%2Fsignin%3Fapp%3Ddesktop%26action_handle_signin%3Dtrue%26next%3D%252Fupload%26hl%3Den%26feature%3Dredirect_login&hl=en&passive=true&service=youtube&uilel=3'
p659
F1.5758296086690262e-07
sS'http://www.ign.com/articles/2016/11/14/dishonored-2-review?watch'
p660
F1.6004615642432244e-07
sS'http://www.ign.com/articles/2016/12/05/transformers-the-last-knights-story-characters-revealed'
p661
F2.795456334551598e-07
sS'http://tr.ign.com'
p662
F1.8039638746676198e-07
sS'https://twitter.com/hashtag/Westworld?src=hash'
p663
F1.6373471850083138e-07
sS'https://www.ziffdavis.com/terms-of-use'
p664
F2.7403258913951045e-07
sS'http://www.ign.com/articles/2016/04/26/severed-review?read'
p665
F2.201454884537992e-07
sS'http://www.ign.com/boards/categories/other-categories.5/'
p666
F1.7892231696662047e-07
sS'http://www.ign.com/boards/forums/xbox-lobby.8271/'
p667
F1.6475715226097998e-07
sS'http://www.ign.com/boards/forums/naruto.6791/'
p668
F1.6328917504277628e-07
sS'https://twitter.com/IGN?lang=pt'
p669
F2.5144551106349286e-07
sS'http://www.ign.com/games/get-off-my-lawn/wii-u-20027109'
p670
F2.2736580677241277e-07
sS'https://twitter.com/KOOPMode'
p671
F2.732101312904372e-07
sS'http://www.ign.com/articles/2016/07/13/pokemon-go-review?read'
p672
F2.2053662192105374e-07
sS'http://www.ign.com/wikis/recentchanges'
p673
F2.398289679265891e-07
sS'http://www.ign.com/boards/forums/mobile-suit-gundam.6018/'
p674
F1.6330765157688002e-07
sS'http://www.ign.com/articles/2016/03/10/hitman-episode-1-paris-review'
p675
F2.1500060345004313e-07
sS'https://www.youtube.com/watch?v=1-uORiGInHo'
p676
F1.724833560777387e-07
sS'http://www.ign.com/videos/2015/07/20/gta-5-cinema-king-of-the-hill-intro'
p677
F3.0872456379557004e-07
sS'http://www.ign.com/tv/westworld'
p678
F2.910314100706341e-07
sS'http://www.ign.com/games/batman-the-telltale-series-episode-4/pc-20060180'
p679
F2.142174284768328e-07
sS'https://support.google.com/youtube/?hl=en'
p680
F8.811138930743924e-07
sS'http://www.ign.com/articles/2016/11/28/future-of-vr-not-necessarily-gaming-says-oculus-chief-engineer-a-ign-unfiltered?watch'
p681
F1.5995842560833553e-07
sS'http://www.ign.com/videos/games/apollo-justice-ace-attorney-android-20060197'
p682
F2.0753461466912746e-07
sS'http://www.ign.com/boards/threads/magical-girl-raising-project-aka-battle-royale-mahou-shoujo-edition-official-discussion-fall-2016.454853387/page-3'
p683
F1.586039104847449e-07
sS'http://www.ign.com/wikis/create?objectid=20062533'
p684
F2.1029352161599203e-07
sS'http://www.ign.com/articles/2016/05/25/the-witcher-3-wild-hunt-blood-and-wine-review'
p685
F2.2023146013890372e-07
sS'https://www.youtube.com/watch?v=6KijwIvRu1M'
p686
F1.6528650420949353e-07
sS'http://www.ign.com/wikis/ultimate-marvel-vs-capcom-3?objectid=20062336'
p687
F2.0280552765824103e-07
sS'https://creditcards.offers.com/articles/game-gear-rewards-card'
p688
F2.1316222370222684e-07
sS'http://www.ign.com/wii-u'
p689
F9.067159634837094e-06
sS'http://www.ign.com/wikis/create?objectid=20042906'
p690
F2.1052714959258163e-07
sS'http://www.ign.com/videos/2016/12/08/super-mario-run-official-live-action-commercial'
p691
F2.8271746382414573e-07
sS'http://www.ign.com/boards/forums/basketball.5109/index.rss'
p692
F1.6157366652380332e-07
sS'https://twitter.com/intent/tweet?url=http%3A%2F%2Fwww.ign.com%2Fblogs%2Fclinta13%2F2016%2F12%2F08%2Fthursdays-wii-u-virtual-console-releases-12816-eshop-eshop-sales-sales&text=Thursday%27s%20Wii%20U%20Virtual%20Console%20Releases%20%2812%2F8%2F16%29%20%2F%20eShop%20%2F%20eShop%20Sales%20%2F%20Sales%20via%20%40ign%20%23e3&original_referer='
p693
F1.5758296086690262e-07
sS'http://www.ign.com/watch/brian-altano'
p694
F9.333962474204501e-07
sS'http://www.ign.com/wikis/super-mario-maker?objectid=20058267'
p695
F2.0342703428806752e-07
sS'http://www.ign.com/games/dishonored-2/ps4-20038705'
p696
F2.1482975937413657e-07
sS'http://www.ign.com/boards/forums/my-ign.80149/index.rss'
p697
F1.6191862436011348e-07
sS'https://twitter.com/login?redirect_after_login=%2FIGN%2Fmoments'
p698
F1.6160638778684517e-07
sS'http://www.ign.com/articles/2016/11/30/super-mario-maker-for-nintendo-3ds-review'
p699
F8.710878632086233e-07
sS'http://www.ign.com/games/danganronpa-v3/vita-20032525'
p700
F2.1640395567407452e-07
sS'https://status.twitterstat.us/'
p701
F1.9988285384986372e-07
sS'http://www.ign.com/watch/andrew-goldfarb'
p702
F3.6544180404374703e-07
sS'https://www.youtube.com/watch?v=8YQCEBQtJbk'
p703
F1.6528650420949353e-07
sS'http://www.ign.com/blogs/justguest/2016/12/05/justguest-and-the-super-comment-section'
p704
F2.2086685709491256e-07
sS'http://www.ign.com/boards/categories/all-movie-boards.80092/'
p705
F1.6522207560069803e-07
sS'http://subscribe.ign.com'
p706
F2.1952755276903166e-07
sS'https://www.youtube.com/watch?v=o62lk5Pzx2E'
p707
F1.6900036088294582e-07
sS'http://www.ign.com/articles/2016/12/08/the-legend-of-zelda-ocarina-of-time-soundtrack-on-vinyl-announced'
p708
F2.27509318236196e-07
sS'http://www.ign.com/watch/unlocked'
p709
F9.065397848275163e-06
sS'http://www.ign.com/articles/2016/10/12/rez-infinite-review'
p710
F2.595847981650726e-07
sS'http://www.ign.com/boards/threads/tnf-gt-oakland-raiders-10-2-kansas-city-chiefs-9-3.454894740/page-2'
p711
F1.5821468440419508e-07
sS'https://www.youtube.com/user/IGNentertainment/playlists'
p712
F1.92755268717486e-07
sS'https://www.youtube.com/watch?v=i0vPmDggp94'
p713
F1.6960728979428803e-07
sS'https://twitter.com/JimVejvoda/status/806950765172387840'
p714
F2.7401116129467777e-07
sS'https://twitter.com/IGN?lang=vi'
p715
F2.5144551106349286e-07
sS'http://www.ign.com/games/gravity-plus/wii-u-20062292'
p716
F2.2764399176343767e-07
sS'https://twitter.com/IGN?lang=en-gb'
p717
F2.5144551106349286e-07
sS'http://www.ign.com/articles/2016/11/02/ign-anime-club-episode-70-bunny-ears-and-horror-manga?watch'
p718
F1.5978218526202536e-07
sS'https://twitter.com/hashtag/Zelda?src=hash'
p719
F2.7250599608322313e-07
sS'https://www.youtube.com/user/IGNentertainment/channels?view=60'
p720
F1.7134467614506534e-07
sS'https://twitter.com/IGN/status/806933803855794176'
p721
F2.715200008454061e-07
sS'http://www.ign.com/articles/2016/09/24/iphone-7-plus-review?watch'
p722
F2.2155237932495384e-07
sS'http://www.ign.com/blogs/mich-streams/2016/12/05/is-call-of-duty-going-through-an-identity-crisis'
p723
F2.2015528518725474e-07
sS'http://www.ign.com/boards/forums/acfriends.80124/index.rss'
p724
F1.620145588330228e-07
sS'http://www.ign.com/games/drive-drive-drive/vita-20042501'
p725
F2.1913737277324837e-07
sS'http://www.ign.com/games/yakuza-6/ps4-20042750'
p726
F2.0678131332006598e-07
sS'https://twitter.com/IGN?lang=sk'
p727
F2.5144551106349286e-07
sS'https://dev.twitter.com/web/embedded-tweets'
p728
F1.5972910961315853e-07
sS'http://www.ign.com/articles/2016/12/03/psx-2016-nier-automata-release-date-is-march-2017'
p729
F2.167733664260366e-07
sS'http://www.ign.com/articles/2016/11/06/what-you-need-to-know-about-valerian-and-the-city-of-a-thousand-planets'
p730
F2.17556268813668e-07
sS'https://twitter.com/SquareEnixMtl'
p731
F2.732101312904372e-07
sS'http://oyster.ignimgs.com/wordpress/stg.ign.com/2016/12/81GeSTNXjwL.jpg'
p732
F2.044949908165884e-07
sS'http://www.ign.com/videos/games/ni-oh-ps4-711566'
p733
F2.1016852443551088e-07
sS'http://www.ign.com/wikis/create?objectid=20050478'
p734
F2.101470750666143e-07
sS'http://www.ign.com/wikis/create?objectid=20050479'
p735
F2.101468208577588e-07
sS'http://www.ign.com/articles/2016/11/29/nintendo-switch-new-york-hands-on-event-to-take-place-on-january-13'
p736
F2.262900727549865e-07
sS'http://www.ign.com/boards/forums/pro-wrestling.10733/'
p737
F1.645969289007795e-07
sS'http://www.ign.com/articles/2016/11/28/top-comics-to-buy-this-week-november-30-2016'
p738
F2.1739125665572692e-07
sS'http://www.ign.com/videos/games/demons-crest-3ds-20062533'
p739
F2.0739911947254835e-07
sS'http://www.ign.com/videos/2016/09/28/xcom-2-graphics-comparison-xbox-one-vs-playstation-4-vs-pc'
p740
F2.21706082454679e-07
sS'http://www.ign.com/images/games/sniper-elite-4-xbox-one-20050479'
p741
F2.0725443781498533e-07
sS'http://www.ign.com/games/the-walking-dead-a-telltale-game-series-season-3/iphone-20022259'
p742
F2.3390267710428534e-07
sS'http://www.ign.com/videos/2016/11/12/the-x-men-movie-franchises-murky-future-ign-keepin-it-reel'
p743
F2.86812113554553e-07
sS'http://www.ign.com/boards/forums/bayonetta.24351/'
p744
F1.6333549733923352e-07
sS'http://www.ign.com/videos/2016/12/04/destinys-alternate-thunderlord-void-and-solar-exotic-machine-guns'
p745
F4.6730605824983974e-07
sS'http://www.ign.com/boards/forums/splinter-cell.6328/'
p746
F1.6330229041812668e-07
sS'http://www.ign.com/articles/2016/12/08/unlocked-274-ideas-for-an-xbox-experience-event'
p747
F2.818355010925464e-07
sS'http://www.ign.com/boards/forums/android-board.80151/index.rss'
p748
F1.6192270429129357e-07
sS'http://www.ign.com/trailers/horizon-zero-dawn-psx-2016-trailer'
p749
F4.211998964956318e-07
sS'http://www.ign.com/articles/2016/12/03/psx-2016-free-gravity-rush-2-dlc-lets-you-play-as-raven'
p750
F2.1669578301005145e-07
sS'https://www.youtube.com/watch?v=5TeoGiBdr20'
p751
F1.6890811891742316e-07
sS'http://www.ign.com/articles/2016/10/20/zampella-no-regrets-on-lack-of-titanfall-1-campaign-a-ign-unfiltered?watch'
p752
F1.5948437209632705e-07
sS'http://www.ign.com/articles/2016/12/08/lethal-weapon-jingle-bell-glock-review'
p753
F5.509638530982767e-07
sS'https://www.youtube.com/watch?v=KmFLy522ej8'
p754
F1.732732953294468e-07
sS'https://twitter.com/ign'
p755
F7.000818030790052e-07
sS'http://www.ign.com/articles/2016/12/07/10-big-missing-games-of-psx-2016'
p756
F2.8643709032908103e-07
sS'http://www.ign.com/videos/2016/12/04/destiny-rise-of-iron-the-dawning-interview-psx-2016'
p757
F4.6730605824983974e-07
sS'http://www.ign.com/deals/'
p758
F2.410701384249449e-07
sS'http://www.ign.com/boards/categories/ign-prime-vip-board.80000/'
p759
F1.6698443703176366e-07
sS'http://www.ign.com/boards/categories/sports.80144/'
p760
F1.8847103797331928e-07
sS'http://www.ign.com/wikis/create?objectid=20062330'
p761
F2.1292997701498897e-07
sS'http://www.ign.com/wikis/create?objectid=20062331'
p762
F2.1160352680718084e-07
sS'http://www.ign.com/games/sniper-elite-4/xbox-one-20050479'
p763
F2.2187956152149174e-07
sS'http://www.ign.com/articles/2016/12/08/daily-deals-oculus-rift-miyazaki-movies-ps4-with-free-ps-plus'
p764
F5.185527762872363e-06
sS'http://www.ign.com/wikis/strafe'
p765
F2.1203233559092208e-07
sS'http://www.ign.com/boards/forums/books.80225/index.rss'
p766
F1.6165646321163662e-07
sS'http://www.ign.com/articles/2016/02/01/xcom-2-review?page=2'
p767
F2.1770953836876148e-07
sS'https://www.youtube.com/playlist?list=PLE196726F02565118'
p768
F1.6917896124011476e-07
sS'http://www.ign.com/videos/2016/12/08/goat-simulator-official-payday-trailer'
p769
F2.895862996364951e-07
sS'http://www.ign.com/articles/2016/01/27/darkest-dungeon-review?watch'
p770
F2.1995034485668387e-07
sS'http://www.ign.com/videos/2016/12/05/playstation-vr-games-we-loved-at-psx-2016'
p771
F5.390286378773281e-07
sS'http://www.ign.com/boards/threads/survey-product-design.454879324/'
p772
F1.609007694466225e-07
sS'http://www.ign.com/articles/2016/11/10/nintendo-officially-announces-wii-u-production-is-ending-in-japan'
p773
F2.2632080671536868e-07
sS'http://www.ign.com/boards/forums/spider-man.6322/'
p774
F1.633022904181267e-07
sS'http://www.ign.com/articles/2016/12/08/batman-writer-scott-snyder-lands-movie-deal-for-ad-after-death-comic?abthid=584975c07bb8cf2b2000000f'
p775
F2.1745538116467982e-07
sS'https://twitter.com/intent/tweet?url=http%3A%2F%2Fwww.ign.com%2Fblogs%2Fsimoncowellnetworth%2F2016%2F12%2F08%2Fknow-about-the-simon-cowell-wiki&text=Know%20About%20The%20Simon%20Cowell%20Wiki%20via%20%40ign%20%23e3&original_referer='
p776
F1.5758296086690262e-07
sS'https://twitter.com/intent/tweet?text=13th%20FINA%20World%20Swimming%20Championships%20%2825m%29%202016%20Live%20Swimming%20events%20%28Online%20TV%2C%20Score%2C%20Schedule%2C%20%26amp%3B%20Preview%202016%29.%20via%20%40ign%20%23e3&url=http%3A%2F%2Fwww.ign.com%2Fblogs%2Fpacquiaovsvargas%2F2016%2F12%2F06%2F13th-fina-world-swimming-championships-25m-2016-live-swimming-events-online-tv-score-schedule-preview-2016&original_referer='
p777
F1.5758296086690262e-07
sS'http://www.ign.com/articles/2016/05/15/ranking-the-final-fantasy-games?watch'
p778
F2.833423691398257e-07
sS'http://nl.ign.com'
p779
F1.8039638746676198e-07
sS'http://www.ign.com/watch/terri-schwartz'
p780
F2.9983195254772607e-07
sS'https://www.youtube.com/channel/UCzuqhhs6NWbgTzMuM09WKDQ'
p781
F2.8414165672371583e-07
sS'https://twitter.com/Terri_Schwartz/status/806670566778236928'
p782
F1.6237590229347972e-07
sS'https://twitter.com/i/moments'
p783
F1.823633720121767e-07
sS'https://www.youtube.com/watch?v=kcv7PwBXp7I&list=PLraFbwCoisJCG-Oc0RG_qsLvbpoAm11Mi'
p784
F1.690313168313452e-07
sS'http://www.ign.com/videos/2016/11/20/these-new-metal-gear-solid-3-pachinko-screens-are-heartbreaking'
p785
F2.675006147907914e-07
sS'http://www.ign.com/articles/2016/12/05/westworld-the-bicameral-mind-review?watch'
p786
F2.1812793155055947e-07
sS'http://www.ign.com/games/kingdom-hearts-hd-ii-8/ps4-20042901'
p787
F2.6965367679354936e-07
sS'http://www.ign.com/boards/forums/thief.6803/'
p788
F1.633022904181267e-07
sS'https://www.youtube.com/playlist?list=PLraFbwCoisJBTyMjQXyP8zf3EB3sUdUje'
p789
F1.692447950051874e-07
sS'http://www.ign.com/watch/up-at-noon'
p790
F9.065397848275163e-06
sS'http://www.ign.com/articles/2016/12/01/comic-book-reviews-for-november-30-2016'
p791
F2.172994298469859e-07
sS'http://www.ign.com/boards/forums/sega-board.5139/'
p792
F1.6329176586430903e-07
sS'http://www.ign.com/wikis/steep?objectid=20054836'
p793
F2.032907555199961e-07
sS'http://www.ign.com/wikis/steep?objectid=20054837'
p794
F2.0319388617971823e-07
sS'http://www.ign.com/articles/2016/12/02/keepin-it-reel-the-final-episode-before-we-relaunch-as-the-ign-movies-show?read'
p795
F2.1788053418887932e-07
sS'https://www.youtube.com/watch?v=Apwv4POh_WQ'
p796
F1.6528650420949353e-07
sS'http://www.ign.com/blogs/nancyli/2016/12/07/naruto-online-ready-deliver-you-this-new-service'
p797
F2.2076980551656592e-07
sS'http://www.ign.com/cheats/games/mario-maker-3ds-20058267'
p798
F2.0547612127717011e-07
sS'http://www.ign.com/games/dragon-quest-viii-journey-of-the-cursed-king/3ds-20037220'
p799
F2.2540249656748901e-07
sS'http://www.ign.com/boards/forums/hip-hop.5113/'
p800
F1.664736661303937e-07
sS'https://plus.google.com/+YouTube'
p801
F1.5758296086690262e-07
sS'http://ru.ign.com/'
p802
F3.577694449753359e-07
sS'http://www.ign.com/articles/2016/10/17/call-of-duty-created-as-a-little-bit-of-an-f-you-to-medal-of-honor-a-ign-unfiltered'
p803
F2.881128334384968e-07
sS'https://twitter.com/IGN?lang=cs'
p804
F2.5144551106349286e-07
sS'http://www.ign.com/watch/peer-schneider'
p805
F3.590291288640723e-07
sS'http://www.ign.com/articles/2016/12/06/new-photos-from-marvels-iron-fist-include-claire-temple-colleen-wing-and-more?read'
p806
F2.1812793155055947e-07
sS'https://twitter.com/IGN?lang=ca'
p807
F2.5144551106349286e-07
sS'http://www.ign.com/boards/forums/resistance.8417/'
p808
F1.6331035742035412e-07
sS'http://www.ign.com/articles/2016/12/08/ww2-shooter-days-of-war-hits-early-access-in-january?watch'
p809
F2.183111879239975e-07
sS'http://www.ign.com/support'
p810
F1.6298440047926179e-06
sS'http://www.ign.com/boards/forums/sex-health-and-dating.5128/'
p811
F1.6583079523152753e-07
sS'http://www.ign.com/games/upcoming/wii-u'
p812
F2.2500439127439384e-07
sS'http://no.ign.com/'
p813
F3.577694449753359e-07
sS'http://www.ign.com/videos/2016/12/05/persona-5-80-hours-in-and-still-finding-surprises-psx-2016'
p814
F2.4313815687170027e-07
sS'http://www.ign.com/wikis/crash-bandicoot-remasters'
p815
F2.0993322469955834e-07
sS'http://www.ign.com/cheats/games/the-dwarves-xbox-one-20060259'
p816
F2.0327462757340467e-07
sS'http://feeds.ign.com/ignfeeds/podcasts/wii/'
p817
F3.5061716039787575e-07
sS'http://www.ign.com/articles/2015/12/09/microsoft-working-to-make-xbox-360-games-available-to-buy-on-xbox-one'
p818
F2.224356054655848e-07
sS'http://www.ign.com/wikis/ign-community-central/How_to_Follow_IGN'
p819
F9.0628637053306e-06
sS'http://oyster.ignimgs.com/wordpress/stg.ign.com/2015/10/Arrow-Damien-Darhk.jpg'
p820
F2.396089630899017e-07
sS'https://www.youtube.com/user/IGNentertainment'
p821
F7.07688782872792e-07
sS'http://www.ign.com/games/bulletstorm-full-clip-edition/pc-20059601'
p822
F2.2961383615557763e-07
sS'http://www.ign.com/boards/forums/the-lobby-misc-discussion.80131/'
p823
F1.6535093388005503e-07
sS'http://www.ign.com/watch/mitch-dyer'
p824
F3.03011091975962e-07
sS'http://www.ign.com/articles/2016/11/23/watch-dogs-2-review?read'
p825
F2.1747560268793585e-07
sS'http://www.ign.com/articles/2016/12/05/the-last-guardian-review'
p826
F1.656105527001194e-06
sS'http://www.ign.com/blogs/boxinglive/2016/12/06/13th-fina-world-swimming-championships-25m-2016-live-stream'
p827
F2.2044947986227423e-07
sS'http://www.ign.com/games/harvest-moon-seeds-of-memories/wii-u-20038123'
p828
F2.27425852779583e-07
sS'http://www.ign.com/images/games/bulletstorm-full-clip-edition-pc-20059601'
p829
F2.0982470752551368e-07
sS'http://www.ign.com/tv/arrow'
p830
F2.979187143277246e-07
sS'http://www.ign.com/articles/2016/12/02/why-marvel-vs-capcom-4-needs-the-x-men-universe'
p831
F2.199637957153764e-07
sS'http://www.ign.com/wikis/dishonored-2/Bonecharms'
p832
F2.4408905410233113e-07
sS'http://www.ign.com/boards/forums/board-issues-bug-reports.3/index.rss'
p833
F1.6190820893842416e-07
sS'http://www.ign.com/articles/2016/12/05/the-last-of-us-part-2-neil-druckmann-co-wrote-script-with-westworld-writer?watch'
p834
F1.5987672922463268e-07
sS'http://www.ign.com/articles/2016/06/14/e3-2016-three-crash-bandicoot-remasters-announced'
p835
F2.2408512359319812e-07
sS'http://www.ign.com/boards/threads/i-like-a-warm-glass-of-milk-to-help-me-fall-asleep-at-night.454891950/'
p836
F1.588698507873868e-07
sS'https://www.youtube.com/channel/UCEgdi0XIXXZ-qJOFPf4JSKw'
p837
F2.8414165672371583e-07
sS'http://www.ign.com/articles/2016/12/07/nintendo-switch-will-run-gamecube-virtual-console-games-says-report?watch'
p838
F1.6004615642432246e-07
sS'http://www.ign.com/boards/threads/myign-following-not-working.454840525/'
p839
F1.6066450734173507e-07
sS'https://twitter.com/IGN?lang=mr'
p840
F2.5144551106349286e-07
sS'http://www.ign.com/articles/2016/12/08/bully-anniversary-edition-now-available-on-ios-and-android?abthid=5849e349f91de56c1f00001a'
p841
F2.2103163210470712e-07
sS'http://www.ign.com/articles/2016/10/19/call-of-duty-creator-got-quite-a-lot-of-calls-after-exit-a-ign-unfiltered?watch'
p842
F1.5993746074878058e-07
sS'http://www.ign.com/wikis/planet-coaster'
p843
F1.6371653699478286e-07
sS'http://www.ign.com/articles/2016/02/01/xcom-2-review?watch'
p844
F1.6004615642432244e-07
sS'http://www.ign.com/videos/series/ign-game-reviews'
p845
F2.639725915383715e-07
sS'https://www.youtube.com/watch?v=fakpHy5UUUY'
p846
F1.7304807277623343e-07
sS'http://www.ign.com/watch/franmirabella'
p847
F3.384914918120155e-07
sS'http://www.ign.com/boards/forums/ghost-recon.5792/'
p848
F1.633022904181267e-07
sS'http://www.ign.com/articles/2016/10/17/call-of-duty-created-as-a-little-bit-of-an-f-you-to-medal-of-honor-a-ign-unfiltered?read'
p849
F2.837975244411674e-07
sS'https://www.youtube.com/watch?v=0ZOon0PlO48'
p850
F1.8065384792305886e-07
sS'http://oyster.ignimgs.com/wordpress/stg.ign.com/2016/12/Black_Siren_Katie_Cassidy.jpg'
p851
F2.396089630899017e-07
sS'http://www.ign.com/'
p852
F9.93398284195341e-06
sS'http://www.ign.com/images/games/demons-crest-3ds-20062533'
p853
F2.0739911947254835e-07
sS'http://www.ign.com/videos/2016/12/03/playstation-vr-psx-2016-sizzle-reel'
p854
F2.198256254218468e-07
sS'http://www.ign.com/articles/2016/12/03/psx-2016-tons-of-new-games-hit-playstation-store-today'
p855
F2.1464857438062394e-07
sS'http://www.ign.com/boards/forums/batman.5456/'
p856
F1.6328404074847567e-07
sS'http://www.ign.com/wikis/create?objectid=20050480'
p857
F2.1014441293290744e-07
sS'http://www.ign.com/boards/threads/editing-private-messages-conversations.454575290/'
p858
F1.608542082992912e-07
sS'https://www.youtube.com/watch?v=leG2uIzuSGQ'
p859
F1.6528650420949353e-07
sS'http://www.ign.com/videos/2016/12/08/rogue-one-a-star-wars-story-felicity-jones-on-the-force-jyn-ersos-necklace-and-her-father-abandonment-issues'
p860
F2.723074313265767e-07
sS'http://es.ign.com/'
p861
F3.577694449753359e-07
sS'https://www.youtube.com/watch?v=9UM-4TOGSyI'
p862
F2.2770900294748129e-07
sS'http://www.ign.com/boards/forums/television.10502/index.rss'
p863
F1.6165646321163662e-07
sS'http://www.ign.com/videos/2016/12/06/transformers-the-last-knight-official-trailer'
p864
F2.366413701436816e-07
sS'http://www.ign.com/wikis/playstation-4/How_to_Transfer_Data_and_Saves_to_PlayStation_4_Pro'
p865
F2.1458618803452327e-07
sS'https://twitter.com/IGN?lang=zh-cn'
p866
F2.5144551106349286e-07
sS'http://www.ign.com/articles/2016/05/05/top-10-secret-bosses-in-video-games?watch'
p867
F2.2120725957579883e-07
sS'http://www.ign.com/videos/2016/12/03/marvel-vs-capcom-infinite-ign-live-reacts'
p868
F2.957568810286461e-07
sS'http://www.ign.com/boards/forums/anime.5036/'
p869
F1.6410159173781943e-07
sS'https://www.youtube.com/playlist?list=PLraFbwCoisJCG-Oc0RG_qsLvbpoAm11Mi'
p870
F1.6925578501460796e-07
sS'http://www.ign.com/wikis/the-elder-scrolls-5-skyrim/Marriage'
p871
F2.432672679434871e-07
sS'http://www.ign.com/boards/forums/quake.6640/'
p872
F1.633022904181267e-07
sS'http://www.ign.com/videos/2016/11/10/diablo-1996-vs-diablo-2016'
p873
F2.183111879239975e-07
sS'http://www.ign.com/articles/2009/10/13/pokemon-mystery-dungeon-explorers-of-sky-review'
p874
F1.6006911108916042e-07
sS'https://www.youtube.com/watch?v=AXyagyVX3Lg'
p875
F2.2023949860199873e-07
sS'https://www.youtube.com/watch?v=C_fhTko1Bok&list=PLraFbwCoisJAzl1QlMD8ZT-sesYJyo041'
p876
F1.6903129928455683e-07
sS'http://www.ign.com/videos/2016/12/02/zelda-breath-of-the-wild-game-awards-gameplay-demo'
p877
F3.893278691665452e-07
sS'http://www.ign.com/videos/2016/12/05/nba-2kvr-experience-official-lifestyle-trailer'
p878
F2.198256254218468e-07
sS'http://www.ign.com/boards/forums/cooking-gardening-board.6967/index.rss'
p879
F1.6191862436011348e-07
sS'http://www.ign.com/boards/forums/mass-effect.8653/'
p880
F1.6328917504277628e-07
sS'https://www.youtube.com/yt/advertise/'
p881
F1.3205478928980398e-06
sS'https://www.youtube.com/watch?v=B2Sdg2JRTRQ'
p882
F1.6822641696489775e-07
sS'http://www.ign.com/blogs/andri_g'
p883
F2.2125654005813055e-07
sS'http://www.ign.com/articles/2016/12/08/into-the-badlands-see-the-fight-prep-for-season-2?abthid=5849a2fcbdc2856a1f00000b'
p884
F2.215152591493502e-07
sS'http://www.ign.com/boards/forums/rock.5114/'
p885
F1.6551551269000796e-07
sS'http://www.ign.com/wikis/black-friday-cyber-monday/Xbox_Live_Black_Friday_2016_Deals'
p886
F2.1839126368961358e-07
sS'http://www.ign.com/videos/2015/06/29/the-awful-horror-of-being-a-doom-soldier'
p887
F3.088247628045492e-07
sS'http://www.ign.com/support/editorial?category=feedback'
p888
F9.074341970751024e-06
sS'http://www.ign.com/watch/esports-weekly'
p889
F2.2511023781414763e-07
sS'http://www.ign.com/articles/2016/12/08/one-of-elder-scrolls-most-beloved-characters-is-coming-to-elder-scrolls-legends'
p890
F2.7967200914245776e-07
sS'http://www.ign.com/wikis/final-fantasy-15/Easter_Eggs'
p891
F1.0420012170306224e-06
sS'https://www.youtube.com/watch?v=BBgOmBMCiZo'
p892
F1.6528650420949353e-07
sS'http://www.ign.com/boards/forums/need-for-speed.6063/'
p893
F1.633022904181267e-07
sS'https://www.youtube.com/yt/press/'
p894
F1.3205478928980398e-06
sS'http://www.ign.com/games/death-stranding/pc-20047135'
p895
F1.7898480318842252e-07
sS'http://www.ign.com/articles/2016/12/01/ign-unfiltered-episode-13-inventor-and-oculus-co-founder-jack-mccauley'
p896
F2.2105812388676776e-07
sS'https://www.youtube.com/watch?v=iVmqMe9Hpso'
p897
F1.6822641696489775e-07
sS'https://twitter.com/IGN?lang=fr'
p898
F2.5144551106349286e-07
sS'http://www.ign.com/boards/forums/baseball.5104/index.rss'
p899
F1.6157366652380332e-07
sS'http://www.ign.com/watch/jared-petty'
p900
F3.2645638017614614e-07
sS'http://www.ign.com/boards/forums/sex-health-and-dating.5128/index.rss'
p901
F1.6191862436011348e-07
sS'http://www.ign.com/images/games/bulletstorm-full-clip-edition-ps4-20059600'
p902
F2.0982204592748211e-07
sS'http://www.ign.com/blogs/popcultkid5555'
p903
F2.2096771713355598e-07
sS'https://twitter.com/IGN?lang=ro'
p904
F2.5144551106349286e-07
sS'https://www.youtube.com/watch?v=RM9divynH7I'
p905
F1.6528650420949353e-07
sS'https://twitter.com/IGN?lang=ru'
p906
F2.5144551106349286e-07
sS'http://www.ign.com/wikis/abzu?objectid=20060928'
p907
F2.0309795226270422e-07
sS'http://www.ign.com/wikis/arrow'
p908
F1.6219143256625847e-07
sS'http://www.ign.com/wikis/create?objectid=20040456'
p909
F2.06185354835606e-07
sS'http://www.ign.com/articles/2016/11/28/final-fantasy-xv-review'
p910
F1.8397743471895035e-06
sS'http://www.ign.com/blogs/nancyli'
p911
F2.2076980551656592e-07
sS'http://pl.ign.com/'
p912
F3.577694449753359e-07
sS'http://www.ign.com/boards/categories/the-vault.80141/'
p913
F1.6586886484366316e-07
sS'http://www.ign.com/boards/forums/nba-2k-series.6044/'
p914
F1.6329963478930668e-07
sS'http://www.ign.com/boards/forums/cars-lobby.5126/'
p915
F1.655606168504161e-07
sS'http://www.ign.com/articles/2007/12/12/pokemon-snap-review'
p916
F1.600461564243224e-07
sS'http://www.ign.com/articles/2016/11/30/westworld-season-finale-photos-show-teddy-returning-to-the-massacre'
p917
F2.792316754673438e-07
sS'http://www.ign.com/boards/forums/earthbound.5345/'
p918
F1.633022904181267e-07
sS'http://www.ign.com/articles/2016/12/02/how-supergirl-will-be-involved-in-the-arrowverse-after-the-crossover'
p919
F2.7757822900762913e-07
sS'http://oyster.ignimgs.com/wordpress/stg.ign.com/2016/12/arrow-lazarus-pit.jpg'
p920
F2.396089630899017e-07
sS'https://twitter.com/IGN?lang=nl'
p921
F2.5144551106349286e-07
sS'http://www.ign.com/articles/2016/09/13/tgs-2016-musou-stars-announced-for-ps4-and-ps-vita?watch'
p922
F1.6014061590414913e-07
sS'https://www.youtube.com/channel/UCYfdidRxbB8Qhf0Nx7ioOYw'
p923
F2.8414165672371583e-07
sS'http://oyster.ignimgs.com/wordpress/stg.ign.com/2016/03/supergirl-flash-preview-img-3.jpg'
p924
F2.396089630899017e-07
sS'https://twitter.com/IGNDeals'
p925
F2.1374114049045088e-07
sS'http://www.ign.com/articles/2016/12/08/dinosaur-tail-discovered-preserved-in-amber-feathers-and-all?read'
p926
F2.37976653479466e-07
sS'http://www.ign.com/boards/forums/playstation-lobby.8269/'
p927
F1.6394579054618205e-07
sS'http://www.ign.com/articles/2016/06/15/e3-2016-batman-arkham-vr-lets-you-actually-put-on-batmanas-cowl'
p928
F2.1915739041190502e-07
sS'http://www.ign.com/articles/2016/12/07/the-man-in-the-high-castle-season-2-premiere'
p929
F2.1809485015584282e-07
sS'http://www.ign.com/videos/2016/12/08/super-mario-run-official-meet-super-mario-run-trailer'
p930
F2.8271746382414573e-07
sS'https://plus.google.com/+IGN/posts'
p931
F3.199258048257831e-07
sS'http://www.ign.com/cheats/games/oculus-touch-pc-20062371'
p932
F2.0386062638093543e-07
sS'http://www.ign.com/articles/2016/04/01/mlb-the-show-16-review?watch'
p933
F2.21846884939371e-07
sS'http://www.ign.com/boards/forums/wikis-discussion.5030/'
p934
F6.995316180010633e-07
sS'https://www.youtube.com/yt/copyright/'
p935
F1.3205478928980398e-06
sS'http://www.ign.com/wireless'
p936
F9.067159634837094e-06
sS'http://www.ign.com/boards/threads/connor-makes-me-feel-bad-for-kenny-florian.454887177/'
p937
F1.6075988066929042e-07
sS'https://www.youtube.com/'
p938
F1.3456594068035656e-06
sS'http://www.ign.com/blogs/jasonstanley2e'
p939
F2.2055137156321407e-07
sS'http://www.ign.com/videos/2016/10/07/nycc-cosplay-spotlight-nadya-sonika-ign-access'
p940
F6.352131476526421e-07
sS'http://latam.ign.com/'
p941
F3.577694449753359e-07
sS'http://www.ign.com/articles/2016/12/08/the-5-most-annoying-heroes-in-dota-2'
p942
F2.1785561072648055e-07
sS'https://twitter.com/hashtag/IntoTheBadlands?src=hash'
p943
F2.68041105172653e-07
sS'http://www.ign.com/articles/2016/12/08/reggie-and-me-1-review'
p944
F2.4762882369452717e-07
sS'http://www.ign.com/trailers/guardians-of-the-galaxy-vol-2-official-teaser-trailer-2'
p945
F4.211998964956318e-07
sS'http://www.ign.com/videos/2016/12/07/pokken-tournament-official-empoleon-trailer-japanese'
p946
F2.2635210301737994e-07
sS'http://people.ign.com/jarriaga'
p947
F2.1794903714609036e-07
sS'http://www.delosincorporated.com'
p948
F2.3208431636484177e-07
sS'https://www.youtube.com/watch?v=ex_bTrCkquo'
p949
F1.8886162763169794e-07
sS'http://www.ign.com/boards/forums/nhl-ea-sports.6062/'
p950
F1.633022904181267e-07
sS'http://www.ign.com/videos/games/bulletstorm-full-clip-edition-xbox-one-20054907'
p951
F2.0982445336081437e-07
sS'https://twitter.com/JoshuaYehl'
p952
F2.85773064077189e-07
sS'http://www.ign.com/boards/forums/disney-board.7236/'
p953
F1.6828767906801048e-07
sS'https://www.youtube.com/ign'
p954
F4.7395554208413755e-07
sS'http://www.ign.com/boards/forums/kirby.5919/'
p955
F1.633213529726489e-07
sS'http://www.ign.com/games/nier-automata/ps4-20038887'
p956
F2.1938482792424192e-07
sS'http://www.ign.com/watch/naomi'
p957
F5.937355404375654e-07
sS'http://www.ign.com/boards/forums/soccer.5106/'
p958
F1.6436136390781377e-07
sS'http://www.ign.com/articles/2016/10/05/superhypercube-review'
p959
F2.2373194416199173e-07
sS'http://www.ign.com/games/upcoming/ps4'
p960
F2.2152359399536062e-07
sS'http://www.ign.com/boards/forums/command-conquer.5554/'
p961
F1.633022904181267e-07
sS'https://www.youtube.com/watch?v=576v8Ii8w2M'
p962
F1.6528650420949353e-07
sS'http://www.ign.com/games/upcoming/xbox-one'
p963
F2.1731133699050477e-07
sS'http://www.ign.com/games/red-faction/ps4-20062072'
p964
F2.1618023748585265e-07
sS'http://www.ign.com/articles/2016/12/08/dinosaur-tail-discovered-preserved-in-amber-feathers-and-all?watch'
p965
F2.37976653479466e-07
sS'http://www.ign.com/articles/2016/12/07/podcast-beyond-episode-471-our-death-stranding-and-last-of-us-2-theories'
p966
F3.4891536008842874e-07
sS'http://www.ign.com/games/killing-floor-2/ps4-20028713'
p967
F2.155656181487344e-07
sS'http://www.ign.com/boards/forums/resident-evil.5234/'
p968
F1.6327147458450094e-07
sS'http://www.ign.com/boards/threads/why-is-480p-and-720p-1080p-has-no-difference-in-my-gaming-youtube-video.454841424/'
p969
F1.605584097544475e-07
sS"http://www.ign.com/wikis/dead-rising-4/What_Dead_Rising_4_Doesn't_Tell_You"
p970
F2.208920457583266e-07
sS'http://www.ign.com/articles/2016/11/04/nes-classic-edition-review?watch'
p971
F2.8983936758657025e-07
sS'http://www.ign.com/videos/2016/12/05/resident-evil-entering-the-spencer-mansion-prepare-to-try-ep-1'
p972
F3.502771657936753e-07
sS'https://twitter.com/IGN/status/806999940539023360'
p973
F2.720516336740358e-07
sS'http://www.ign.com/articles/2016/10/25/rigs-mechanized-combat-league-review'
p974
F2.206487384748232e-07
sS'http://www.ign.com/articles/2016/10/05/thumper-vr-review?watch'
p975
F1.598379526702593e-07
sS'http://www.ign.com/videos/2016/10/21/ign-reacts-to-the-nintendo-switch-reveal'
p976
F3.0290490923303296e-07
sS'http://www.ign.com/videos/2016/03/21/dark-souls-prepare-to-try-episode-5-the-depths-gaping-dragon'
p977
F3.5367323522692934e-07
sS'http://www.ign.com/articles/2016/12/07/star-wars-doctor-aphra-1-review'
p978
F3.047177275496198e-07
sS'http://www.ign.com/articles/2016/04/26/severed-review?watch'
p979
F2.201454884537992e-07
sS'http://www.ign.com/wikis/bulletstorm?objectid=20059600'
p980
F2.0290274787800805e-07
sS'http://www.ign.com/wikis/bulletstorm?objectid=20059601'
p981
F2.0290274787800805e-07
sS'https://www.youtube.com/watch?v=Apq04fTZ7oc'
p982
F1.6899782623666822e-07
sS'https://support.google.com/youtube/answer/3046484?hl=en'
p983
F2.0627226078607484e-07
sS'https://twitter.com/EchoK/status/807035012650397696'
p984
F2.6721226891051975e-07
sS'http://www.ign.com/wikis/pokemon-sun-pokemon-moon/Things_to_Do_First_in_Pokemon_Sun_and_Moon'
p985
F2.964562023802795e-07
sS'http://www.ign.com/articles/2016/12/08/dinosaur-tail-discovered-preserved-in-amber-feathers-and-all'
p986
F2.4821886570116763e-06
sS'http://www.ign.com/articles/2016/01/27/darkest-dungeon-review'
p987
F2.1995034485668387e-07
sS'http://www.ign.com/articles/2016/12/06/vikings-new-clip-reveals-lagerthas-desire-to-take-down-queen-aslaug'
p988
F2.197765763028814e-07
sS'http://www.ign.com/videos/2016/12/05/westworld-the-pros-and-cons-of-the-season-1-finale'
p989
F2.819868264349285e-07
sS'http://www.ign.com/videos/2016/11/25/watch-party-flcl-episodes-3-and-4'
p990
F3.1865150847166397e-07
sS'http://za.ign.com'
p991
F1.5758296086690262e-07
sS'https://www.youtube.com/watch?v=jSdgKkPBUSs'
p992
F1.6881779341512017e-07
sS'http://www.ign.com/articles/2016/09/09/world-of-warcraft-legion-review?page=1'
p993
F2.153254736948127e-07
sS'https://www.youtube.com/watch?v=uYRTX6VkflE'
p994
F1.6895464535288997e-07
sS'https://twitter.com/IGN?lang=sr'
p995
F2.5144551106349286e-07
sS'http://www.ign.com/trailers/ultimate-marvel-vs-capcom-3-ps4-announcement-trailer'
p996
F4.211998964956318e-07
sS'https://twitter.com/IGN?lang=zh-tw'
p997
F2.474090583324317e-07
sS'http://www.ign.com/boards/threads/cole-dropping-new-album-4-your-eyez-only-on-12-9.454890976/page-4'
p998
F1.5857727439990995e-07
sS'https://twitter.com/IGN?lang=sv'
p999
F2.5144551106349286e-07
sS'http://www.ign.com/articles/2016/12/07/injustice-ground-zero-1-review'
p1000
F3.730289155974262e-07
sS'http://www.ign.com/articles/2016/12/07/steep-review'
p1001
F8.699393661178744e-07
sS'http://www.ign.com/articles/2016/04/01/mlb-the-show-16-review?read'
p1002
F2.21846884939371e-07
sS'https://www.youtube.com/watch?v=0zsm8b_8TZ4'
p1003
F1.9397756793835941e-07
sS'http://www.ign.com/boards/forums/international.8184/'
p1004
F1.658187399491452e-07
sS'https://www.youtube.com/watch?v=GRI87y96Rmo'
p1005
F1.6528650420949353e-07
sS'http://www.ign.com/videos/2016/12/05/marvel-vs-capcom-infinite-captain-america-and-morrigan-reveal-trailer'
p1006
F1.1425760617609945e-06
sS'http://www.ign.com/blogs/techportal11/2016/12/08/httpthetechportalcom20161208pokemon-go-partnership-sprint'
p1007
F2.2082774683283697e-07
sS'http://www.ign.com/games/upcoming'
p1008
F9.067159634837094e-06
sS'http://www.ign.com/articles/2016/12/08/arrow-what-we-leave-behind-review?read'
p1009
F2.1823109428395235e-07
sS'https://twitter.com/pewdiepie'
p1010
F2.69294185486084e-07
sS'http://www.ign.com/boards/forums/music-general.8276/'
p1011
F1.655048454965212e-07
sS'http://www.ign.com/articles/2016/12/04/daily-deals-extended-lord-of-the-rings-and-hobbit-trilogies-destiny-the-collection-ff-xv-discount'
p1012
F2.2029863261141265e-07
sS'http://www.ign.com/games/upcoming/3ds'
p1013
F2.231839654898823e-07
sS'http://www.ign.com/wikis/how-to/FAQs'
p1014
F2.389578889162868e-07
sS'http://www.ign.com/articles/2016/11/23/planet-coaster-review'
p1015
F8.656297676339311e-07
sS'http://www.ign.com/videos/2015/10/21/meanwhile-in-back-to-the-future-pt-ii'
p1016
F3.0887637578025983e-07
sS'http://www.ign.com/boards/forums/ico-shadow-of-the-colossus.8115/'
p1017
F1.6331308031888083e-07
sS'http://www.ign.com/watch/brandin-tyrrel'
p1018
F3.28153791027507e-07
sS'http://www.ign.com/boards/misc/quick-navigation-menu'
p1019
F1.6372361040601366e-07
sS'http://www.ign.com/articles/2016/12/02/between-the-panels-the-all-new-x-men-need-to-go-home'
p1020
F2.1742301730980027e-07
sS'http://www.ign.com/games/apollo-justice-ace-attorney/iphone-20060196'
p1021
F2.331142964833315e-07
sS'http://www.ign.com/videos/2016/12/02/westworld-all-the-arnold-theory-reveal-hints'
p1022
F2.787648822780592e-07
sS'http://www.ign.com/articles/2016/12/08/november-saw-ps4-regain-its-spot-at-the-top-of-console-sales'
p1023
F2.8409509986554776e-06
sS'http://www.pcmag.com/article2/0,2817,2391253,00.asp'
p1024
F1.9689015981714121e-07
sS'http://www.ign.com/boards/forums/mega-man.6002/'
p1025
F1.6330496262872062e-07
sS'https://www.youtube.com/watch?v=ru5IU8bGx3A&list=PLraFbwCoisJDGNMvYoK8UTa1LlMgUhY0U'
p1026
F2.0851202558506847e-07
sS'http://www.ign.com/videos/2016/11/30/scared-senseless-episode-1-beginning-the-dark-descent'
p1027
F3.1486748649171835e-07
sS'https://www.youtube.com/watch?v=klpXQUbVa7A'
p1028
F1.6528650420949353e-07
sS'http://www.ign.com/images/games/halo-wars-definitive-edition-pc-20054810'
p1029
F2.0918457385374292e-07
sS'http://www.ign.com/articles/2016/09/25/minecraft-chinese-mythology-pack-coming-soon'
p1030
F2.1778324632915502e-07
sS'https://twitter.com/intent/tweet?text=13th%20%20FINA%20World%20Swimming%20Championships%20%2825%20m%29%20Live%20Stream%202016%20via%20%40ign%20%23e3&url=http%3A%2F%2Fwww.ign.com%2Fblogs%2Fpacquiaovsvargaslive%2F2016%2F12%2F06%2F13th-fina-world-swimming-championships-25-m-live-stream-2016&original_referer='
p1031
F1.5758296086690262e-07
sS'http://www.ign.com/boards/forums/grand-theft-auto.5257/'
p1032
F1.6327645553521052e-07
sS'http://me.ign.com/en/'
p1033
F3.577694449753359e-07
sS'http://www.ign.com/boards/forums/guitar-hero.8464/'
p1034
F1.6329437266342983e-07
sS'http://www.ign.com/articles/2016/05/15/ranking-the-final-fantasy-games'
p1035
F1.5952591575280244e-07
sS'http://www.ign.com/boards/categories/entertainment.80143/'
p1036
F1.895614838098322e-07
sS'http://www.ign.com/articles/2016/12/03/psx-2016-wipeout-omega-collection-hd-fury-2048-coming-q2-2017'
p1037
F2.1443689840202405e-07
sS'http://www.ign.com/boards/threads/what-are-your-top-3-mobile-games-right-now.454823940/'
p1038
F1.59112805712749e-07
sS'https://twitter.com/IGN/status/807028001481207808'
p1039
F2.729877061580073e-07
sS'http://www.ign.com/blogs/andri_g/2016/12/05/driving-passion-in-games-part-1-the-mako'
p1040
F2.1922847592713372e-07
sS'http://www.ign.com/wikis/battlefield-1/Things_to_Do_First_In_Battlefield_1_Multiplayer'
p1041
F2.4498530208681874e-07
sS'http://www.ign.com/videos/2016/12/08/we-happy-few-clockwork-update-details'
p1042
F2.760749745232773e-07
sS'http://www.ign.com/images/games/sniper-elite-4-ps4-20050480'
p1043
F2.072520630303738e-07
sS'http://www.ign.com/boards/forums/apple-board.5146/index.rss'
p1044
F1.6192270429129357e-07
sS'https://www.youtube.com/watch?v=bSxMek99fv0'
p1045
F1.6528650420949353e-07
sS'http://www.ign.com/games/reviews/xbox-one'
p1046
F2.1731133699050477e-07
sS'http://www.ign.com/videos/2016/10/29/the-pros-and-cons-of-superhero-origin-movies-ign-keepin-it-reel'
p1047
F2.868983158305e-07
sS'http://www.ign.com/articles/2016/10/18/batman-arkham-vr-easter-egg-discovered-in-batman-arkham-knight-dlc'
p1048
F2.1899282666544784e-07
sS'http://www.ign.com/games/planet-coaster/pc-20038996'
p1049
F2.188313842058515e-07
sS'http://www.ign.com/articles/2016/12/08/arrow-what-we-leave-behind-review?watch'
p1050
F2.1823109428395235e-07
sS'http://www.ign.com/boards/categories/community-central.80140/'
p1051
F1.6703749861905842e-07
sS'http://www.ign.com/articles/2016/12/07/podcast-beyond-episode-471-our-death-stranding-and-last-of-us-2-theories?watch'
p1052
F3.413855544805484e-07
sS'http://www.ign.com/cheats/games/planet-coaster-pc-20038996'
p1053
F2.0538696149573506e-07
sS'http://www.ign.com/articles/2016/10/20/100ft-robot-golf-review'
p1054
F2.195194443354919e-07
sS'http://www.ign.com/articles/2016/12/02/keepin-it-reel-the-final-episode-before-we-relaunch-as-the-ign-movies-show'
p1055
F2.1944793260182012e-07
sS'http://www.ign.com/articles/2016/09/24/iphone-7-plus-review?read'
p1056
F2.2155237932495378e-07
sS'http://www.ign.com/articles/2016/09/26/ps-vita-a-great-machine-but-too-late-says-former-sony-exec-a-ign-unfiltered?read'
p1057
F2.2014548845379924e-07
sS'http://www.ign.com/boards/threads/2016-us-soccer-usmnt-mls-nasl-usl-pdl-npsl.454703136/page-7'
p1058
F1.5892150537418766e-07
sS'http://www.ign.com/articles/2016/11/17/sword-art-online-hollow-realization-review'
p1059
F6.324048596279924e-07
sS'http://www.ign.com/articles/2016/11/14/dishonored-2-review'
p1060
F6.340774903526847e-07
sS'http://www.ign.com/articles/2016/11/30/playstation-plus-free-games-for-december-revealed?watch'
p1061
F1.6004615642432244e-07
sS'http://www.ign.com/blogs/jeriahking/2016/12/06/iam-going-to-go-out-on-a-limb'
p1062
F2.1912000854172301e-07
sS'https://www.youtube.com/watch?v=hN7HnqzBwsc'
p1063
F1.6528650420949353e-07
sS'http://www.ign.com/boards/forums/hockey.5111/index.rss'
p1064
F1.6157366652380332e-07
sS'http://www.ign.com/games/resident-evil-7/ps4-20053763'
p1065
F4.5886879179553127e-07
sS'http://www.ign.com/videos/games/sniper-elite-4-ps4-20050480'
p1066
F2.072520630303738e-07
sS'http://www.geek.com/'
p1067
F3.0406624809275805e-06
sS'http://www.ign.com/articles/2016/11/15/pokemon-sun-and-moon-review?watch'
p1068
F2.2299937559455197e-07
sS'http://www.ign.com/articles/2004/11/21/super-mario-64-ds-2'
p1069
F1.5987672922463268e-07
sS'http://www.ign.com/articles/2015/12/18/uncharteds-best-moments'
p1070
F2.8230961910113e-07
sS'https://www.youtube.com/channel/UCBR8-60-B28hp2BmDPdntcQ'
p1071
F2.8414165672371583e-07
sS'https://www.youtube.com/ignbeyond'
p1072
F1.5959675730431857e-07
sS'http://www.ign.com/videos/2015/06/17/sony-head-discusses-the-future-of-vita'
p1073
F2.2054402489785733e-07
sS'http://www.ign.com/articles/2016/12/08/x-mens-apocalypse-prompted-the-mummy-to-alter-characters-look'
p1074
F2.1821551422677548e-07
sS'http://people.ign.com/'
p1075
F1.760125752287922e-07
sS'https://www.youtube.com/playlist?list=PLraFbwCoisJDZ8ZpheC4BOvxI2ithckux'
p1076
F1.7599464943745372e-07
sS'http://www.ign.com/games/letter-quest-remastered/vita-20048797'
p1077
F2.1909530463325973e-07
sS'http://www.ign.com/watch/daemon-hatfield'
p1078
F6.043228610072473e-07
sS'http://www.ign.com/games/shift-dx/3ds-20045199'
p1079
F2.2558583799651635e-07
sS'https://www.gta5-mods.com/scripts/railroad-engineer'
p1080
F1.7018228559740478e-07
sS'http://www.ign.com/videos/2016/12/07/gamecube-virtual-console-coming-to-switch-ign-daily-fix'
p1081
F7.981302544109462e-07
sS'http://www.ign.com/articles/2015/06/22/e3-2015-abzus-a-stunning-game-from-the-artist-behind-journey'
p1082
F2.0615117674595307e-07
sS'http://www.ign.com/games/izle/xbox-360-20031498'
p1083
F2.2376606005885667e-07
sS'http://www.ign.com/wikis/battlefield-1/Field_Manuals'
p1084
F2.4498530208681874e-07
sS'http://www.ign.com/videos/2016/12/08/pokemon-sun-and-moon-walkthrough-po-town'
p1085
F2.60223280541699e-07
sS'http://www.ign.com/boards/threads/best-game-story-r1v2-kotor-v-ffvii.454892890/'
p1086
F1.5929413165551022e-07
sS'http://www.ign.com/videos/games/resident-evil-7-pc-20054862'
p1087
F2.0804623296251705e-07
sS'http://www.ign.com/articles/2016/11/19/westworld-ed-harris-man-in-black-returning-for-season-2'
p1088
F2.384566929697757e-07
sS'http://www.ign.com/games/crash-bandicoot-remastered/ps4-20054856'
p1089
F2.148510459443177e-07
sS'http://www.ign.com/articles/2016/11/22/batman-the-telltale-series-episode-4-guardian-of-gotham-review'
p1090
F7.490853390494898e-07
sS'http://www.ign.com/articles/2016/12/06/paranoid-season-1-review'
p1091
F4.921007883512498e-07
sS'http://www.ign.com/boards/forums/nintendo-lobby.80041/'
p1092
F1.644002814043787e-07
sS'http://www.ign.com/boards/threads/how-can-microsoft-look-at-their-current-upcoming-lineup-and-feel-content-with-it.454893791/page-2'
p1093
F1.5976420407612936e-07
sS'http://www.ign.com/games/nintendo-switch'
p1094
F3.248572284426971e-07
sS'http://www.ign.com/articles/2016/11/29/marvel-comics-reveals-new-x-men-aresurrxiona-creators-and-concepts'
p1095
F2.7509079351932593e-07
sS'https://www.youtube.com/watch?v=880OKIOYw9o'
p1096
F2.0443785308617921e-07
sS'http://www.ign.com/videos/2016/12/03/lara-croft-go-psx-trailer'
p1097
F3.0882476280454927e-07
sS'http://www.ign.com/videos/2016/10/30/stranger-things-director-heads-into-uncharted-territory-ign-keepin-it-reel'
p1098
F2.8681211355455295e-07
sS'http://www.ign.com/articles/2016/11/08/call-of-duty-modern-warfare-remastered-review?watch'
p1099
F2.1783109481963216e-07
sS'http://www.ign.com/boards/forums/legend-of-zelda.5188/'
p1100
F1.6327645553521052e-07
sS'http://www.ign.com/articles/2016/12/07/marvels-agents-of-shield-laws-of-inferno-dynamics-review'
p1101
F6.058068832639127e-07
sS'http://www.ign.com/games/rise-race-the-future/3ds-20054221'
p1102
F2.2802863983857442e-07
sS'http://www.ign.com/articles/2016/12/01/mayans-mc-fx-orders-pilot-for-sons-of-anarchy-spinoff'
p1103
F2.1809485015584282e-07
sS'http://www.ign.com/games/gigantic/xbox-one-20033776'
p1104
F2.2177445051268755e-07
sS'http://www.ign.com/boards/forums/site-prime-article-comments-blog-myign-issues.9117/index.rss'
p1105
F1.6190820893842416e-07
sS'http://world.ign.com'
p1106
F2.78959654080061e-06
sS'https://www.youtube.com/watch?v=a3L3hYuSxAE'
p1107
F1.6528650420949353e-07
sS'https://www.youtube.com/watch?v=6X-fWJD4Vd0'
p1108
F1.6528650420949353e-07
sS'http://www.ign.com/games/strafe/ps4-20062341'
p1109
F2.1596896726046396e-07
sS'http://www.ign.com/wikis/final-fantasy-15/Upgradable_Weapons'
p1110
F9.032345560021655e-07
sS'http://www.ign.com/articles/2016/08/11/transformers-the-last-knight-megatrons-new-look-revealed'
p1111
F2.180116359591011e-07
sS'http://www.ign.com/articles/2016/11/04/wonder-woman-we-think-we-know-who-this-villain-is'
p1112
F2.1759122584323287e-07
sS'http://www.ign.com/articles/2016/12/08/the-last-of-us-part-2-naughty-dog-teased-new-game-3-months-ago?watch'
p1113
F1.598966219364774e-07
sS'http://www.ign.com/boards/forums/diablo.5218/'
p1114
F1.6329176586430903e-07
sS'http://www.ign.com/games/halo-wars-definitive-edition/pc-20054810'
p1115
F2.777916530552186e-07
sS'http://www.ign.com/articles/2016/11/29/nintendo-outlines-plans-for-universal-theme-parks'
p1116
F2.264832320427588e-07
sS'https://twitter.com/intent/tweet?text=FINA%20World%20Swimming%20Championships%20%2825m%29%202016%20Live%20via%20%40ign%20%23e3&url=http%3A%2F%2Fwww.ign.com%2Fblogs%2Fsportshd%2F2016%2F12%2F06%2Ffina-world-swimming-championships-25m-2016-live&original_referer='
p1117
F1.5758296086690262e-07
sS'http://www.ign.com/videos/2016/12/08/the-last-of-us-part-ii-teaser-you-probably-missed-ign-daily-fix'
p1118
F9.0628637053306e-06
sS'http://www.ign.com/videos/2016/12/03/5-minutes-of-digimon-world-next-order-gameplay-psx-2016'
p1119
F2.2054402489785733e-07
sS'http://www.ign.com/articles/2016/11/16/miss-sloane-review'
p1120
F2.45524454181633e-07
sS'http://www.ign.com/boards/forums/gran-turismo.5208/'
p1121
F1.6328917504277628e-07
sS'http://www.ign.com/games/reviews/pc'
p1122
F2.3190229302060716e-07
sS'http://www.ign.com/videos/games/halo-wars-definitive-edition-xbox-one-20054807'
p1123
F2.0917966927458425e-07
sS'http://in.ign.com'
p1124
F2.4094863294044126e-07
sS'http://www.ign.com/watch/max-scoville'
p1125
F7.212763338690755e-07
sS'https://www.youtube.com/watch?v=1NKpmSoZbyo'
p1126
F1.6987418543176325e-07
sS'http://www.ign.com/articles/2016/11/28/x-men-gold-and-blue-rosters-and-creative-teams-revealed'
p1127
F2.2496401815134196e-07
sS'http://www.ign.com/cheats/games/assassins-creed-the-ezio-collection-ps4-20058808'
p1128
F2.058453502725148e-07
sS'http://www.ign.com/articles/2016/07/20/the-japanese-collectible-card-game-that-may-just-surprise-you'
p1129
F1.598004653696875e-07
sS'http://www.ign.com/articles/2016/12/08/kanyes-next-album-may-have-songs-named-after-wii-games'
p1130
F1.8073898113484076e-06
sS'http://www.ign.com/boards/forums/world-of-warcraft.6673/'
p1131
F1.633022904181267e-07
sS'http://www.ign.com/videos/2016/12/02/rogue-one-is-already-beating-suicide-squad-and-dr-strange-records'
p1132
F2.7248130684713945e-07
sS'http://www.ign.com/videos/series/ign-movie-reviews'
p1133
F2.639725915383715e-07
sS'https://www.youtube.com/feed/trending'
p1134
F2.8414165672371583e-07
sS'http://www.ign.com/games/bulletstorm-full-clip-edition/ps4-20059600'
p1135
F2.293600401997009e-07
sS'http://www.ign.com/boards/forums/the-crosswalk.80237/index.rss'
p1136
F1.611851159508061e-07
sS'https://www.youtube.com/watch?v=gT0IdeednE0'
p1137
F1.6528650420949353e-07
sS'http://www.ign.com/trailers/one-piece-film-gold-theatrical-trailer'
p1138
F4.211998964956318e-07
sS'http://www.ign.com/boards/forums/shenmue.5284/'
p1139
F1.633022904181267e-07
sS'https://twitter.com/hashtag/RogueOne?src=hash'
p1140
F2.7407987112475163e-07
sS'http://www.ign.com/boards/forums/dynasty-warriors.5679/'
p1141
F1.633022904181267e-07
sS'http://www.ign.com/boards/forums/playstation-lobby.8269/index.rss'
p1142
F1.611851159508061e-07
sS'http://www.ign.com/boards/threads/2016-ign-moonlighters-fantasy-football.454828736/page-2'
p1143
F1.5978218526202536e-07
sS'http://www.ign.com/articles/2016/12/01/vikings-the-outsider-review'
p1144
F4.3503952238158524e-07
sS'http://www.ign.com/videos/2016/11/25/the-best-and-worst-new-pokemon-in-sun-and-moon'
p1145
F2.2372926977305198e-07
sS'http://www.ign.com/videos/2016/03/18/dark-souls-prepare-to-try-episode-3-the-undead-parish'
p1146
F3.5367323522692934e-07
sS'http://www.ign.com/blogs/ttdog666'
p1147
F2.2090150395610273e-07
sS'http://www.ign.com/articles?tags=review'
p1148
F1.6893405653952395e-07
sS'http://www.ign.com/boards/forums/warcraft.5369/'
p1149
F1.6329176586430903e-07
sS'http://www.ign.com/articles/2016/12/07/the-flash-the-present-review?read'
p1150
F2.1823109428395235e-07
sS'http://il.ign.com/'
p1151
F2.9914272773998864e-07
sS'http://www.ign.com/boards/forums/kingdom-hearts.5917/'
p1152
F1.6328917504277628e-07
sS'http://www.ign.com/articles/2016/12/05/westworld-the-bicameral-mind-review'
p1153
F4.96904093452334e-07
sS'http://www.ign.com/videos/2016/12/09/final-fantasy-xv-ultimate-collectors-edition-unboxing'
p1154
F7.918155968019399e-07
sS'http://www.ign.com/wikis/pokemon-go/Bugs,_Glitches,_Freezes,_and_Fixes'
p1155
F2.292920290321368e-07
sS'http://www.ign.com/games/watch-dogs-2/xbox-one-20054627'
p1156
F2.1339888467699182e-07
sS'http://www.ign.com/boards/forums/cars-lobby.5126/index.rss'
p1157
F1.6192270429129357e-07
sS'http://www.ign.com/videos/2016/12/03/crash-bandicoot-n-sane-trilogy-reveal-trailer'
p1158
F2.1900164335540282e-07
sS'http://www.ign.com/images/games/danganronpa-v3-vita-20032525'
p1159
F2.0763394474910067e-07
sS'https://twitter.com/IGN?lang=hr'
p1160
F2.5144551106349286e-07
sS'http://it.toolbox.com/'
p1161
F1.5864032860831973e-07
sS'https://twitter.com/IGN?lang=hu'
p1162
F2.5144551106349286e-07
sS'http://www.ign.com/articles?tags=news'
p1163
F1.6893405653952395e-07
sS'https://www.youtube.com/yt/policyandsafety/'
p1164
F1.3205478928980398e-06
sS'http://www.ign.com/articles/2016/10/05/until-dawn-rush-of-blood-review'
p1165
F2.2364699064812246e-07
sS'https://twitter.com/IGN?lang=he'
p1166
F2.5144551106349286e-07
sS'http://www.ign.com/articles/2016/12/07/the-flash-the-present-review?watch'
p1167
F2.1823109428395232e-07
sS'https://twitter.com/IGN?lang=hi'
p1168
F2.5144551106349286e-07
sS'http://www.pcmag.com/g00/article2/0,2817,2490016,00.asp'
p1169
F2.080778985365458e-07
sS'http://www.ign.com/boards/forums/soulcalibur.5260/'
p1170
F1.633103574203541e-07
sS'http://www.ign.com/support/editorial?category=newstips'
p1171
F2.7097081949291396e-06
sS'http://www.ign.com/boards/forums/nintendo-lobby.80041/index.rss'
p1172
F1.611851159508061e-07
sS'http://www.ign.com/articles/2016/11/23/watch-dogs-2-review'
p1173
F9.2707876183185e-07
sS'http://www.ign.com/watch/miranda-sanchez'
p1174
F4.165992651933346e-07
sS'http://www.ign.com/boards/threads/check-out-my-app-for-making-colourful-pictures-with-crazy-gpu-shaders.454790188/'
p1175
F1.604267329977683e-07
sS'https://www.youtube.com/watch?v=XGWCi8FhvNI'
p1176
F1.6970662046112428e-07
sS'http://www.ign.com/articles/2008/01/23/apollo-justice-ace-attorney-hands-on'
p1177
F1.646235745849173e-07
sS'http://www.ign.com/articles/2016/10/20/shadowverse-the-ccg-with-a-awin-the-matcha-card'
p1178
F2.2105650819302537e-07
sS'https://twitter.com/intent/tweet?url=http%3A%2F%2Fwww.ign.com%2Fblogs%2Fjasonstanley2e%2F2016%2F12%2F07%2Fscratch-map&text=Scratch%20Map%20via%20%40ign%20%23e3&original_referer='
p1179
F1.5758296086690262e-07
sS'http://www.ign.com/watch/samuel-claiborn'
p1180
F3.3312897338061256e-07
sS'http://www.ign.com/articles/2016/11/11/keepin-it-reel-episode-345-how-should-the-marvel-cinematic-universe-use-spider-man-next?watch'
p1181
F1.5978218526202536e-07
sS'https://www.youtube.com/channel/UCmajVTORW3vp5qM8r0myznA'
p1182
F1.9011799051074236e-07
sS'http://www.ign.com/games/dishonored-2/pc-20038694'
p1183
F2.149386649412182e-07
sS'http://sea.ign.com/'
p1184
F1.8165676897315338e-07
sS'http://www.ign.com/articles/2016/10/04/send-us-your-clips-for-the-ps4-gamer-challenge?watch'
p1185
F1.600691110891604e-07
sS'https://www.youtube.com/watch?v=LDs6S1BCKzM&list=PLraFbwCoisJBr8CypA4fLTPD8fUVL_c9a'
p1186
F1.716002288301631e-07
sS'http://za.ign.com/'
p1187
F3.349560183754765e-07
sS'http://nl.ign.com/'
p1188
F3.577694449753359e-07
sS'http://www.ign.com/games/bulletstorm-full-clip-edition/xbox-one-20054907'
p1189
F2.2958957895611288e-07
sS'http://www.ign.com/articles/2016/10/05/playstation-vr-review?watch'
p1190
F2.1926024472714523e-07
sS'http://www.ign.com/wikis/eagle-flight'
p1191
F2.0559673501327166e-07
sS'http://www.ign.com/videos/series/ign-esports'
p1192
F2.497617442358897e-07
sS'http://www.ign.com/wikis/list'
p1193
F2.540708510915761e-07
sS'http://www.ign.com/games/the-walking-dead-a-telltale-game-series-season-3/ps3-20022254'
p1194
F2.333001381227105e-07
sS'https://twitter.com/jschedeen'
p1195
F1.6201467343867142e-07
sS'http://www.ign.com/boards/forums/gamespy-general-gaming.80133/'
p1196
F1.661981138524334e-07
sS'http://www.ign.com/articles/2016/12/08/comic-book-reviews-for-december-7-2016'
p1197
F2.2065797315128625e-07
sS'http://www.ign.com/boards/threads/cant-write-a-new-blog.454890204/'
p1198
F1.6033043544883196e-07
sS'http://www.ign.com/sitemaps'
p1199
F2.7097081949291396e-06
sS'http://www.ign.com/videos/2016/07/23/dead-rising-4-is-every-bit-as-insane-as-i-hoped'
p1200
F3.45970301251562e-07
sS'http://www.ign.com/videos/games/sniper-elite-4-pc-20050478'
p1201
F2.0725468853382985e-07
sS'http://www.ign.com/games/demons-crest/3ds-20062533'
p1202
F2.0943047183823448e-07
sS'https://www.youtube.com/watch?v=ZhM1ac5BZWE'
p1203
F1.6528650420949353e-07
sS'https://www.youtube.com/channel/UC1dj3qdfq8e4E62SKfM3LAw'
p1204
F1.9011799051074236e-07
sS'http://se.ign.com/'
p1205
F3.577694449753359e-07
sS'http://www.ign.com/videos/2016/11/29/final-fantasy-xv-chocobo-world-tour-gameplay'
p1206
F2.1794685235729767e-07
sS'http://www.ign.com/articles/2016/11/30/marvels-agents-of-shield-deals-with-our-devils-review'
p1207
F4.3503952238158524e-07
sS'http://www.ign.com/videos/2016/02/19/beyond-happy-4th-birthday-to-our-favorite-handheld'
p1208
F2.2050717146052492e-07
sS'https://business.twitter.com/en/help/troubleshooting/how-twitter-ads-work.html'
p1209
F1.6399862690680296e-07
sS'https://www.youtube.com/watch?v=4GC4x0I0g4I'
p1210
F2.3379209870267767e-07
sS'https://twitter.com/intent/tweet?url=http%3A%2F%2Fwww.ign.com%2Fboards%2Fmisc%2Fquick-navigation-menu&original_referer=http%3A%2F%2Fwww.ign.com%2Fboards%2Fmisc%2Fquick-navigation-menu'
p1211
F1.5758296086690262e-07
sS'http://www.ign.com/wikis/pokemon-sun-pokemon-moon/Island_Scan_QR_Code_Pokemon'
p1212
F1.0148018755223073e-06
sS'http://www.ign.com/games/minecraft-story-mode/vita-20047270'
p1213
F2.2405054550957922e-07
sS'http://www.ign.com/images/games/apollo-justice-ace-attorney-android-20060197'
p1214
F2.0753461466912746e-07
sS'https://www.youtube.com/watch?v=pfsdC9Wg2ro'
p1215
F1.6528650420949353e-07
sS'http://www.ign.com/games/ys-origin/vita-20062331'
p1216
F2.8317362742457224e-07
sS'https://twitter.com/IGN/media'
p1217
F2.6197787500238603e-07
sS'http://www.ign.com/wikis/ign-community-central/God_Eater_Sweepstakes_Official_Rules'
p1218
F3.1438437987818914e-07
sS'http://www.ign.com/videos/2016/12/07/conan-exiles-survive-in-the-world-of-conan-ign-first'
p1219
F2.3813120105826636e-07
sS'https://twitter.com/hashtag/SuperMarioRun?src=hash'
p1220
F2.736313957408149e-07
sS'http://www.ign.com/videos/series/season-1-dark-souls'
p1221
F3.48129488534901e-07
sS'http://www.ign.com/articles/2016/11/29/split-m-night-shyamalan-and-cast-talk-the-disturbing-new-thriller'
p1222
F2.1827869670830097e-07
sS'http://www.ign.com/articles/2016/12/05/dead-rising-4-review?watch'
p1223
F2.1766525234535373e-07
sS'http://www.ign.com/boards/forums/metroid.5217/'
p1224
F1.6328149698814167e-07
sS'http://www.ign.com/games/final-fantasy-xv/ps4-826846'
p1225
F2.761068594894613e-07
sS'http://www.ign.com/articles/2016/11/21/the-best-gifts-for-comic-book-and-superhero-fans'
p1226
F2.2449430489776126e-07
sS'http://www.ign.com/boards/forums/uncharted.11422/'
p1227
F1.633022904181267e-07
sS'http://www.ign.com/boards/threads/so-i-watched-all-eight-harry-potter-movies-in-a-row.250000008/'
p1228
F1.5937727488096916e-07
sS'https://twitter.com/login?redirect_after_login=%2FIGN%2Flists'
p1229
F1.6160638778684517e-07
sS'http://www.ign.com/watch/seanfinnegan'
p1230
F3.4463276492454875e-07
sS'http://www.ign.com/boards/forums/gaming.80002/index.rss'
p1231
F1.6203307549600954e-07
sS'https://www.youtube.com/watch?v=tUr0bhIGgH0'
p1232
F1.6528650420949353e-07
sS'http://www.ign.com/boards/forums/star-wars-videogames.7037/'
p1233
F1.6328404074847564e-07
sS'http://www.ign.com/videos/2016/12/06/video-game-20-questions-game-scoop-415'
p1234
F3.422903268024095e-07
sS'http://www.ign.com/wikis/dishonored-2/Safe_Combinations'
p1235
F2.4408905410233113e-07
sS'https://s.ign.com/login?r=http://www.ign.com/boards/'
p1236
F1.592615222984925e-07
sS'http://www.ign.com/videos/2016/10/03/hyperx-cloud-stinger-gaming-headset-unboxing'
p1237
F2.2092784229630093e-07
sS'http://www.ign.com/videos/2016/12/08/pokemon-sun-and-moon-walkthrough-ulaula-meadow'
p1238
F2.621288561830459e-07
sS'http://www.ign.com/wikis/assassins-creed-the-ezio-collection?objectid=20058808'
p1239
F2.0367582215987429e-07
sS'http://www.ign.com/boards/forums/far-cry.5731/'
p1240
F1.633022904181267e-07
sS'http://www.ign.com/videos/2016/12/07/werewolves-within-official-launch-trailer'
p1241
F2.198256254218468e-07
sS'http://www.ign.com/articles/2016/07/25/top-10-worst-star-wars-games-ever-made'
p1242
F2.2216827433446718e-07
sS'http://www.ign.com/games/titanfall-frontline/iphone-20045132'
p1243
F2.237734433858357e-07
sS'http://www.ign.com/cheats/games/steep-pc-20054836'
p1244
F2.0540958047983982e-07
sS'http://www.ign.com/wikis/create?objectid=20062371'
p1245
F2.067056487548362e-07
sS'https://www.youtube.com/watch?v=yzpaEbkdAxM'
p1246
F1.6911971107034456e-07
sS'http://www.ign.com/articles/2016/12/01/arrow-invasion-review'
p1247
F4.3873960925073603e-07
sS'https://www.youtube.com/channel/UC-9-kyTW8ZkZNDHQJ6FgpwQ'
p1248
F2.8414165672371583e-07
sS'http://www.ign.com/cheats/games/the-unspoken-pc-20052379'
p1249
F2.038244943398625e-07
sS'https://twitter.com/intent/tweet?text=Driving%20Passion%20in%20Games%20-%20Part%202%3A%20Catch-A-Ride%20via%20%40ign%20%23e3&url=http%3A%2F%2Fwww.ign.com%2Fblogs%2Fandri_g%2F2016%2F12%2F07%2Fdriving-passion-in-games-part-2-catch-a-ride&original_referer='
p1250
F1.5758296086690262e-07
sS'http://www.ign.com/boards/forums/pikmin.6120/'
p1251
F1.633022904181267e-07
sS'http://www.ign.com/articles/2016/07/05/is-faeria-the-next-big-collectible-card-game'
p1252
F2.213599133704227e-07
sS'http://www.ign.com/blogs/pacquiaovsvargaslive'
p1253
F2.2003650003201338e-07
sS'http://www.ign.com/articles/2016/12/02/la-la-land-review'
p1254
F2.473018591697383e-07
sS'https://twitter.com/intent/tweet?url=http%3A%2F%2Fwww.ign.com%2Fblogs%2Fconstructive_review%2F2016%2F12%2F05%2Fa-constructive-review-introduction&text=A%20Constructive%20Review%20Introduction%20via%20%40ign%20%23e3&original_referer='
p1255
F1.5758296086690262e-07
sS'https://www.youtube.com/watch?v=aiQum_Qx8mk'
p1256
F1.6936058931183078e-07
sS'https://twitter.com/login?redirect_after_login=%2FIGN%2Ffollowing'
p1257
F1.6160638778684517e-07
sS'http://www.ign.com/boards/forums/fifa-soccer.5726/'
p1258
F1.6330229041812668e-07
sS'http://www.ign.com/articles/2016/12/09/spider-man-homecoming-star-tom-holland-calls-vultures-debut-like-a-horror-movie?watch'
p1259
F1.8681495649054997e-07
sS'http://www.ign.com/wikis/nioh'
p1260
F2.1016852443551088e-07
sS'https://www.youtube.com/playlist?list=PLraFbwCoisJBr8CypA4fLTPD8fUVL_c9a'
p1261
F1.713841736124118e-07
sS'http://www.ign.com/boards/forums/electronica-dance.8310/'
p1262
F1.6551551269000796e-07
sS'http://www.ign.com/boards/forums/mixed-martial-arts.8252/index.rss'
p1263
F1.6157366652380332e-07
sS'http://www.ign.com/boards/forums/midnight-club-racing.6011/'
p1264
F1.6330765157688002e-07
sS'https://www.youtube.com/channel/UCLQ22KZD2OE4tFjc7NfWWRg'
p1265
F1.8902321011836354e-07
sS'http://www.ign.com/blogs/maillink2016/2016/12/07/people-know-that-who-im'
p1266
F2.2084688123736434e-07
sS'http://www.ign.com/articles/2016/12/08/dragon-quest-heroes-2-gets-western-release-date?read'
p1267
F2.1452429691960124e-07
sS'http://www.ign.com/articles/2016/12/06/your-name-review'
p1268
F2.491001969597788e-07
sS'http://www.ign.com/boards/threads/any-skimboarders-here.454862189/'
p1269
F1.6092991454771308e-07
sS'http://www.ign.com/games/ultimate-chicken-horse/wii-u-20050770'
p1270
F2.2984743659493416e-07
sS'http://www.ign.com/videos/2016/12/07/our-favorite-star-wars-troopers-of-all-time'
p1271
F3.404598193273691e-07
sS'http://www.ign.com/boards/forums/elder-scrolls.5312/'
p1272
F1.6326168988490404e-07
sS'https://www.youtube.com/watch?v=RN7DrZEWDtQ'
p1273
F1.6528650420949353e-07
sS'http://www.ign.com/boards/'
p1274
F4.2831472835525536e-07
sS'http://www.ign.com/boards/forums/littlebigplanet.10963/'
p1275
F1.6330496262872065e-07
sS'https://www.youtube.com/watch?v=gVLnNm85W4s&list=PLraFbwCoisJCG2Wsep4O6WneiWMOKnSe7'
p1276
F1.690312473908849e-07
sS'https://twitter.com/login?redirect_after_login=%2FIGN%2Flikes'
p1277
F1.6160638778684517e-07
sS'http://www.ign.com/videos/2016/11/05/will-the-ghost-in-the-shell-movie-work-ign-keepin-it-reel'
p1278
F2.8703400099699727e-07
sS'http://www.ign.com/wikis/kingdom-hearts-hd-2-8-final-chapter-prologue'
p1279
F2.0987815283416256e-07
sS'http://www.ign.com/blogs/page/2'
p1280
F2.1701119302722186e-07
sS'https://www.youtube.com/user/gametrailers'
p1281
F1.7196278124747948e-07
sS'https://www.youtube.com/watch?v=XRZDOZu7cy8'
p1282
F1.70412051388908e-07
sS'http://www.ign.com/videos/2016/04/08/if-rogue-one-came-out-in-1977'
p1283
F3.0877416876927343e-07
sS'http://www.ign.com/boards/forums/persona-shin-megami-tensei.6115/'
p1284
F1.6329963478930668e-07
sS'http://www.ign.com/boards/forums/cooking-gardening-board.6967/'
p1285
F1.6584151865374155e-07
sS'http://www.ign.com/articles/2016/12/08/dragon-quest-heroes-2-gets-western-release-date?watch'
p1286
F2.1452429691960124e-07
sS'http://www.ign.com/cheats/games/killing-floor-2-ps4-20028713'
p1287
F2.0591853778746355e-07
sS'https://twitter.com/privacy?lang=en'
p1288
F1.612221952728056e-07
sS'http://www.ign.com/articles/2015/11/30/rainbow-six-siege-review'
p1289
F2.1512781918064147e-07
sS'http://www.ign.com/boards/threads/2016-2017-off-season-thread.454873688/page-6'
p1290
F1.5819162390738505e-07
sS'http://www.ign.com/videos/games/strafe-pc-20030452'
p1291
F2.0970354770526066e-07
sS'http://www.ign.com/wikis/ign-community-central'
p1292
F3.097743438890113e-07
sS'http://www.ign.com/comics'
p1293
F9.067159634837094e-06
sS'http://www.ign.com/articles/2016/12/06/humans-season-2-photos-reveal-new-characters'
p1294
F2.197765763028814e-07
sS'https://twitter.com/IGN/status/806981958777479168'
p1295
F2.7249547841205585e-07
sS'http://www.ign.com/games/clockwork/iphone-20032839'
p1296
F2.2378776350730625e-07
sS'http://www.ign.com/videos?filter=games-review'
p1297
F2.6859392087690164e-07
sS'http://www.ign.com/wikis/nintendo-switch'
p1298
F1.7463074758084832e-07
sS'http://www.ign.com/videos/2016/10/01/11-awesome-destiny-fan-creations-you-need-to-see-best-of-the-web'
p1299
F3.368363533521969e-07
sS'https://twitter.com/account/begin_password_reset'
p1300
F1.5553602892839797e-06
sS'http://www.ign.com/blogs/maillink2016'
p1301
F2.2084688123736434e-07
sS'http://www.ign.com/images/games/kingdom-hearts-hd-ii-8-ps4-20042901'
p1302
F2.0987815283416256e-07
sS'http://www.ign.com/wikis/battlefield-1/Things_Battlefield_1_Doesn%27t_Tell_You'
p1303
F2.4498530208681874e-07
sS'http://www.ign.com/articles/2015/11/30/rainbow-six-siege-review?watch'
p1304
F1.5987672922463268e-07
sS'http://www.ign.com/videos?filter=games-trailer'
p1305
F5.322108565056308e-07
sS'http://www.ign.com/boards/threads/the-nintendo-switch-along-with-zelda-was-shown-on-jimmy-fallons-tonight-show.454894382/page-2'
p1306
F1.5854848573727366e-07
sS'http://www.ign.com/wikis/pokemon-sun-pokemon-moon/How_to_Get_Wimpod_and_Golisopod_in_Pokemon_Sun_and_Moon'
p1307
F2.2369188411000593e-07
sS'http://www.ign.com/boards/categories/gaming.80142/'
p1308
F2.931416520120542e-07
sS'http://www.ign.com/games/steep/ps4-20054837'
p1309
F2.30180471772633e-07
sS'http://www.ign.com/videos/2016/12/06/welcome-to-skyrim-episode-3-were-going-to-hogwarts'
p1310
F3.096543010134831e-07
sS'http://www.ign.com/articles/2016/10/28/keepin-it-reel-episode-343-wtf-happened-to-deadpool-2?watch'
p1311
F1.5978218526202533e-07
sS'https://www.youtube.com/channel/UCcyYM25SfSahGD4xnSx3DNw'
p1312
F1.8776145919430232e-07
sS'https://twitter.com/IGN?lang=it'
p1313
F2.5144551106349286e-07
sS'http://www.ign.com/trailers/justice-league-dark-official-trailer-debut'
p1314
F4.211998964956318e-07
sS'https://twitter.com/IGN?lang=id'
p1315
F2.5144551106349286e-07
sS'http://www.ign.com/boards/forums/hockey.5111/'
p1316
F1.6521582608814105e-07
sS'https://twitter.com/AhmadChildress'
p1317
F2.7401116129467777e-07
sS'http://www.ign.com/videos/2016/10/22/new-willy-wonka-casting-picks-ign-keepin-it-reel'
p1318
F2.871290121693503e-07
sS'http://www.ign.com/games/upcoming/xbox-360'
p1319
F2.3542420057500455e-07
sS'http://oyster.ignimgs.com/wordpress/stg.ign.com/2016/12/arrow-508-invasionb-0302b-212260.jpg'
p1320
F2.396089630899017e-07
sS'http://www.ign.com/boards/threads/so-this-week-ive-won-%C2%A3350-on-roulette.454894751/'
p1321
F1.6040922258377085e-07
sS'http://www.ign.com/trailers/attack-on-titan-live-action-trailer'
p1322
F4.211998964956318e-07
sS'http://www.ign.com/tv/reviews'
p1323
F2.5931271654548346e-07
sS'http://de.ign.com/'
p1324
F3.577694449753359e-07
sS'https://www.youtube.com/channel/UChDyKjO7PB_QuqTTFKKR9Iw'
p1325
F1.9115796820989705e-07
sS'http://www.ign.com/boards/forums/borderlands.11454/'
p1326
F1.633022904181267e-07
sS'http://www.ign.com'
p1327
F5.215625311152882e-06
sS'http://www.ign.com/boards/forums/gears-of-war.8403/'
p1328
F1.633022904181267e-07
sS'http://www.ign.com/games/ghost-recon-wildlands/xbox-one-20038801'
p1329
F2.2328298854675242e-07
sS'http://www.ign.com/articles/2016/12/05/dead-rising-4-review'
p1330
F9.383553984991552e-07
sS'https://twitter.com/login'
p1331
F4.4830506905510296e-07
sS'http://www.ign.com/articles/2016/11/30/answering-3-important-questions-about-resident-evil-7'
p1332
F2.1482824790733806e-07
sS'http://www.ign.com/articles/2016/12/08/ea-announces-sea-of-solitude'
p1333
F1.8276081333961627e-06
sS'http://www.ign.com/videos/2016/12/04/why-were-worried-about-the-power-rangers-movie'
p1334
F3.4738687010027607e-07
sS'http://www.ign.com/boards/forums/destiny.80215/'
p1335
F1.6329176586430903e-07
sS'http://www.ign.com/xbox-one'
p1336
F9.067159634837094e-06
sS'http://www.ign.com/videos/2016/10/08/how-crazy-is-the-westworld-vr-experience-ign-access'
p1337
F2.3604077580366319e-07
sS'http://www.ign.com/articles/2016/10/05/playstation-vrs-launch-games-reviewed'
p1338
F1.9934552627659437e-07
sS'https://twitter.com/IGN/status/806942256578105344'
p1339
F2.743212346085139e-07
sS'http://www.ign.com/boards/forums/dragon-warrior.5658/'
p1340
F1.6329437266342983e-07
sS'http://www.ign.com/boards/forums/current-events.5361/index.rss'
p1341
F1.6191862436011348e-07
sS'http://www.ign.com/boards/forums/wwe-games.6546/'
p1342
F1.6326168988490404e-07
sS'http://www.ign.com/articles/2016/12/09/spider-man-homecoming-star-tom-holland-calls-vultures-debut-like-a-horror-movie?abthid=584a07217bb8cf2b2000002d&read'
p1343
F2.1736008249438644e-07
sS'http://www.ign.com/wikis/pokemon-sun-pokemon-moon/Pokemon_Sun_and_Moon_Exclusives_and_Version_Differences'
p1344
F1.0556602405171645e-06
sS'https://www.youtube.com/watch?v=LDs6S1BCKzM'
p1345
F2.0938992786097487e-07
sS'https://www.youtube.com/watch?v=_JZ7Wg26H6c'
p1346
F1.8231933856256237e-07
sS'http://www.ign.com/watch/destin-legarie'
p1347
F8.058710549188526e-07
sS'http://www.ign.com/wikis/ign/Standards_and_Practices'
p1348
F2.7097081949291396e-06
sS'http://www.ign.com/games/watch-dogs-2/ps4-20054628'
p1349
F2.133614367555617e-07
sS'http://www.ign.com/articles/2016/12/01/ign-unfiltered-episode-13-inventor-and-oculus-co-founder-jack-mccauley?watch'
p1350
F2.194885365588042e-07
sS'https://www.youtube.com/watch?v=I5XRY4XVqBw'
p1351
F1.6885993005811115e-07
sS'http://www.ign.com/videos/2016/11/04/watch-party-psycho-pass-season-finale-episodes-21-22'
p1352
F3.0079329503222216e-07
sS'http://www.ign.com/watch/justin-davis'
p1353
F4.4728516392610454e-07
sS'http://www.ign.com/wikis/gta-5/Executives_and_Other_Criminals'
p1354
F1.6222190537076888e-07
sS'http://www.ign.com/videos/2016/12/05/local-multiplayer-games-might-be-making-a-comeback-game-scoop'
p1355
F3.422903268024095e-07
sS'http://www.ign.com/videos/2016/12/06/crystal-rift-is-an-old-school-dungeon-crawler-thats-so-bad-its-good'
p1356
F3.558592347101123e-07
sS'https://www.youtube.com/watch?v=OgZM765ROcg'
p1357
F1.6528650420949353e-07
sS'https://www.youtube.com/watch?v=j0LZhXswHjw'
p1358
F1.6917295005452301e-07
sS'http://www.ign.com/wikis/pokemon-sun-pokemon-moon/Key_Items'
p1359
F1.5875148082306698e-07
sS'https://twitter.com/hashtag/ad?src=hash'
p1360
F2.717965790445845e-07
sS'https://www.youtube.com/watch?v=ru5IU8bGx3A'
p1361
F1.7364659307687322e-07
sS'http://www.ign.com/articles/2016/11/03/owlboy-review?read'
p1362
F2.1815462289421058e-07
sS'https://www.youtube.com/watch?v=ce_NZr-387I'
p1363
F1.6528650420949353e-07
sS'http://www.ign.com/videos?filter=all'
p1364
F2.6859392087690164e-07
sS'http://www.ign.com/blogs/constructive_review/2016/12/05/a-constructive-review-introduction'
p1365
F2.2020130589726967e-07
sS'http://www.ign.com/cheats/games/assassins-creed-the-ezio-collection-xbox-one-20058807'
p1366
F2.0601070284374522e-07
sS'http://www.ign.com/articles/2016/12/08/westworld-7-likeliest-theories-about-season-2'
p1367
F5.1929564918834925e-06
sS'http://www.ign.com/articles/2016/10/20/10-of-the-best-oculus-rift-games?watch'
p1368
F2.1923387911007564e-07
sS'http://www.ign.com/wikis/the-last-guardian'
p1369
F3.29970228263574e-07
sS'http://www.ign.com/xbox-360'
p1370
F9.067159634837094e-06
sS'http://www.ign.com/games/the-walking-dead-a-telltale-game-series-season-3/xbox-one-20022258'
p1371
F2.297505076009338e-07
sS'http://www.ign.com/videos/series/ign-news'
p1372
F2.7014567949905393e-07
sS'http://www.ign.com/videos/2016/12/07/resident-evil-the-final-chapter-road-to-racoon-city-an-interactive-experience-sizzle'
p1373
F2.1978889202315978e-07
sS'http://www.ign.com/movies'
p1374
F9.067159634837094e-06
sS'http://www.ign.com/videos/2016/12/04/rogue-one-a-star-wars-story-jyn-rallies-the-rebel-alliance-clip'
p1375
F2.758082706792713e-07
sS'http://www.ign.com/wikis/battlefield-1'
p1376
F2.4606606172820257e-07
sS'http://dk.ign.com/'
p1377
F3.577694449753359e-07
sS'http://www.ign.com/boards/forums/android-board.80151/'
p1378
F1.6403485614645176e-07
sS'http://www.ign.com/watch/kyle-oconnor'
p1379
F3.045173094556922e-07
sS'http://www.ign.com/videos/2016/09/10/history-of-awesome-mass-effect'
p1380
F2.8987199977743854e-07
sS'http://www.ign.com/articles/2016/12/05/dead-rising-4-review?read'
p1381
F2.176652523453537e-07
sS'http://www.ign.com/watch/marty-sliva'
p1382
F8.63662597419263e-07
sS'http://www.ign.com/images/games/ys-origin-vita-20062331'
p1383
F2.0869109567412022e-07
sS'https://www.youtube.com/watch?v=PeiiPV7GbYM'
p1384
F1.6528650420949353e-07
sS'http://www.ign.com/ps3'
p1385
F9.067159634837094e-06
sS'https://www.youtube.com/channel/UC4R8DWoMoI7CAwX8_LjQHig'
p1386
F2.8414165672371583e-07
sS'http://www.ign.com/boards/forums/killzone.6968/'
p1387
F1.6329963478930668e-07
sS'http://www.ign.com/wikis/batman-the-telltale-series'
p1388
F2.1927646806915197e-07
sS'http://www.ign.com/games/resident-evil-7/pc-20054862'
p1389
F3.3713400401085697e-07
sS'http://www.ign.com/boards/forums/movies.8275/'
p1390
F1.7929306359204576e-07
sS'https://twitter.com/Tom_Jorgensen'
p1391
F2.7401116129467777e-07
sS'https://www.youtube.com/watch?v=kNoIxBpva54'
p1392
F1.6528650420949353e-07
sS'http://www.ign.com/videos/2016/12/09/super-mario-run-full-apple-store-demo-iphone-7-gameplay'
p1393
F2.8283409030894453e-06
sS'http://www.ign.com/boards/forums/james-bond-007-series.7953/'
p1394
F1.6330496262872065e-07
sS'http://www.ign.com/articles/2016/12/06/new-photos-from-marvels-iron-fist-include-claire-temple-colleen-wing-and-more?watch'
p1395
F2.1812793155055942e-07
sS'http://www.ign.com/articles/2016/11/08/call-of-duty-modern-warfare-remastered-review'
p1396
F2.2126663130037769e-07
sS'http://www.ign.com/articles/2016/11/22/marvel-comics-solicitations-for-february-2017'
p1397
F2.1603548464122472e-07
sS'http://www.ign.com/boards/forums/digimon.5633/'
p1398
F1.6329176586430903e-07
sS'http://www.ign.com/games/horizon-zero-dawn/ps4-83790'
p1399
F3.8654333392475525e-07
sS'http://www.ign.com/boards/forums/comics.5033/'
p1400
F1.779086793953137e-07
sS'https://www.youtube.com/watch?v=G_oEFvpLng4'
p1401
F1.6528650420949353e-07
sS'https://www.youtube.com/watch?v=NSgRFiAa84Q'
p1402
F1.6528650420949353e-07
sS'https://twitter.com/IGN?lang=ja'
p1403
F2.5144551106349286e-07
sS'http://www.ign.com/videos/games/danganronpa-v3-vita-20032525'
p1404
F2.0763394474910067e-07
sS'https://www.youtube.com/watch?v=lJrPnAjv6jU'
p1405
F1.6528650420949353e-07
sS'http://www.ign.com/articles/2016/12/08/westworld-all-the-hints-at-the-man-in-black-reveal?watch'
p1406
F1.6009249761025675e-07
sS'https://twitter.com/intent/tweet?text=My%20Top%205%20Announcements%20from%20Playstation%20Experience%202016%20via%20%40ign%20%23e3&url=http%3A%2F%2Fwww.ign.com%2Fblogs%2Fjr8zeppelin%2F2016%2F12%2F05%2Fmy-top-5-announcements-from-playstation-experience-2016&original_referer='
p1407
F1.5758296086690262e-07
sS'http://www.ign.com/boards/categories/support-feedback.80267/'
p1408
F1.7822150821351176e-07
sS'http://www.ign.com/articles/2016/12/02/keepin-it-reel-the-final-episode-before-we-relaunch-as-the-ign-movies-show?watch'
p1409
F2.1788053418887932e-07
sS'http://www.ign.com/watch/game-scoop'
p1410
F9.065397848275163e-06
sS'http://www.ign.com/videos/games/danganronpa-v3-ps4-20042906'
p1411
F2.0762953179449674e-07
sS'http://www.ign.com/games/deathtrap/xbox-one-20046365'
p1412
F2.1962065252015048e-07
sS'http://www.ign.com/articles/2016/02/21/this-is-the-samsung-galaxy-s7-and-s7-edge'
p1413
F2.2350236315744437e-07
sS'http://www.ign.com/articles/2016/12/01/game-scoop-415-time-to-fly-back-to-no-mans-sky'
p1414
F1.6176184087882389e-07
sS'https://twitter.com/IGN/status/807019447789588482'
p1415
F2.7148531668810744e-07
sS'http://www.ign.com/wikis/playstation-4/PlayStation_VR_Troubleshooting_and_Problem_Fixes'
p1416
F1.6190890532953464e-07
sS'https://www.youtube.com/user/IGNentertainment/discussion'
p1417
F1.9374278710623195e-07
sS'http://www.ign.com/articles/2016/12/08/office-christmas-party-review'
p1418
F2.514318667858517e-07
sS'http://www.ign.com/boards/forums/the-gcb.5313/index.rss'
p1419
F1.62033956233303e-07
sS'http://www.extremetech.com/'
p1420
F3.1194814746112773e-06
sS'http://www.ign.com/boards/forums/basketball.5109/'
p1421
F1.640187372439488e-07
sS'http://www.ign.com/articles/2016/12/08/logan-richard-e-grants-villain-role-in-wolverine-finale-revealed'
p1422
F1.7673549383916793e-06
sS'http://www.ign.com/articles/2016/12/08/the-5-most-annoying-heroes-in-dota-2?read'
p1423
F2.1785561072648057e-07
sS'http://www.ign.com/articles/2016/12/07/daily-deals-call-of-duty-board-game-blowout-oculus-rift-with-100-credit?abthid=58488891b13000a618000014'
p1424
F4.6625253803715476e-07
sS'http://www.ign.com/articles/2016/12/07/daily-deals-call-of-duty-board-game-blowout-oculus-rift-with-100-credit?abthid=58488891b13000a618000013'
p1425
F2.2132215104726904e-07
sS'http://www.ign.com/videos/2016/11/18/fireteam-chat-ep-95-destiny-2-and-trials-igns-destiny-show'
p1426
F6.2463697328214914e-06
sS'http://www.ign.com/boards/forums/college-football.8546/index.rss'
p1427
F1.6157366652380332e-07
sS'http://www.ign.com/blogs/jr8zeppelin/2016/12/05/my-top-5-announcements-from-playstation-experience-2016'
p1428
F2.1914585425230647e-07
sS'http://www.ign.com/videos/2016/12/05/marty-plays-mass-effect-episode-1-saren-surprise-party'
p1429
F4.4586729881181517e-07
sS'https://www.youtube.com/watch?v=UuTTnxhmdcQ'
p1430
F1.6913634557681612e-07
sS'http://www.ign.com/articles/2016/07/13/pokemon-go-review'
p1431
F2.2053662192105371e-07
sS'http://www.ign.com/games/the-walking-dead-a-telltale-game-series-season-3/xbox-360-20022255'
p1432
F4.027325146134333e-07
sS'http://www.ign.com/articles/2016/08/19/deus-ex-mankind-divided-review'
p1433
F2.1486113510935293e-07
sS'http://www.ign.com/games/apollo-justice-ace-attorney/android-20060197'
p1434
F2.1247172422494056e-07
sS'http://www.ign.com/articles/2016/04/01/the-walking-dead-michonne-episode-2-review?watch'
p1435
F2.2151788153350535e-07
sS'http://www.ign.com/articles/2016/10/19/games-that-should-be-revived-in-vr'
p1436
F2.1942838708701024e-07
sS'http://www.ign.com/videos/2016/12/05/rogue-one-a-star-wars-story-footage-reaction-what-we-thought-of-the-28-minutes-weve-seen'
p1437
F2.756971003856491e-07
sS'https://support.twitter.com/articles/14226'
p1438
F1.5869312946002483e-07
sS'https://www.youtube.com/watch?v=bSxMek99fv0&list=PLraFbwCoisJDZ8ZpheC4BOvxI2ithckux&'
p1439
F1.6528650420949353e-07
sS'http://www.ign.com/boards/forums/my-ign.80149/'
p1440
F1.6558247784425777e-07
sS'https://twitter.com/IGN/status/806936419855777793'
p1441
F2.707872872322835e-07
sS'http://www.ign.com/videos/2016/12/05/state-of-decay-2-devs-listening-to-fans-ign-daily-fix'
p1442
F5.563264808984113e-07
sS'http://www.ign.com/cheats/games/dishonored-2-ps4-20038705'
p1443
F2.0437399726074413e-07
sS'http://www.ign.com/games/power-rangers-mega-battle/pc-20059895'
p1444
F2.201461454236897e-07
sS'http://www.ign.com/blogs/boxinglive'
p1445
F2.2044947986227423e-07
sS'http://www.ign.com/articles/2016/09/07/super-mario-run-coming-to-ios?watch'
p1446
F2.2121482570837954e-07
sS'http://www.ign.com/boards/forums/dead-space.23951/'
p1447
F1.633022904181267e-07
sS'http://www.ign.com/articles/2016/11/24/unlocked-272-our-halo-6-predictions'
p1448
F1.6168682496604455e-07
sS'http://www.ign.com/boards/forums/current-events.5361/'
p1449
F1.658525107656497e-07
sS'http://www.ign.com/boards/threads/avery-johnson-agrees-to-alabama-job.454442495/'
p1450
F1.6029861318328445e-07
sS'http://www.ign.com/articles/2016/11/15/the-original-xboxas-15-best-exclusive-games'
p1451
F2.17913163714832e-07
sS'http://www.ign.com/cheats/games/pokemon-moon-version-3ds-20050016'
p1452
F2.5862397472163955e-07
sS'http://www.ign.com/articles/2016/12/08/dragon-quest-heroes-2-gets-western-release-date'
p1453
F2.1452429691960124e-07
sS'http://www.ign.com/articles/2016/12/05/oculus-touch-controllers-review'
p1454
F7.959809641692231e-07
sS'http://www.ign.com/videos/games/sniper-elite-4-xbox-one-20050479'
p1455
F2.0725443781498533e-07
sS'http://www.ign.com/videos/2016/12/02/15-minutes-of-star-wars-battlefront-rogue-one-gameplay'
p1456
F3.5879642100646355e-07
sS'http://www.ign.com/games/pokemon-moon-version/3ds-20050016'
p1457
F2.7794377385007474e-07
sS'http://www.ign.com/articles/2016/11/23/best-pc-gifts-of-2016'
p1458
F5.21132938164639e-06
sS'https://www.youtube.com/watch?v=B2Sdg2JRTRQ&list=PLE196726F02565118'
p1459
F1.5923045743319588e-07
sS'http://www.ign.com/videos/2016/10/06/old-man-logan-14-new-marvel-legends-revealed-ign-access'
p1460
F4.4956488991724066e-07
sS'http://www.ign.com/videos?filter=series'
p1461
F3.583144341625886e-07
sS'http://www.ign.com/boards/forums/football.5105/'
p1462
F1.636296994896114e-07
sS'https://www.youtube.com/watch?v=S4VJ29yH2Kc'
p1463
F1.6528650420949353e-07
sS'http://www.ign.com/articles/2016/11/30/villain-team-for-justice-league-vs-suicide-squad-revealed'
p1464
F2.1752198854379342e-07
sS'http://www.ign.com/trailers/the-last-of-us-2-psx-2016-reveal-trailer'
p1465
F4.211998964956318e-07
sS'https://www.youtube.com/watch?v=rUTXh9jUAVw'
p1466
F1.6528650420949353e-07
sS'http://www.ign.com/boards/threads/mods-have-favorites-punish-users-differently-or-not-at-all.454892620/'
p1467
F1.6029175661945577e-07
sS'https://www.youtube.com/channels'
p1468
F2.8414165672371583e-07
sS'http://www.ign.com/cheats/games/the-dwarves-pc-20040456'
p1469
F2.0334749358482563e-07
sS'https://www.youtube.com/watch?v=ol7Pu4fr2z0&list=PLraFbwCoisJDZ8ZpheC4BOvxI2ithckux'
p1470
F1.903416766864073e-07
sS'http://www.ign.com/games/reviews/iphone'
p1471
F2.3792634456301704e-07
sS'http://www.ign.com/articles/2016/12/07/ign-anime-club-episode-75-our-least-favorite-anime-endings?watch'
p1472
F1.598767292246327e-07
sS'http://www.ign.com/articles/2016/11/16/westworld-new-episode-images-show-bernard-getting-some-answers'
p1473
F2.792316754673438e-07
sS'http://www.ign.com/wikis/metal-gear-solid-5-the-phantom-pain/Easter_Eggs'
p1474
F1.5876703986151752e-07
sS'http://www.ign.com/wikis/final-fantasy-15'
p1475
F1.1257233902239005e-06
sS'http://www.ign.com/videos/series/ign-rewind-theater'
p1476
F2.639725915383715e-07
sS'http://www.ign.com/articles/2016/12/07/sony-to-launch-smartphone-games-in-japan-based-on-classic-playstation-franchises'
p1477
F2.213599133704227e-07
sS'http://www.ign.com/boards/forums/castlevania.5214/'
p1478
F1.6329963478930668e-07
sS'https://twitter.com/IGN/status/806999779880226816'
p1479
F2.75339996070714e-07
sS'http://www.ign.com/games/kings-knight-wrath-of-the-dark-dragon/iphone-20059073'
p1480
F2.239251065248715e-07
sS'http://www.ign.com/boards/forums/final-fantasy.5026/'
p1481
F1.6328149698814164e-07
sS'http://www.ign.com/articles/2016/07/13/pokemon-go-review?watch'
p1482
F2.2053662192105374e-07
sS'https://www.youtube.com/watch?v=I8YLNstk_1w'
p1483
F1.6528650420949353e-07
sS'https://www.youtube.com/watch?v=aAQEr-D0wT0'
p1484
F1.6822641696489775e-07
sS'http://www.ign.com/articles/2015/05/12/the-witcher-3-the-wild-hunt-review?watch'
p1485
F1.5951186761875542e-07
sS'http://br.ign.com/'
p1486
F3.577694449753359e-07
sS'https://www.youtube.com/watch?v=Sbiquc42zrQ'
p1487
F1.6528650420949353e-07
sS'http://www.ign.com/articles/2016/12/08/office-christmas-party-review?read'
p1488
F2.1827869670830094e-07
sS'http://www.ign.com/boards/forums/xenosaga.6597/'
p1489
F1.633022904181267e-07
sS'https://www.youtube.com/watch?v=setfvRIA68w'
p1490
F1.6960728979428803e-07
sS'http://www.ign.com/articles/2016/12/07/star-wars-battlefronts-vr-mission-might-be-my-favorite-psvr-experience'
p1491
F1.9349165409082075e-06
sS'http://www.ign.com/articles/2016/12/08/guitar-hero-skylanders-developer-vicarious-visions-working-on-destiny?read'
p1492
F3.4893972153773277e-07
sS'http://www.ign.com/articles/2016/11/23/watch-dogs-2-review?watch'
p1493
F2.1747560268793583e-07
sS'http://www.ign.com/games/eagle-flight/ps4-20046733'
p1494
F2.1789886158409201e-07
sS'http://www.ign.com/videos/2015/03/10/ori-and-the-blind-forest-review'
p1495
F2.1548289775117436e-07
sS'http://www.ign.com/games/sniper-elite-4/ps4-20050480'
p1496
F2.2165002276507976e-07
sS'http://www.ign.com/articles/2016/12/09/hands-on-with-resident-evil-7-biohazard-collectors-edition?read'
p1497
F2.3779952207181647e-07
sS'http://www.ign.com/boards/forums/mlb-sony-ce.5966/'
p1498
F1.6329963478930668e-07
sS'http://www.ign.com/games/halo-wars-definitive-edition/xbox-one-20054807'
p1499
F2.772716850164639e-07
sS'https://twitter.com/Samuel_IGN'
p1500
F2.6925238770496316e-07
sS'http://www.ign.com/boards/forums/the-crosswalk.80237/'
p1501
F1.6333223979146133e-07
sS'http://www.ign.com/wikis/resident-evil-7'
p1502
F1.8208662508048922e-07
sS'http://www.ign.com/watch/alanah-pearce'
p1503
F7.741882299263496e-07
sS'http://www.ign.com/videos/2015/12/02/salt-and-sanctuary-currents-trailer'
p1504
F2.2442769210476874e-07
sS'http://www.ign.com/articles/2016/10/20/developers-respond-to-nintendo-switch'
p1505
F2.2908716212634862e-07
sS'http://www.ign.com/images/games/resident-evil-7-xbox-one-20054863'
p1506
F2.097308160010653e-07
sS'http://jp.ign.com/'
p1507
F3.577694449753359e-07
sS'http://www.ign.com/boards/forums/titanfall.80213/'
p1508
F1.6332414572964986e-07
sS'http://www.ign.com/games/80s-overdrive/3ds-20052484'
p1509
F2.2568108294787804e-07
sS'http://www.ign.com/boards/forums/mortal-kombat.6027/'
p1510
F1.6329963478930668e-07
sS'https://twitter.com/JimVejvoda'
p1511
F2.7401116129467777e-07
sS'http://www.ziffdavis.com/privacy-policy'
p1512
F5.812208598562633e-07
sS'http://www.ign.com/articles/2016/11/09/ign-anime-club-episode-71-britney-spears-is-a-weeaboo?watch'
p1513
F1.5981905191556962e-07
sS'https://twitter.com/Terri_Schwartz/status/807033805152231424'
p1514
F2.695507643969222e-07
sS'http://www.ign.com/articles/2016/12/05/ash-vs-evil-dead-home-again-review'
p1515
F4.923137035227783e-07
sS'http://www.ign.com/games/strafe/pc-20030452'
p1516
F2.1622276321634066e-07
sS'https://www.youtube.com/watch?v=fcjOERplCgU'
p1517
F1.7318358801020173e-07
sS'http://www.ign.com/articles/2016/05/28/overwatch-review?watch'
p1518
F1.5967853542901254e-07
sS'http://www.ign.com/cheats/games/final-fantasy-xv-ps4-826846'
p1519
F2.432352501631459e-07
sS'http://www.ign.com/wikis/pokemon-sun-pokemon-moon/Evolutionary_Items'
p1520
F1.583833679274448e-07
sS'http://www.ign.com/videos/2016/03/01/jedi-michonne-killing-zombies-with-a-lightsaber-star-wars-walking-dead-mash-up'
p1521
F3.088247628045492e-07
sS'http://www.ign.com/videos/series'
p1522
F9.0628637053306e-06
sS'http://www.ign.com/watch/ryan-mccaffrey'
p1523
F7.583339052768145e-07
sS'http://www.ign.com/articles/2016/09/20/rez-infiniteas-new-area-explodes-on-ps-vr-with-sound-and-immersion'
p1524
F2.195509281744378e-07
sS'http://www.ign.com/articles/2016/11/30/power-rangers-alpha-5-first-look-concept-art'
p1525
F2.7612974576964807e-07
sS'http://www.ign.com/games/potion-explosion/iphone-20061491'
p1526
F2.2392510652487149e-07
sS'http://www.ign.com/articles/2016/10/12/here-they-lie-review'
p1527
F2.2202559785590845e-07
sS'http://www.ign.com/videos/2016/12/08/8-things-the-elder-scrolls-series-needs-to-change'
p1528
F6.059969222732286e-07
sS'http://www.ign.com/articles/2016/12/07/batman-the-telltale-series-episode-5-release-date-announced?watch'
p1529
F3.4499481533048353e-07
sS'http://www.ign.com/videos?page=2&filter=all'
p1530
F2.519475233089687e-07
sS'https://www.youtube.com/watch?v=f1_BVWNXtVo'
p1531
F1.7326623753838825e-07
sS'http://www.ign.com/articles/2016/12/09/arrow-how-did-that-thought-dead-character-come-back?abthid=584a04de983b546e1f000025'
p1532
F2.7509079351932593e-07
sS'http://www.ign.com/articles/2016/12/09/arrow-how-did-that-thought-dead-character-come-back?abthid=584a04de983b546e1f000024'
p1533
F1.599168627060478e-07
sS'http://www.ign.com/boards/threads/want-to-help-on-wikis-legacy-guides-updated-list.250115891/'
p1534
F1.6131004471391596e-07
sS'http://pk.ign.com/'
p1535
F3.577694449753359e-07
sS'http://www.ign.com/games/dead-rising-4/pc-20054801'
p1536
F2.1194674728388965e-07
sS'http://www.ign.com/articles?tags=podcast'
p1537
F1.6342453757580358e-07
sS'http://www.ign.com/wikis/ign-community-central/Community_Events'
p1538
F3.097743438890113e-07
sS'http://www.ign.com/articles/2016/12/07/playstation-4-hits-50-million-units-sold'
p1539
F2.401344106927814e-07
sS'https://www.youtube.com/watch?v=NK0Jl-5ovp4'
p1540
F1.6900224218365543e-07
sS'http://www.ign.com/articles/2015/10/23/sony-confirms-its-stopped-first-party-vita-development?watch'
p1541
F1.6016537372072044e-07
sS'http://www.ign.com/articles/2016/12/07/batman-12-review-2'
p1542
F2.5072035632740145e-07
sS'http://www.ign.com/videos/games/ys-origin-vita-20062331'
p1543
F2.0869109567412022e-07
sS'http://www.ign.com/videos/2016/12/08/how-to-unlock-the-rarest-skins-in-titanfall-2-best-way-to-play'
p1544
F3.676814930470826e-07
sS'http://www.ign.com/boards/forums/star-wars.5072/'
p1545
F1.6587570269533048e-07
sS'https://www.youtube.com/watch?v=-k3NKPjOHU0'
p1546
F1.6917295005452301e-07
sS'http://www.ign.com/videos/2016/08/28/4-ways-legion-is-shaking-up-world-of-warcraft'
p1547
F2.183111879239975e-07
sS'http://www.ign.com/articles/2016/11/08/first-mass-effect-andromeda-story-details-revealed?watch'
p1548
F2.1767010076272194e-07
sS'https://www.youtube.com/watch?v=o17g_Un815A'
p1549
F1.6528650420949353e-07
sS'http://www.vulture.com/2016/12/maeve-westworld-decision.html'
p1550
F2.3488463378831797e-07
sS'http://www.ign.com/games/dynasty-warriors-godseekers/vita-20051953'
p1551
F2.1912317619632834e-07
sS'http://www.ign.com/articles/2016/10/27/nintendo-will-stream-a-nintendo-switch-presentation-in-january'
p1552
F4.023253924519976e-07
sS'http://www.ign.com/games/runbow/3ds-20054422'
p1553
F2.254975917585574e-07
sS'http://www.ign.com/articles/2016/12/03/psx-2016-the-last-of-us-part-2-announced?read'
p1554
F2.142500613859853e-07
sS'http://www.ign.com/articles/?tags=screens'
p1555
F1.6893405653952395e-07
sS'https://www.youtube.com/testtube'
p1556
F1.3205478928980398e-06
sS'http://www.ign.com/blogs/simoncowellnetworth'
p1557
F2.2082774683283697e-07
sS'https://www.youtube.com/watch?v=V3b_-BrDPrM'
p1558
F1.6528650420949353e-07
sS'http://www.ign.com/articles/2016/11/28/final-fantasy-xv-review?read'
p1559
F2.1732991032263857e-07
sS'https://www.youtube.com/playlist?list=PLraFbwCoisJDGNMvYoK8UTa1LlMgUhY0U'
p1560
F1.7056421094621244e-07
sS'http://www.ign.com/articles/2016/12/06/rogue-one-director-gareth-edwards-on-which-other-star-wars-movie-hed-consider-making'
p1561
F2.1824681106716824e-07
sS'http://www.ign.com/blogs/ttdog666/2016/12/07/dec-7th-the-lost-guardian'
p1562
F2.1939583989329202e-07
sS'http://www.ign.com/boards/forums/lego.7888/'
p1563
F1.6330229041812673e-07
sS'http://www.ign.com/wikis/create?objectid=20060197'
p1564
F2.1043090783171898e-07
sS'https://twitter.com/IGN?lang=kn'
p1565
F2.5144551106349286e-07
sS'https://twitter.com/IGN?lang=ko'
p1566
F2.5144551106349286e-07
sS'https://www.youtube.com/watch?v=IUJrEBbtdkM'
p1567
F1.6632648190864822e-07
sS'http://www.pcmag.com/'
p1568
F3.1805157813314955e-06
sS'http://www.ign.com/videos/2015/06/26/gta-5-cinema-recreating-5-iconic-movie-scenes'
p1569
F3.0872456379557004e-07
sS'http://www.ign.com/articles/2016/12/08/these-90s-batmobile-and-batwing-toys-are-spot-on-animated-series-replicas?watch'
p1570
F2.7547568121557553e-07
sS'https://twitter.com/IGN/status/806967348842229760'
p1571
F2.754798530473025e-07
sS'http://www.ign.com/watch/ign-access'
p1572
F9.0628637053306e-06
sS'https://twitter.com/albinoalbert'
p1573
F2.2550405683207482e-07
sS'http://www.ign.com/games/resident-evil-7/xbox-one-20054863'
p1574
F3.3661403597210236e-07
sS'https://www.youtube.com/user/IGNentertainment/videos'
p1575
F1.92755268717486e-07
sS'http://www.ign.com/articles/2016/11/01/the-elder-scrolls-v-skyrim-special-edition-review'
p1576
F2.1930280356112964e-07
sS'http://www.ign.com/articles/2016/12/05/the-walking-dead-sing-me-a-song-review'
p1577
F4.3503952238158524e-07
sS'http://www.ign.com/boards/threads/will-i3-6100-and-gtx-1060-3gb-bottleneck.454894657/'
p1578
F1.6026750542214713e-07
sS'http://www.ign.com/wikis/the-last-guardian/Ign%3ANavigation'
p1579
F2.3879754335006233e-07
sS'http://www.ign.com/boards/threads/yu-gi-oh-community-thread-brooklyn-rage-edition.453251199/page-185'
p1580
F1.589922129917279e-07
sS'http://www.ign.com/cheats/games/steep-xbox-one-20054838'
p1581
F2.0561011941440185e-07
sS'http://www.ign.com/tech'
p1582
F2.542855136221773e-07
sS'https://twitter.com/Samuel_IGN/status/807023448153210880'
p1583
F2.6925238770496316e-07
sS'http://www.ign.com/boards/forums/pc.7203/index.rss'
p1584
F1.611851159508061e-07
sS'http://www.ign.com/games/assassins-creed-the-ezio-collection/xbox-one-20058807'
p1585
F2.2430370719704e-07
sS'https://twitter.com/FallonTonight'
p1586
F2.732448480703906e-07
sS'http://www.ign.com/wikis/steep'
p1587
F2.302179196940631e-07
sS'http://www.ign.com/articles/2016/12/08/south-park-the-end-of-serialization-as-we-know-it-review'
p1588
F5.284737709306394e-07
sS'http://it.ign.com/'
p1589
F3.577694449753359e-07
sS'http://www.ign.com/boards/forums/skateboarding.6295/'
p1590
F1.6331857793017586e-07
sS'http://www.ign.com/blogs/simoncowellnetworth/2016/12/08/know-about-the-simon-cowell-wiki'
p1591
F2.2082774683283697e-07
sS'http://www.ign.com/videos/2016/03/15/salt-and-sanctuary-official-landfall-trailer'
p1592
F2.2781717084835706e-07
sS'http://www.ign.com/trailers/spider-man-homecoming-trailer-coming-soon-tease'
p1593
F4.211998964956318e-07
sS'http://privacy.truste.com/privacy-seal/validation?rid=f216ea74-e272-46f4-b2a1-0db430ecb6b4'
p1594
F3.971409058701115e-07
sS'http://www.ign.com/articles/2016/12/01/are-guns-in-video-games-holding-the-medium-back'
p1595
F2.1937036102980968e-07
sS'http://www.ign.com/articles/2006/09/20/pokemon-mystery-dungeon-review'
p1596
F1.601653737207204e-07
sS'https://twitter.com/hashtag/UpAtNoon?src=hash'
p1597
F2.7884909537813974e-07
sS'http://www.ign.com/games/steep/pc-20054836'
p1598
F2.3028937733971463e-07
sS'https://www.youtube.com/channel/UCOpNcN46UbXVtpKMrmU4Abg'
p1599
F6.506582796292904e-07
sS'http://www.ign.com/boards/forums/movies-tv-and-tech.80003/'
p1600
F1.6440969651938788e-07
sS'https://www.youtube.com/watch?v=Pq15ludplTg&list=PLraFbwCoisJDZ8ZpheC4BOvxI2it'
p1601
F1.6528650420949353e-07
sS'http://www.ign.com/boards/recent-activity/'
p1602
F4.2624762882027075e-07
sS'http://www.ign.com/videos/games/resident-evil-7-xbox-one-20054863'
p1603
F2.097308160010653e-07
sS'http://www.ign.com/wikis/the-elder-scrolls-5-skyrim/Things_Not_to_Do_in_Skyrim'
p1604
F1.643894610734834e-07
sS'http://www.ign.com/videos/2016/12/08/naomi-plays-live-dead-rising-4'
p1605
F5.522537398333249e-07
sS'http://www.ign.com/games/star-wars-battlefront-vr-experience/ps4-20050948'
p1606
F4.190125305010437e-07
sS'https://www.youtube.com/watch?v=Pq15ludplTg'
p1607
F1.6528650420949353e-07
sS'http://www.ign.com/blogs/mich-streams'
p1608
F2.2015528518725474e-07
sS'http://subscribe.ign.com/?utm_source=daily-deals&utm_medium=blackfriday2016sweeps'
p1609
F2.913034912827687e-07
sS'http://hu.ign.com/'
p1610
F3.577694449753359e-07
sS'http://www.ign.com/blogs/jasonstanley2e/2016/12/07/scratch-map'
p1611
F2.2055137156321407e-07
sS'http://www.ign.com/articles/2016/09/07/super-mario-run-coming-to-ios'
p1612
F2.3139997958380785e-07
sS'http://www.ign.com/articles/2016/10/07/nycc-2016-cosplay-overwatch-zeldas-skull-kid-and-more?watch'
p1613
F1.6021635565871905e-07
sS'http://www.ign.com/wikis/black-friday-cyber-monday/Microsoft_Store_Black_Friday_2016_Deals'
p1614
F2.1839126368961358e-07
sS'https://www.youtube.com/watch?v=wZac0gK55YA'
p1615
F1.6930935434691416e-07
sS'http://www.ign.com/boards/forums/dragon-age.7686/'
p1616
F1.6327896863020978e-07
sS'https://www.youtube.com/watch?v=sLT0aAguUmw'
p1617
F1.939892816111494e-07
sS'https://twitter.com/IGN/with_replies'
p1618
F2.6197787500238603e-07
sS'http://www.ign.com/wikis/fallout-4'
p1619
F2.398855785629666e-07
sS'http://www.ign.com/articles/2016/10/25/world-of-final-fantasy-review?watch'
p1620
F2.198005715432245e-07
sS'https://twitter.com/intent/tweet?url=http%3A%2F%2Fwww.ign.com%2Fblogs%2Fshmuga9%2F2016%2F12%2F06%2Fjust-another-castle-79-whats-a-zelda&text=Just%20Another%20Castle%20%2379%20-%20What%27s%20a%20Zelda%3F%20via%20%40ign%20%23e3&original_referer='
p1621
F1.5758296086690262e-07
sS'http://www.ign.com/videos/2016/11/29/star-wars-the-best-and-worst-movies-in-the-skywalker-saga'
p1622
F1.0016750019644992e-06
sS'http://www.ign.com/wikis/final-fantasy-15/Things_To_Do_First'
p1623
F9.65444440619406e-07
sS'http://www.ign.com/articles/2016/05/10/the-13-biggest-video-games-that-never-came-out'
p1624
F2.2198732981766914e-07
sS'http://www.ign.com/articles/2016/12/06/pokemon-go-will-reportedly-get-new-monsters-this-week'
p1625
F2.2574737182754636e-07
sS'https://www.youtube.com/watch?v=SK50YoUcFhA'
p1626
F1.6672225398435392e-07
sS'http://www.ign.com/boards/forums/half-life.5220/'
p1627
F1.6330765157688e-07
sS'https://www.youtube.com/watch?v=7VXlFF6Uw14'
p1628
F1.6528650420949353e-07
sS'http://www.ign.com/wikis/pokemon-sun-pokemon-moon/New_Game_Mechanics_and_Features'
p1629
F2.3807290951300527e-07
sS'https://www.youtube.com/watch?v=RoI2weCsLbQ'
p1630
F1.6528650420949353e-07
sS'http://www.ign.com/boards/threads/%C2%BB%C2%BB-the-official-theres-only-krane-here-now-so-dont-be-terrible-community-thread-%C2%AB%C2%AB.454533232/page-193'
p1631
F1.5832133923918245e-07
sS'http://www.ign.com/boards/forums/apple-board.5146/'
p1632
F1.6534878343147108e-07
sS'http://www.ign.com/ps4'
p1633
F9.067159634837094e-06
sS'http://www.ign.com/games/treasurenauts/3ds-20006033'
p1634
F2.2557066575926784e-07
sS'http://www.ign.com/videos/2016/12/08/spider-man-homecoming-trailer-coming-soon-tease'
p1635
F2.4108992411945526e-06
sS'http://www.ign.com/videos/2016/12/08/kingdom-hearts-hd-28-final-chapter-prologue-final-trailer'
p1636
F6.794820548416897e-07
sS'http://www.ign.com/articles/2016/12/08/3-things-we-learned-about-nintendo-switch-last-night'
p1637
F5.1929564918834925e-06
sS'http://www.ign.com/videos/games/halo-wars-definitive-edition-pc-20054810'
p1638
F2.0918457385374292e-07
sS'http://www.ign.com/games/the-dwarves/pc-20040456'
p1639
F2.170283936843865e-07
sS'http://www.ign.com/wikis/final-fantasy-15/Side_Quests'
p1640
F1.0420012170306224e-06
sS'http://www.ign.com/videos/2015/08/28/15-best-selling-video-games-of-all-time'
p1641
F3.088247628045492e-07
sS'http://www.ign.com/games/reviews/ps4'
p1642
F2.138639347631491e-07
sS'http://www.ign.com/wikis/playstation-4/PlayStation_VR_Games_Listed_by_Motion_Sickness_Potential'
p1643
F2.204669502602693e-07
sS'http://www.ign.com/articles/2016/09/07/super-mario-run-coming-to-ios?read'
p1644
F2.2121482570837957e-07
sS'http://www.ign.com/videos/2016/12/08/the-last-of-us-part-2-theory-analysis-and-details-you-might-have-missed'
p1645
F4.422216812271514e-07
sS'http://www.ign.com/articles/2016/11/28/final-fantasy-xv-review?watch'
p1646
F2.1732991032263857e-07
sS'https://twitter.com/jose_otero'
p1647
F1.7400150569288958e-07
sS'http://www.ign.com/cheats/games/steep-ps4-20054837'
p1648
F2.0532328209931213e-07
sS'http://www.ign.com/boards/forums/metal-gear-solid.5200/'
p1649
F1.6328917504277628e-07
sS'http://in.ign.com/'
p1650
F3.0023088789474644e-07
sS'http://www.ign.com/boards/forums/devil-may-cry.5258/'
p1651
F1.63291765864309e-07
sS'https://pbs.twimg.com/profile_images/724799759609815040/zzVPCkVi.jpg'
p1652
F3.1250509409137683e-07
sS'https://www.youtube.com/watch?v=xbZ0QhPeGms'
p1653
F1.8534391752329723e-07
sS'https://twitter.com/IGN?lang=de'
p1654
F2.5144551106349286e-07
sS'http://www.ign.com/boards/threads/the-knicks-play-the-cavs-next-week-put-a-lot-of-stock-into-that-game.454892127/'
p1655
F1.594457245777363e-07
sS'http://www.ign.com/videos/2016/11/08/infamous-second-son-graphics-comparison-ps4-pro-vs-ps4'
p1656
F2.1471432208392276e-07
sS'https://twitter.com/IGN?lang=da'
p1657
F2.5144551106349286e-07
sS'http://www.ign.com/articles/2016/12/08/future-pokemon-go-update-to-add-shiny-pokemon-and-more'
p1658
F2.209593860920293e-07
sS'http://www.ign.com/boards/forums/harvest-moon.5828/'
p1659
F1.6329963478930668e-07
sS'http://www.ign.com/videos/games/strafe-ps4-20062341'
p1660
F2.0322686404818575e-07
sS'http://www.ign.com/games/pox-nora/vita-20055025'
p1661
F2.191959755792822e-07
sS'https://twitter.com/EchoK'
p1662
F2.6935357092460845e-07
sS'http://www.ign.com/blogs/jeriahking'
p1663
F2.2062567260453372e-07
sS'http://www.ign.com/movies/reviews'
p1664
F2.5952563171701215e-07
sS'http://www.ign.com/boards/forums/pc.7203/'
p1665
F1.6445196751536244e-07
sS'http://www.ign.com/videos/2016/07/13/pokemon-go-the-smartest-way-to-spend-10'
p1666
F2.2914075663402572e-07
sS'http://www.ign.com/boards/threads/pro-wrestling-board-fantasy-league-season-xv-anime-season.454876396/page-4'
p1667
F1.5918711040499185e-07
sS'http://www.ign.com/videos/2016/12/08/aqua-moto-racing-utopia-official-launch-trailer'
p1668
F2.3198832066764365e-07
sS'http://www.ign.com/videos/2016/12/02/dragon-ball-super-dub-clip-goku-and-king-kai'
p1669
F2.1803053708955477e-07
sS'http://www.ign.com/boards/forums/wikis-discussion.5030/index.rss'
p1670
F1.6190820893842416e-07
sS'http://www.ign.com/cheats/games/sword-art-online-hollow-realization-ps4-20025059'
p1671
F2.0350823353032632e-07
sS'http://www.ign.com/games/escape-from-tarkov/pc-20046164'
p1672
F2.2022115301718717e-07
sS'https://twitter.com/IGN/status/806921316775301121'
p1673
F1.6842492224135202e-07
sS'https://twitter.com/hashtag/NintendoSwitch?src=hash'
p1674
F2.711346717855986e-07
sS'http://www.ign.com/games/upcoming/pc'
p1675
F2.3190229302060716e-07
sS'http://www.ign.com/videos/2016/02/19/back-to-the-future-prequel-fan-made-trailer-121-gigawatts'
p1676
F3.0877416876927343e-07
sS'http://www.ziffdavis.com/'
p1677
F9.316049243544623e-06
sS'http://www.ign.com/articles/2016/11/15/justice-league-dark-trailer-debut-for-r-rated-dc-animated-movie'
p1678
F2.756092164078445e-07
sS'http://gr.ign.com/'
p1679
F3.577694449753359e-07
sS'http://www.ign.com/articles/2016/11/30/oculus-co-founder-traditional-console-games-will-be-around-for-a-long-time-a-ign-unfiltered?watch'
p1680
F1.5993746074878055e-07
sS'http://www.ign.com/wikis/watch-dogs-2'
p1681
F2.7167118282569936e-07
sS'http://www.ign.com/articles/2016/12/09/spider-man-homecoming-star-tom-holland-calls-vultures-debut-like-a-horror-movie?abthid=584a07217bb8cf2b2000002e&read'
p1682
F2.69200079808042e-07
sS'http://www.ign.com/blogs/clinta13'
p1683
F2.1868960903599344e-07
sS'http://www.ign.com/articles/2015/12/31/final-fantasy-ix-announced-for-pc-and-mobile-in-japan'
p1684
F2.2014548845379924e-07
sS'http://www.ign.com/articles/2016/09/24/iphone-7-plus-review'
p1685
F2.2155237932495378e-07
sS'http://www.ign.com/boards/forums/other-sports.10753/'
p1686
F1.655029272139256e-07
sS'http://www.ign.com/boards/threads/have-you-ever-seen-disney-cartoons-in-terminator-version.454853929/'
p1687
F1.6087802334609769e-07
sS'http://www.ign.com/wikis/game-of-thrones/Season_6_Differences'
p1688
F2.3834627345427144e-07
sS'https://accounts.google.com/ServiceLogin?continue=https%3A%2F%2Fwww.youtube.com%2Fsignin%3Fnext%3D%252Fign%26feature%3Dplaylist%26action_handle_signin%3Dtrue%26app%3Ddesktop%26hl%3Den&passive=true&service=youtube&uilel=3&hl=en'
p1689
F1.5923045743319588e-07
sS'https://www.youtube.com/yt/about/'
p1690
F1.3205478928980398e-06
sS'https://www.youtube.com/watch?v=7ma7vjHo0jo'
p1691
F1.6528650420949353e-07
sS'http://www.ign.com/boards/forums/dragon-ball.5653/'
p1692
F1.632866000523857e-07
sS'https://www.youtube.com/watch?v=iVmqMe9Hpso&list=PLraFbwCoisJDET9N2S4Edc6UYR5WHq-fN'
p1693
F1.6903126456565536e-07
sS'http://www.ign.com/wikis/the-elder-scrolls-5-skyrim'
p1694
F2.5099366990546135e-07
sS'http://www.ign.com/boards/forums/halo.5240/'
p1695
F1.6329699558839648e-07
sS'https://support.twitter.com/articles/78525'
p1696
F1.6449443156087154e-07
sS'https://twitter.com/'
p1697
F4.3487901244163816e-07
sS'http://www.ign.com/articles/2016/12/05/westworld-the-bicameral-mind-review?read'
p1698
F2.1812793155055942e-07
sS'https://www.youtube.com/watch?v=gVLnNm85W4s'
p1699
F1.928378767907595e-07
sS'http://www.ign.com/articles?tags=preview'
p1700
F1.6893405653952395e-07
sS'http://www.ign.com/videos/2016/12/03/watch-party-flcl-episodes-5-and-6'
p1701
F3.1865150847166397e-07
sS'https://www.youtube.com/channel/UCTqWN7lps75nnS07twBfVhw'
p1702
F1.8919897446570524e-07
sS'https://www.youtube.com/playlist?list=PLraFbwCoisJAzl1QlMD8ZT-sesYJyo041'
p1703
F1.6925209541689994e-07
sS'https://twitter.com/intent/tweet?url=http%3A%2F%2Fwww.ign.com%2Fblogs%2Fmaillink2016%2F2016%2F12%2F07%2Fpeople-know-that-who-im&text=People%20Know%20That%20Who%20I%27m.....%20via%20%40ign%20%23e3&original_referer='
p1704
F1.5758296086690262e-07
sS'http://www.ign.com/videos/2016/11/03/a-big-westworld-theory-is-looking-more-likely'
p1705
F2.4962412244359534e-07
sS'http://www.ign.com/blogs/chromaticsparks/2015/11/06/top-video-game-spies'
p1706
F2.1767319219570646e-07
sS'http://www.ign.com/articles/2016/10/15/eve-valkyrie-review'
p1707
F2.552874245039623e-07
sS'http://www.ign.com/games/sword-art-online-hollow-realization/ps4-20025059'
p1708
F2.130674469378777e-07
sS'http://www.ign.com/articles/2016/12/02/the-dwarves-review'
p1709
F6.34322513076131e-07
sS'http://www.ign.com/games/reviews'
p1710
F9.0628637053306e-06
sS'http://www.ign.com/blogs/pacquiaovsvargas/2016/12/06/13th-fina-world-swimming-championships-25m-2016-live-swimming-events-online-tv-score-schedule-preview-2016'
p1711
F2.204494798622742e-07
sS'http://www.ign.com/boards/forums/site-prime-article-comments-blog-myign-issues.9117/'
p1712
F1.652379905296653e-07
sS'http://www.ign.com/boards/forums/tiger-woods-golf.6470/'
p1713
F1.633022904181267e-07
sS'http://www.ign.com/games'
p1714
F2.161280254531218e-07
sS'http://www.ign.com/videos/2016/12/03/the-new-halo-tv-series-is-a-smart-move-unlocked'
p1715
F3.4083337875088437e-07
sS'http://www.ign.com/videos/2016/03/23/dark-souls-prepare-to-try-episode-6-blighttown'
p1716
F3.5367323522692934e-07
sS'http://www.ign.com/articles/2016/05/05/top-10-secret-bosses-in-video-games'
p1717
F2.2120725957579883e-07
sS'http://www.ign.com/boards/forums/mario-kart.5984/'
p1718
F1.633022904181267e-07
sS'http://www.ign.com/articles/2016/10/12/tumble-vr-review'
p1719
F2.2373194416199173e-07
sS'http://www.ign.com/boards/forums/baseball.5104/'
p1720
F1.6360140665023162e-07
sS'http://www.ign.com/boards/forums/runescape.8375/'
p1721
F1.6329176586430903e-07
sS'https://twitter.com/tos?lang=en'
p1722
F1.6009249761025675e-07
sS'http://www.ign.com/videos/games/ys-origin-ps4-20062330'
p1723
F2.0999929100932318e-07
sS'http://www.ign.com/articles/2016/11/23/ign-anime-club-episode-73-anime-episodes-were-thankful-for?watch'
p1724
F1.5987672922463268e-07
sS'http://www.ign.com/boards/forums/red-dead-redemption.6186/'
p1725
F1.633022904181267e-07
sS'http://www.ign.com/articles/2016/11/10/pokemon-sun-and-moon-everything-you-need-to-know'
p1726
F2.8859726662498677e-07
sS'https://twitter.com/IGN?lang=bg'
p1727
F2.5144551106349286e-07
sS'http://www.ign.com/boards/categories/gamespy.80130/'
p1728
F1.6706210466866263e-07
sS'http://www.ign.com/games/danganronpa-v3/ps4-20042906'
p1729
F2.159732441649535e-07
sS'http://www.ign.com/boards/forums/movies.8275/index.rss'
p1730
F1.6165646321163662e-07
sS'http://www.ign.com/boards/forums/the-sims.5219/'
p1731
F1.63291765864309e-07
sS'https://www.youtube.com/watch?v=4Nn4qmHg6lM'
p1732
F1.6822641696489775e-07
sS'http://www.ign.com/videos/2016/12/08/baywatch-official-teaser-trailer'
p1733
F3.934091004546178e-07
sS'http://www.ign.com/boards/threads/thread-sign-up-and-ct-reference.454431239/page-7'
p1734
F1.5815385167388649e-07
sS'http://www.ign.com/articles/2016/04/01/mlb-the-show-16-review'
p1735
F2.21846884939371e-07
sS'http://www.ign.com/videos/2016/12/02/star-wars-battlefront-rogue-one-x-wing-vr-full-mission-gameplay'
p1736
F5.825675890974873e-07
sS'http://www.ign.com/articles/2016/06/22/hunt-for-the-wilderpeople-review'
p1737
F2.042289034515871e-07
sS'http://www.ign.com/wikis/gta-5/Assassination_Investor'
p1738
F1.0091772567024557e-06
sS'http://www.ign.com/articles/2016/12/03/psx-2016-the-last-of-us-part-2-announced?watch'
p1739
F2.142500613859853e-07
sS'https://www.youtube.com/watch?v=KisPHmxD7tQ'
p1740
F1.709499590500796e-07
sS'http://www.ign.com/blogs/jr8zeppelin'
p1741
F2.1914585425230647e-07
sS'http://www.ign.com/boards/forums/sly-cooper.6301/'
p1742
F1.633022904181267e-07
sS'https://www.youtube.com/watch?v=ol7Pu4fr2z0'
p1743
F1.7994881621407608e-07
sS'https://www.youtube.com/watch?v=5RW5atb6Gmo'
p1744
F1.7328152003819394e-07
sS'http://www.ign.com/boards/threads/what-books-are-you-reading-now.453885641/page-12'
p1745
F1.5852462937401034e-07
sS'http://www.ign.com/games/mario-maker/3ds-20058267'
p1746
F2.178684030679212e-07
sS'http://www.ign.com/wikis/create?objectid=20025059'
p1747
F2.063483383418659e-07
sS'https://www.youtube.com/watch?v=tdaPm24dcy4'
p1748
F1.6913634557681612e-07
sS'http://www.ign.com/games/gigantic/pc-20021620'
p1749
F2.264041476155254e-07
sS'http://www.ign.com/videos/2016/12/06/join-the-ghost-recon-wildlands-beta-ign-daily-fix'
p1750
F4.809450701230807e-07
sS'http://www.ign.com/games/death-stranding/ps4-20047134'
p1751
F1.7898480318842252e-07
sS'http://www.ign.com/boards/forums/college-football.8546/'
p1752
F1.6408947957553427e-07
sS'http://www.ign.com/trailers/dragon-ball-z-resurrection-f-official-trailer'
p1753
F4.211998964956318e-07
sS'http://www.ign.com/boards/forums/jak-and-daxter.5885/'
p1754
F1.6329176586430903e-07
sS'http://www.ign.com/wikis/ign-community-central/Beginner_Tips_for_Writing'
p1755
F2.2347496633180598e-07
s.