(dp0
S'https://www.reddit.com/r/Art/'
p1
(lp2
Vhttps://www.reddit.com/r/Art/#content
p3
aVhttps://www.reddit.com/r/announcements/
p4
aVhttps://www.reddit.com/r/Art/
p5
aVhttps://www.reddit.com/r/AskReddit/
p6
aVhttps://www.reddit.com/r/askscience/
p7
aVhttps://www.reddit.com/r/aww/
p8
aVhttps://www.reddit.com/r/blog/
p9
aVhttps://www.reddit.com/r/books/
p10
aVhttps://www.reddit.com/r/creepy/
p11
aVhttps://www.reddit.com/r/dataisbeautiful/
p12
aVhttps://www.reddit.com/r/DIY/
p13
aVhttps://www.reddit.com/r/Documentaries/
p14
aVhttps://www.reddit.com/r/EarthPorn/
p15
aVhttps://www.reddit.com/r/explainlikeimfive/
p16
aVhttps://www.reddit.com/r/food/
p17
aVhttps://www.reddit.com/r/funny/
p18
aVhttps://www.reddit.com/r/Futurology/
p19
aVhttps://www.reddit.com/r/gadgets/
p20
aVhttps://www.reddit.com/r/gaming/
p21
aVhttps://www.reddit.com/r/GetMotivated/
p22
aVhttps://www.reddit.com/r/gifs/
p23
aVhttps://www.reddit.com/r/history/
p24
aVhttps://www.reddit.com/r/IAmA/
p25
aVhttps://www.reddit.com/r/InternetIsBeautiful/
p26
aVhttps://www.reddit.com/r/Jokes/
p27
aVhttps://www.reddit.com/r/LifeProTips/
p28
aVhttps://www.reddit.com/r/listentothis/
p29
aVhttps://www.reddit.com/r/mildlyinteresting/
p30
aVhttps://www.reddit.com/r/movies/
p31
aVhttps://www.reddit.com/r/Music/
p32
aVhttps://www.reddit.com/r/news/
p33
aVhttps://www.reddit.com/r/nosleep/
p34
aVhttps://www.reddit.com/r/nottheonion/
p35
aVhttps://www.reddit.com/r/OldSchoolCool/
p36
aVhttps://www.reddit.com/r/personalfinance/
p37
aVhttps://www.reddit.com/r/philosophy/
p38
aVhttps://www.reddit.com/r/photoshopbattles/
p39
aVhttps://www.reddit.com/r/pics/
p40
aVhttps://www.reddit.com/r/science/
p41
aVhttps://www.reddit.com/r/Showerthoughts/
p42
aVhttps://www.reddit.com/r/space/
p43
aVhttps://www.reddit.com/r/sports/
p44
aVhttps://www.reddit.com/r/television/
p45
aVhttps://www.reddit.com/r/tifu/
p46
aVhttps://www.reddit.com/r/todayilearned/
p47
aVhttps://www.reddit.com/r/TwoXChromosomes/
p48
aVhttps://www.reddit.com/r/UpliftingNews/
p49
aVhttps://www.reddit.com/r/videos/
p50
aVhttps://www.reddit.com/r/worldnews/
p51
aVhttps://www.reddit.com/r/WritingPrompts/
p52
aVhttps://www.reddit.com/subreddits/
p53
aVhttps://www.reddit.com/
p54
aVhttps://www.reddit.com/r/all/
p55
aVhttps://www.reddit.com/r/random/
p56
aVhttps://www.reddit.com/r/AskReddit/
p57
aVhttps://www.reddit.com/r/funny/
p58
aVhttps://www.reddit.com/r/gaming/
p59
aVhttps://www.reddit.com/r/todayilearned/
p60
aVhttps://www.reddit.com/r/pics/
p61
aVhttps://www.reddit.com/r/videos/
p62
aVhttps://www.reddit.com/r/IAmA/
p63
aVhttps://www.reddit.com/r/gifs/
p64
aVhttps://www.reddit.com/r/worldnews/
p65
aVhttps://www.reddit.com/r/news/
p66
aVhttps://www.reddit.com/r/aww/
p67
aVhttps://www.reddit.com/r/announcements/
p68
aVhttps://www.reddit.com/r/movies/
p69
aVhttps://www.reddit.com/r/Showerthoughts/
p70
aVhttps://www.reddit.com/r/Jokes/
p71
aVhttps://www.reddit.com/r/mildlyinteresting/
p72
aVhttps://www.reddit.com/r/television/
p73
aVhttps://www.reddit.com/r/Futurology/
p74
aVhttps://www.reddit.com/r/OldSchoolCool/
p75
aVhttps://www.reddit.com/r/explainlikeimfive/
p76
aVhttps://www.reddit.com/r/food/
p77
aVhttps://www.reddit.com/r/nottheonion/
p78
aVhttps://www.reddit.com/r/science/
p79
aVhttps://www.reddit.com/r/space/
p80
aVhttps://www.reddit.com/r/books/
p81
aVhttps://www.reddit.com/r/UpliftingNews/
p82
aVhttps://www.reddit.com/r/LifeProTips/
p83
aVhttps://www.reddit.com/r/tifu/
p84
aVhttps://www.reddit.com/r/TwoXChromosomes/
p85
aVhttps://www.reddit.com/r/sports/
p86
aVhttps://www.reddit.com/r/WritingPrompts/
p87
aVhttps://www.reddit.com/r/Art/
p88
aVhttps://www.reddit.com/r/Music/
p89
aVhttps://www.reddit.com/r/Documentaries/
p90
aVhttps://www.reddit.com/r/EarthPorn/
p91
aVhttps://www.reddit.com/r/personalfinance/
p92
aVhttps://www.reddit.com/r/nosleep/
p93
aVhttps://www.reddit.com/r/photoshopbattles/
p94
aVhttps://www.reddit.com/r/dataisbeautiful/
p95
aVhttps://www.reddit.com/r/askscience/
p96
aVhttps://www.reddit.com/r/creepy/
p97
aVhttps://www.reddit.com/r/GetMotivated/
p98
aVhttps://www.reddit.com/r/DIY/
p99
aVhttps://www.reddit.com/r/history/
p100
aVhttps://www.reddit.com/r/gadgets/
p101
aVhttps://www.reddit.com/r/listentothis/
p102
aVhttps://www.reddit.com/r/InternetIsBeautiful/
p103
aVhttps://www.reddit.com/r/philosophy/
p104
aVhttps://www.reddit.com/r/blog/
p105
aVhttps://www.reddit.com/subreddits/
p106
aVhttps://www.reddit.com/
p107
aVhttps://www.reddit.com/r/Art/
p108
aVhttps://www.reddit.com/r/Art/
p109
aVhttps://www.reddit.com/r/Art/new/
p110
aVhttps://www.reddit.com/r/Art/rising/
p111
aVhttps://www.reddit.com/r/Art/controversial/
p112
aVhttps://www.reddit.com/r/Art/top/
p113
aVhttps://www.reddit.com/r/Art/gilded/
p114
aVhttps://www.reddit.com/r/Art/wiki/
p115
aVhttps://www.reddit.com/r/Art/ads/
p116
aVhttps://www.reddit.com/login
p117
aVjavascript:void(0)
p118
aVhttps://www.reddit.com/wiki/search
p119
aVhttps://www.reddit.com/wiki/search
p120
aVhttps://www.reddit.com/password
p121
aVhttps://www.reddit.com/r/Art/submit
p122
aVhttps://www.reddit.com/r/Art/submit?selftext=true
p123
aVhttps://www.reddit.com/r/Art/
p124
aS'https://www.reddit.com/r/Art/'
p125
aS'https://www.reddit.com/r/Art/'
p126
aVhttp://www.reddit.com/r/Artstore
p127
aVhttps://www.reddit.com/r/art
p128
aVhttps://www.reddit.com/r/Art/wiki/index
p129
aVhttps://www.reddit.com/r/Art/wiki/title_formatting_faq
p130
aVhttps://www.reddit.com/r/IDAP
p131
aVhttps://www.reddit.com/r/sketches
p132
aVhttps://www.reddit.com/r/doodles
p133
aVhttp://i.imgur.com/veZGWWg.jpg
p134
aVhttps://www.reddit.com/r/artstore
p135
aVhttps://www.reddit.com/r/designjobs
p136
aVhttps://www.reddit.com/r/artisangifts
p137
aVhttps://www.reddit.com/wiki/reddiquette
p138
aVhttps://www.reddit.com/r/IDAP
p139
aVhttp://www.reddit.com/r/Art/wiki/related
p140
aVhttp://www.reddit.com/r/art/wiki/fan_art
p141
aVhttps://www.reddit.com/r/fanart
p142
aVhttps://www.reddit.com/r/graphicnovels
p143
aVhttps://www.reddit.com/r/webcomics
p144
aVhttps://www.reddit.com/r/comics
p145
aVhttp://www.reddit.com/r/Art/comments/vqrvc/introducing_flair_for_rart/
p146
aVhttps://www.reddit.com/r/art
p147
aVhttp://www.reddit.com/message/compose?to=%2Fr%2FArt
p148
aVhttp://www.reddit.com/message/compose?to=%2Fr%2FArt
p149
aVhttps://www.reddit.com/r/Art/wiki/index
p150
aVhttp://www.reddit.com/r/Art/wiki/related
p151
aVhttp://www.reddit.com/r/Art/comments/x2q99/share_your_artist_life_hacks/
p152
aVhttp://vimeo.com/23748913
p153
aVhttp://webchat.snoonet.org/art
p154
aVhttps://www.reddit.com/wiki/reddit_101
p155
aVhttp://www.reddit.com/r/Art/submit?title=Title,%20Medium,%20Size
p156
aVhttp://www.reddit.com/r/Art/submit?title=Title,%20Artist,%20Medium,%20Year
p157
aVhttp://www.reddit.com/r/Art/submit?title=Title,%20Year
p158
aVhttp://www.reddit.com/r/Art/submit?selftext=true
p159
aVhttps://www.reddit.com/message/compose?to=%2Fr%2FArt
p160
aVhttps://www.reddit.com/user/Thumperings
p161
aVhttps://www.reddit.com/user/saucemoney
p162
aVhttps://www.reddit.com/user/AnthropomorphizedHat
p163
aVhttps://www.reddit.com/user/preggit
p164
aVhttps://www.reddit.com/user/Quietuus
p165
aVhttps://www.reddit.com/user/powderdd
p166
aVhttps://www.reddit.com/user/Respectfullyyours
p167
aVhttps://www.reddit.com/user/IranianGenius
p168
aVhttps://www.reddit.com/user/neodiogenes
p169
aVhttps://www.reddit.com/user/ArtModerator
p170
aVhttps://www.reddit.com/r/Art/about/moderators
p171
aVhttps://www.reddit.com/newsletter
p172
aS'https://www.reddit.com/r/Art/'
p173
aVhttps://www.reddit.com/wiki/selfserve
p174
aVhttps://www.reddit.com/advertising
p175
aVhttps://www.reddit.com/r/ads
p176
aVhttps://www.reddit.com/subreddits/
p177
aVhttp://imgur.com/jcNDoff
p178
aVhttp://imgur.com/jcNDoff
p179
aVhttps://www.reddit.com/domain/imgur.com/
p180
aVhttps://www.reddit.com/user/chickster01
p181
aVhttps://www.reddit.com/r/Art/comments/5fwn46/beyond_lonely_by_tysonwh/
p182
aVjavascript: void 0;
p183
aVhttp://i.imgur.com/aUXBO9q.jpg
p184
aVhttp://i.imgur.com/aUXBO9q.jpg
p185
aVhttps://www.reddit.com/domain/i.imgur.com/
p186
aVhttps://www.reddit.com/user/nawab34
p187
aVhttps://www.reddit.com/r/Art/comments/5fv14x/the_station_by_\u6d41\u6d6a\u6c49lzy_digital_2015/
p188
aVjavascript: void 0;
p189
aVhttp://imgur.com/QkU8VkB
p190
aVhttp://imgur.com/QkU8VkB
p191
aVhttps://www.reddit.com/domain/imgur.com/
p192
aVhttps://www.reddit.com/user/Simths
p193
aVhttps://www.reddit.com/r/Art/comments/5fwzdi/yuki_2016_picsart/
p194
aVjavascript: void 0;
p195
aVhttps://i.reddituploads.com/cd17bc757cef4129bb880c364b1d81c3?fit=max&h=1536&w=1536&s=fe548da21f4fe7ec19541d9f7431ba34
p196
aVhttps://i.reddituploads.com/cd17bc757cef4129bb880c364b1d81c3?fit=max&h=1536&w=1536&s=fe548da21f4fe7ec19541d9f7431ba34
p197
aVhttps://www.reddit.com/domain/i.reddituploads.com/
p198
aVhttps://www.reddit.com/user/emilypaints
p199
aVhttps://www.reddit.com/r/Art/comments/5fyymf/collection_of_my_paintings_acrylic_on_canvas/
p200
aVjavascript: void 0;
p201
aVhttps://www.reddit.com/r/Art/comments/5g01mv/super_moon_with_snow/
p202
aVhttps://www.reddit.com/r/Art/comments/5g01mv/super_moon_with_snow/
p203
aVhttps://www.reddit.com/domain/i.redd.it/
p204
aVhttps://www.reddit.com/user/mr_bill_artist
p205
aVhttps://www.reddit.com/r/Art/comments/5g01mv/super_moon_with_snow/
p206
aVjavascript: void 0;
p207
aVhttp://imgur.com/G3fJdQY
p208
aVhttp://imgur.com/G3fJdQY
p209
aVhttps://www.reddit.com/domain/imgur.com/
p210
aVhttps://www.reddit.com/user/Shannon121
p211
aVhttps://www.reddit.com/r/Art/comments/5fu35l/3d_skull_illusion_bored_panda_3d_art_2016/
p212
aVjavascript: void 0;
p213
aVhttps://i.reddituploads.com/b8864abc88b1461596ec874dfb016d2c?fit=max&h=1536&w=1536&s=c68e7b1447019f03c2ee1b3e4b1bf10a
p214
aVhttps://i.reddituploads.com/b8864abc88b1461596ec874dfb016d2c?fit=max&h=1536&w=1536&s=c68e7b1447019f03c2ee1b3e4b1bf10a
p215
aVhttps://www.reddit.com/domain/i.reddituploads.com/
p216
aVhttps://www.reddit.com/user/3crownking
p217
aVhttps://www.reddit.com/r/Art/comments/5fzwjv/youve_got_red_on_you_watercolor_and_ink/
p218
aVjavascript: void 0;
p219
aVhttps://www.reddit.com/r/Art/comments/5fy6ev/a_place_among_the_stars_in_1920x1080/
p220
aVhttps://www.reddit.com/r/Art/comments/5fy6ev/a_place_among_the_stars_in_1920x1080/
p221
aVhttps://www.reddit.com/domain/i.redd.it/
p222
aVhttps://www.reddit.com/user/johnwoo123
p223
aVhttps://www.reddit.com/r/Art/comments/5fy6ev/a_place_among_the_stars_in_1920x1080/
p224
aVjavascript: void 0;
p225
aVhttp://imgur.com/d9uuGv4
p226
aVhttp://imgur.com/d9uuGv4
p227
aVhttps://www.reddit.com/domain/imgur.com/
p228
aVhttps://www.reddit.com/user/Pm_me_pigs_plz
p229
aVhttps://www.reddit.com/r/Art/comments/5fxwbt/sky_fire_watercolor_5x7/
p230
aVjavascript: void 0;
p231
aVhttp://imgur.com/IERFvNM
p232
aVhttp://imgur.com/IERFvNM
p233
aVhttps://www.reddit.com/domain/imgur.com/
p234
aVhttps://www.reddit.com/user/Herbaderbasherb
p235
aVhttps://www.reddit.com/r/Art/comments/5fqxuz/self_portrait_sculpture/
p236
aVjavascript: void 0;
p237
aVhttps://i.reddituploads.com/20f9f1d49b964998b609d18312554474?fit=max&h=1536&w=1536&s=098d4f4dcfc76f1ef12043f86d57f14b
p238
aVhttps://i.reddituploads.com/20f9f1d49b964998b609d18312554474?fit=max&h=1536&w=1536&s=098d4f4dcfc76f1ef12043f86d57f14b
p239
aVhttps://www.reddit.com/domain/i.reddituploads.com/
p240
aVhttps://www.reddit.com/user/urfatuglymom
p241
aVhttps://www.reddit.com/r/Art/comments/5g0rrm/oc_drawing_of_my_gf/
p242
aVjavascript: void 0;
p243
aVhttp://i.imgur.com/izmeI9a.jpg
p244
aVhttp://i.imgur.com/izmeI9a.jpg
p245
aVhttps://www.reddit.com/domain/i.imgur.com/
p246
aVhttps://www.reddit.com/user/E-Pluribus-Tobin
p247
aVhttps://www.reddit.com/r/Art/comments/5fysl3/mike_ermagerdtraut_digital_5x7/
p248
aVjavascript: void 0;
p249
aVhttps://www.reddit.com/r/Art/comments/5fzggl/vermin_supreme_digital/
p250
aVhttps://www.reddit.com/r/Art/comments/5fzggl/vermin_supreme_digital/
p251
aVhttps://www.reddit.com/domain/i.redd.it/
p252
aVhttps://www.reddit.com/user/Hulk829
p253
aVhttps://www.reddit.com/r/Art/comments/5fzggl/vermin_supreme_digital/
p254
aVjavascript: void 0;
p255
aVhttp://i.imgur.com/86LmFQD.jpg
p256
aVhttp://i.imgur.com/86LmFQD.jpg
p257
aVhttps://www.reddit.com/domain/i.imgur.com/
p258
aVhttps://www.reddit.com/user/AnotherAlex94
p259
aVhttps://www.reddit.com/r/Art/comments/5g0xyd/self_portrait_charcoal_11_x_14/
p260
aVjavascript: void 0;
p261
aVhttp://i.imgur.com/Q4Vmfsh.jpg
p262
aVhttp://i.imgur.com/Q4Vmfsh.jpg
p263
aVhttps://www.reddit.com/domain/i.imgur.com/
p264
aVhttps://www.reddit.com/user/natezomby
p265
aVhttps://www.reddit.com/r/Art/comments/5fvozk/untitled_collectivo_fx_graffiti_2016/
p266
aVjavascript: void 0;
p267
aVhttp://imgur.com/a/gky52
p268
aVhttp://imgur.com/a/gky52
p269
aVhttps://www.reddit.com/domain/imgur.com/
p270
aVhttps://www.reddit.com/user/chickster01
p271
aVhttps://www.reddit.com/r/Art/comments/5fyxw0/beaded_skull_number_three/
p272
aVjavascript: void 0;
p273
aVhttp://i.imgur.com/3jXDwJf.jpg
p274
aVhttp://i.imgur.com/3jXDwJf.jpg
p275
aVhttps://www.reddit.com/domain/i.imgur.com/
p276
aVhttps://www.reddit.com/user/SurveyHand
p277
aVhttps://www.reddit.com/r/Art/comments/5g0bk7/blue_tit_oil_on_canvas_16_x_20/
p278
aVjavascript: void 0;
p279
aVhttps://i.reddituploads.com/a2a7c3ccb7684b9b8733aa95a0057b61?fit=max&h=1536&w=1536&s=85c1fc6e4709561de123e879cac22c0a
p280
aVhttps://i.reddituploads.com/a2a7c3ccb7684b9b8733aa95a0057b61?fit=max&h=1536&w=1536&s=85c1fc6e4709561de123e879cac22c0a
p281
aVhttps://www.reddit.com/domain/i.reddituploads.com/
p282
aVhttps://www.reddit.com/user/larryblaw
p283
aVhttps://www.reddit.com/r/Art/comments/5fyt7b/naughty_and_nice_acrylic_on_wood/
p284
aVjavascript: void 0;
p285
aVhttp://imgur.com/tznvnUb
p286
aVhttp://imgur.com/tznvnUb
p287
aVhttps://www.reddit.com/domain/imgur.com/
p288
aVhttps://www.reddit.com/user/studioRaLu
p289
aVhttps://www.reddit.com/r/Art/comments/5fwwe2/cult_of_always_summer_12x24_acrylic/
p290
aVjavascript: void 0;
p291
aVhttp://i.imgur.com/Xa1jNE4.jpg?2
p292
aVhttp://i.imgur.com/Xa1jNE4.jpg?2
p293
aVhttps://www.reddit.com/domain/i.imgur.com/
p294
aVhttps://www.reddit.com/user/C0PPPER
p295
aVhttps://www.reddit.com/r/Art/comments/5fy3cd/the_less_i_know_the_better_paint_wall_sized/
p296
aVjavascript: void 0;
p297
aVhttps://i.reddituploads.com/8f6cab3e4bda4eae93e4b1df59da2645?fit=max&h=1536&w=1536&s=d344d97ac19d6c57349d25fa3e8573f3
p298
aVhttps://i.reddituploads.com/8f6cab3e4bda4eae93e4b1df59da2645?fit=max&h=1536&w=1536&s=d344d97ac19d6c57349d25fa3e8573f3
p299
aVhttps://www.reddit.com/domain/i.reddituploads.com/
p300
aVhttps://www.reddit.com/user/Fluffybunnykitten
p301
aVhttps://www.reddit.com/r/Art/comments/5g0txh/alice_in_wonderland_i_just_started_painting_with/
p302
aVjavascript: void 0;
p303
aVhttps://www.reddit.com/r/Art/comments/5g0slq/awake_digital/
p304
aVhttps://www.reddit.com/r/Art/comments/5g0slq/awake_digital/
p305
aVhttps://www.reddit.com/domain/i.redd.it/
p306
aVhttps://www.reddit.com/user/d4hm3r
p307
aVhttps://www.reddit.com/r/Art/comments/5g0slq/awake_digital/
p308
aVjavascript: void 0;
p309
aVhttps://www.reddit.com/r/Art/comments/5g0je3/unbreakable_graphite_8x11_inch/
p310
aVhttps://www.reddit.com/r/Art/comments/5g0je3/unbreakable_graphite_8x11_inch/
p311
aVhttps://www.reddit.com/domain/i.redd.it/
p312
aVhttps://www.reddit.com/user/crazychri1
p313
aVhttps://www.reddit.com/r/Art/comments/5g0je3/unbreakable_graphite_8x11_inch/
p314
aVjavascript: void 0;
p315
aVhttps://i.reddituploads.com/a434034fed494ff689cd899d54be1f15?fit=max&h=1536&w=1536&s=c9563737172f60a9a7c1f9a43da77594
p316
aVhttps://i.reddituploads.com/a434034fed494ff689cd899d54be1f15?fit=max&h=1536&w=1536&s=c9563737172f60a9a7c1f9a43da77594
p317
aVhttps://www.reddit.com/domain/i.reddituploads.com/
p318
aVhttps://www.reddit.com/user/LiquidMariner
p319
aVhttps://www.reddit.com/r/Art/comments/5g0b0o/beautiful_balloon_art/
p320
aVjavascript: void 0;
p321
aVhttps://i.reddituploads.com/2925bac13b6a4d729f46d6144812e4ba?fit=max&h=1536&w=1536&s=9565ee4130f91876affee794d3a84081
p322
aVhttps://i.reddituploads.com/2925bac13b6a4d729f46d6144812e4ba?fit=max&h=1536&w=1536&s=9565ee4130f91876affee794d3a84081
p323
aVhttps://www.reddit.com/domain/i.reddituploads.com/
p324
aVhttps://www.reddit.com/user/wgcalton
p325
aVhttps://www.reddit.com/r/Art/comments/5fy0oq/green_tomatoes_watercolor_by_will_calton/
p326
aVjavascript: void 0;
p327
aVhttps://www.reddit.com/r/Art/?count=25&after=t3_5fy0oq
p328
aVhttps://www.reddit.com/blog/
p329
aVhttps://about.reddit.com/
p330
aVhttps://www.reddit.com/code/
p331
aVhttps://www.reddit.com/advertising/
p332
aVhttps://www.reddit.com/jobs/
p333
aVhttps://www.reddit.com/rules/
p334
aVhttps://reddit.zendesk.com
p335
aVhttps://www.reddit.com/wiki/
p336
aVhttps://www.reddit.com/wiki/reddiquette/
p337
aVhttps://www.reddit.com/wiki/transparency/
p338
aVhttps://www.reddit.com/contact/
p339
aVhttps://itunes.apple.com/us/app/reddit-the-official-app/id1064216828?mt=8
p340
aVhttps://play.google.com/store/apps/details?id=com.reddit.frontpage
p341
aS'https://www.reddit.com/r/Art/'
p342
aVhttps://www.reddit.com/buttons/
p343
aVhttps://www.reddit.com/gold/about/
p344
aVhttp://redditgifts.com
p345
aVhttps://www.reddit.com/help/useragreement
p346
aVhttps://www.reddit.com/help/privacypolicy
p347
aVhttps://www.reddit.com/advertising
p348
asS'https://www.reddit.com/r/askscience/'
p349
(lp350
Vhttps://www.reddit.com/r/askscience/#content
p351
aVhttps://www.reddit.com/r/announcements/
p352
aVhttps://www.reddit.com/r/Art/
p353
aVhttps://www.reddit.com/r/AskReddit/
p354
aVhttps://www.reddit.com/r/askscience/
p355
aVhttps://www.reddit.com/r/aww/
p356
aVhttps://www.reddit.com/r/blog/
p357
aVhttps://www.reddit.com/r/books/
p358
aVhttps://www.reddit.com/r/creepy/
p359
aVhttps://www.reddit.com/r/dataisbeautiful/
p360
aVhttps://www.reddit.com/r/DIY/
p361
aVhttps://www.reddit.com/r/Documentaries/
p362
aVhttps://www.reddit.com/r/EarthPorn/
p363
aVhttps://www.reddit.com/r/explainlikeimfive/
p364
aVhttps://www.reddit.com/r/food/
p365
aVhttps://www.reddit.com/r/funny/
p366
aVhttps://www.reddit.com/r/Futurology/
p367
aVhttps://www.reddit.com/r/gadgets/
p368
aVhttps://www.reddit.com/r/gaming/
p369
aVhttps://www.reddit.com/r/GetMotivated/
p370
aVhttps://www.reddit.com/r/gifs/
p371
aVhttps://www.reddit.com/r/history/
p372
aVhttps://www.reddit.com/r/IAmA/
p373
aVhttps://www.reddit.com/r/InternetIsBeautiful/
p374
aVhttps://www.reddit.com/r/Jokes/
p375
aVhttps://www.reddit.com/r/LifeProTips/
p376
aVhttps://www.reddit.com/r/listentothis/
p377
aVhttps://www.reddit.com/r/mildlyinteresting/
p378
aVhttps://www.reddit.com/r/movies/
p379
aVhttps://www.reddit.com/r/Music/
p380
aVhttps://www.reddit.com/r/news/
p381
aVhttps://www.reddit.com/r/nosleep/
p382
aVhttps://www.reddit.com/r/nottheonion/
p383
aVhttps://www.reddit.com/r/OldSchoolCool/
p384
aVhttps://www.reddit.com/r/personalfinance/
p385
aVhttps://www.reddit.com/r/philosophy/
p386
aVhttps://www.reddit.com/r/photoshopbattles/
p387
aVhttps://www.reddit.com/r/pics/
p388
aVhttps://www.reddit.com/r/science/
p389
aVhttps://www.reddit.com/r/Showerthoughts/
p390
aVhttps://www.reddit.com/r/space/
p391
aVhttps://www.reddit.com/r/sports/
p392
aVhttps://www.reddit.com/r/television/
p393
aVhttps://www.reddit.com/r/tifu/
p394
aVhttps://www.reddit.com/r/todayilearned/
p395
aVhttps://www.reddit.com/r/TwoXChromosomes/
p396
aVhttps://www.reddit.com/r/UpliftingNews/
p397
aVhttps://www.reddit.com/r/videos/
p398
aVhttps://www.reddit.com/r/worldnews/
p399
aVhttps://www.reddit.com/r/WritingPrompts/
p400
aVhttps://www.reddit.com/subreddits/
p401
aVhttps://www.reddit.com/
p402
aVhttps://www.reddit.com/r/all/
p403
aVhttps://www.reddit.com/r/random/
p404
aVhttps://www.reddit.com/r/AskReddit/
p405
aVhttps://www.reddit.com/r/funny/
p406
aVhttps://www.reddit.com/r/gaming/
p407
aVhttps://www.reddit.com/r/todayilearned/
p408
aVhttps://www.reddit.com/r/pics/
p409
aVhttps://www.reddit.com/r/videos/
p410
aVhttps://www.reddit.com/r/IAmA/
p411
aVhttps://www.reddit.com/r/gifs/
p412
aVhttps://www.reddit.com/r/worldnews/
p413
aVhttps://www.reddit.com/r/news/
p414
aVhttps://www.reddit.com/r/aww/
p415
aVhttps://www.reddit.com/r/announcements/
p416
aVhttps://www.reddit.com/r/movies/
p417
aVhttps://www.reddit.com/r/Showerthoughts/
p418
aVhttps://www.reddit.com/r/Jokes/
p419
aVhttps://www.reddit.com/r/mildlyinteresting/
p420
aVhttps://www.reddit.com/r/television/
p421
aVhttps://www.reddit.com/r/Futurology/
p422
aVhttps://www.reddit.com/r/OldSchoolCool/
p423
aVhttps://www.reddit.com/r/explainlikeimfive/
p424
aVhttps://www.reddit.com/r/food/
p425
aVhttps://www.reddit.com/r/nottheonion/
p426
aVhttps://www.reddit.com/r/science/
p427
aVhttps://www.reddit.com/r/space/
p428
aVhttps://www.reddit.com/r/books/
p429
aVhttps://www.reddit.com/r/UpliftingNews/
p430
aVhttps://www.reddit.com/r/LifeProTips/
p431
aVhttps://www.reddit.com/r/tifu/
p432
aVhttps://www.reddit.com/r/TwoXChromosomes/
p433
aVhttps://www.reddit.com/r/sports/
p434
aVhttps://www.reddit.com/r/WritingPrompts/
p435
aVhttps://www.reddit.com/r/Art/
p436
aVhttps://www.reddit.com/r/Music/
p437
aVhttps://www.reddit.com/r/Documentaries/
p438
aVhttps://www.reddit.com/r/EarthPorn/
p439
aVhttps://www.reddit.com/r/personalfinance/
p440
aVhttps://www.reddit.com/r/nosleep/
p441
aVhttps://www.reddit.com/r/photoshopbattles/
p442
aVhttps://www.reddit.com/r/dataisbeautiful/
p443
aVhttps://www.reddit.com/r/askscience/
p444
aVhttps://www.reddit.com/r/creepy/
p445
aVhttps://www.reddit.com/r/GetMotivated/
p446
aVhttps://www.reddit.com/r/DIY/
p447
aVhttps://www.reddit.com/r/history/
p448
aVhttps://www.reddit.com/r/gadgets/
p449
aVhttps://www.reddit.com/r/listentothis/
p450
aVhttps://www.reddit.com/r/InternetIsBeautiful/
p451
aVhttps://www.reddit.com/r/philosophy/
p452
aVhttps://www.reddit.com/r/blog/
p453
aVhttps://www.reddit.com/subreddits/
p454
aVhttps://www.reddit.com/
p455
aVhttps://www.reddit.com/r/askscience/
p456
aVhttps://www.reddit.com/r/askscience/
p457
aVhttps://www.reddit.com/r/askscience/new/
p458
aVhttps://www.reddit.com/r/askscience/rising/
p459
aVhttps://www.reddit.com/r/askscience/controversial/
p460
aVhttps://www.reddit.com/r/askscience/top/
p461
aVhttps://www.reddit.com/r/askscience/gilded/
p462
aVhttps://www.reddit.com/r/askscience/wiki/
p463
aVhttps://www.reddit.com/r/askscience/ads/
p464
aVhttps://www.reddit.com/login
p465
aVjavascript:void(0)
p466
aVhttps://www.reddit.com/wiki/search
p467
aVhttps://www.reddit.com/wiki/search
p468
aVhttps://www.reddit.com/password
p469
aVhttps://www.reddit.com/r/askscience/submit?selftext=true
p470
aVhttps://www.reddit.com/r/askscience/
p471
aS'https://www.reddit.com/r/askscience/'
p472
aS'https://www.reddit.com/r/askscience/'
p473
aVhttp://goo.gl/NZf5gP
p474
aVhttp://goo.gl/hfiJiJ
p475
aVhttps://www.reddit.com/r/askscience/wiki/sources
p476
aVhttp://goo.gl/NZf5gP
p477
aVhttp://goo.gl/UAVhTJ
p478
aVhttp://redd.it/1ytp7q
p479
aVhttp://www.reddit.com/wiki/reddiquette
p480
aVhttp://goo.gl/lqBzfv
p481
aVhttp://goo.gl/chKW86
p482
aVhttp://goo.gl/hfiJiJ
p483
aVhttp://goo.gl/s2ISrb
p484
aVhttp://goo.gl/nNgvp7
p485
aVhttps://www.reddit.com/r/AskScienceDiscussion
p486
aVhttps://www.reddit.com/r/askscience/search?q=flair%3A%27Physics%27&sort=new&restrict_sr=on
p487
aVhttps://www.reddit.com/r/askscience/search?q=flair%3A%27Maths%27&sort=new&restrict_sr=on
p488
aVhttps://www.reddit.com/r/askscience/search?q=flair%3A%27Astro%27&sort=new&restrict_sr=on
p489
aVhttps://www.reddit.com/r/askscience/search?q=flair%3A%27Computing%27&sort=new&restrict_sr=on
p490
aVhttps://www.reddit.com/r/askscience/search?q=flair%3A%27Geo%27&sort=new&restrict_sr=on
p491
aVhttps://www.reddit.com/r/askscience/search?q=flair%3A%27Eng%27&sort=new&restrict_sr=on
p492
aVhttps://www.reddit.com/r/askscience/search?q=flair%3A%27Chem%27&sort=new&restrict_sr=on
p493
aVhttps://www.reddit.com/r/askscience/search?q=flair%3A%27Soc%27&sort=new&restrict_sr=on
p494
aVhttps://www.reddit.com/r/askscience/search?q=flair%3A%27Bio%27&sort=new&restrict_sr=on
p495
aVhttps://www.reddit.com/r/askscience/search?q=flair%3A%27Psych%27&sort=new&restrict_sr=on
p496
aVhttps://www.reddit.com/r/askscience/search?q=flair%3A%27Med%27&sort=new&restrict_sr=on
p497
aVhttps://www.reddit.com/r/askscience/search?q=flair%3A%27Neuro%27&sort=new&restrict_sr=on
p498
aVhttps://www.reddit.com/blank
p499
aVhttps://www.reddit.com/r/askscience/wiki/subreddit_links
p500
aVhttps://www.reddit.com/r/askscience/comments/4vztuj/askscience_panel_of_scientists_xv/
p501
aVhttp://goo.gl/cRQDGr
p502
aVhttp://goo.gl/wRzlXr
p503
aVhttp://goo.gl/cYwdsu
p504
aVhttps://www.reddit.com/r/askscience/#/RES_SR_Config/NightModeCompatible
p505
aVhttps://www.reddit.com/r/AskScienceDiscussion
p506
aVhttps://www.reddit.com/r/askscience/comments/43ettq/askscience_panel_of_scientists_xiv/
p507
aVhttps://www.reddit.com/message/compose?to=%2Fr%2Faskscience
p508
aVhttps://www.reddit.com/user/MockDeath
p509
aVhttps://www.reddit.com/user/iorgfeflkd
p510
aVhttps://www.reddit.com/user/Jobediah
p511
aVhttps://www.reddit.com/user/foretopsail
p512
aVhttps://www.reddit.com/user/mobilehypo
p513
aVhttps://www.reddit.com/user/BrainSturgeon
p514
aVhttps://www.reddit.com/user/Brain_Doc82
p515
aVhttps://www.reddit.com/user/niallmd
p516
aVhttps://www.reddit.com/user/SnoLeopard
p517
aVhttps://www.reddit.com/user/Astrokiwi
p518
aVhttps://www.reddit.com/r/askscience/about/moderators
p519
aVhttps://www.reddit.com/newsletter
p520
aS'https://www.reddit.com/r/askscience/'
p521
aVhttps://www.reddit.com/wiki/selfserve
p522
aVhttps://www.reddit.com/advertising
p523
aVhttps://www.reddit.com/r/ads
p524
aVhttps://www.reddit.com/subreddits/
p525
aVhttps://www.reddit.com/r/askscience/comments/4vztuj/askscience_panel_of_scientists_xv/
p526
aVhttps://www.reddit.com/r/askscience/
p527
aVhttps://www.reddit.com/user/AskScienceModerator
p528
aVhttps://www.reddit.com/r/askscience/about/moderators
p529
aVhttps://www.reddit.com/r/askscience/comments/4vztuj/askscience_panel_of_scientists_xv/
p530
aVjavascript: void 0;
p531
aVhttps://www.reddit.com/r/askscience/comments/5fq1xz/ask_anything_wednesday_biology_chemistry/
p532
aVhttps://www.reddit.com/r/askscience/
p533
aVhttps://www.reddit.com/user/AutoModerator
p534
aVhttps://www.reddit.com/r/askscience/about/moderators
p535
aVhttps://www.reddit.com/r/askscience/comments/5fq1xz/ask_anything_wednesday_biology_chemistry/
p536
aVjavascript: void 0;
p537
aVhttps://www.reddit.com/r/askscience/comments/5fxl3v/discussion_smartereverydays_newest_youtube_video/
p538
aVhttps://www.reddit.com/r/askscience/
p539
aVhttps://www.reddit.com/user/AskScienceModerator
p540
aVhttps://www.reddit.com/r/askscience/about/moderators
p541
aVhttps://www.reddit.com/r/askscience/comments/5fxl3v/discussion_smartereverydays_newest_youtube_video/
p542
aVjavascript: void 0;
p543
aVhttps://www.reddit.com/r/askscience/comments/5g0aap/why_are_neutron_stars_so_incredibly_hot_even/
p544
aVhttps://www.reddit.com/r/askscience/
p545
aVhttps://www.reddit.com/user/FTLSquid
p546
aVhttps://www.reddit.com/r/askscience/comments/5g0aap/why_are_neutron_stars_so_incredibly_hot_even/
p547
aVjavascript: void 0;
p548
aVhttps://www.reddit.com/r/askscience/comments/5fqb31/in_this_gif_of_white_blood_cells_attacking_a/
p549
aVhttps://www.reddit.com/r/askscience/
p550
aVhttps://www.reddit.com/user/blast4past
p551
aVhttps://www.reddit.com/r/askscience/comments/5fqb31/in_this_gif_of_white_blood_cells_attacking_a/
p552
aVjavascript: void 0;
p553
aVhttps://www.reddit.com/r/askscience/comments/5g0s1r/is_there_a_reason_beta_minus_decay_emits_an/
p554
aVhttps://www.reddit.com/r/askscience/
p555
aVhttps://www.reddit.com/user/lonestarphysics
p556
aVhttps://www.reddit.com/r/askscience/comments/5g0s1r/is_there_a_reason_beta_minus_decay_emits_an/
p557
aVjavascript: void 0;
p558
aVhttps://www.reddit.com/r/askscience/comments/5fzl5k/when_scientists_talk_about_consciousness_are_they/
p559
aVhttps://www.reddit.com/r/askscience/
p560
aVhttps://www.reddit.com/user/ChronoPsyche
p561
aVhttps://www.reddit.com/r/askscience/comments/5fzl5k/when_scientists_talk_about_consciousness_are_they/
p562
aVjavascript: void 0;
p563
aVhttps://www.reddit.com/r/askscience/comments/5fxbl0/on_a_cellular_level_what_is_a_memory_and_how_are/
p564
aVhttps://www.reddit.com/r/askscience/
p565
aVhttps://www.reddit.com/user/Flannman95
p566
aVhttps://www.reddit.com/r/askscience/comments/5fxbl0/on_a_cellular_level_what_is_a_memory_and_how_are/
p567
aVjavascript: void 0;
p568
aVhttps://www.reddit.com/r/askscience/comments/5fz0th/some_mammals_have_internal_testes_elephants/
p569
aVhttps://www.reddit.com/r/askscience/
p570
aVhttps://www.reddit.com/user/CalibanDrive
p571
aVhttps://www.reddit.com/r/askscience/comments/5fz0th/some_mammals_have_internal_testes_elephants/
p572
aVjavascript: void 0;
p573
aVhttps://www.reddit.com/r/askscience/comments/5fzytp/if_the_arteries_have_pressure_and_veins_do_not/
p574
aVhttps://www.reddit.com/r/askscience/
p575
aVhttps://www.reddit.com/user/snowboardergirl24
p576
aVhttps://www.reddit.com/r/askscience/comments/5fzytp/if_the_arteries_have_pressure_and_veins_do_not/
p577
aVjavascript: void 0;
p578
aVhttps://www.reddit.com/r/askscience/comments/5fwsd4/why_are_terahertz_wavesradiation_defined_as/
p579
aVhttps://www.reddit.com/r/askscience/
p580
aVhttps://www.reddit.com/user/neoKushan
p581
aVhttps://www.reddit.com/r/askscience/comments/5fwsd4/why_are_terahertz_wavesradiation_defined_as/
p582
aVjavascript: void 0;
p583
aVhttps://www.reddit.com/r/askscience/comments/5fvy08/why_are_the_north_and_south_poles_not_aligned/
p584
aVhttps://www.reddit.com/r/askscience/
p585
aVhttps://www.reddit.com/user/wtf_is_gravity
p586
aVhttps://www.reddit.com/r/askscience/comments/5fvy08/why_are_the_north_and_south_poles_not_aligned/
p587
aVjavascript: void 0;
p588
aVhttps://www.reddit.com/r/askscience/comments/5g020u/are_there_brownian_motion_of_solids/
p589
aVhttps://www.reddit.com/r/askscience/
p590
aVhttps://www.reddit.com/user/WhiteWAFFLES
p591
aVhttps://www.reddit.com/r/askscience/comments/5g020u/are_there_brownian_motion_of_solids/
p592
aVjavascript: void 0;
p593
aVhttps://www.reddit.com/r/askscience/comments/5g00ru/why_does_the_sun_bypass_several_elements_in_its/
p594
aVhttps://www.reddit.com/r/askscience/
p595
aVhttps://www.reddit.com/user/Bseagully
p596
aVhttps://www.reddit.com/r/askscience/comments/5g00ru/why_does_the_sun_bypass_several_elements_in_its/
p597
aVjavascript: void 0;
p598
aVhttps://www.reddit.com/r/askscience/comments/5fyz0g/what_makes_hela_cells_unique_among_immortalised/
p599
aVhttps://www.reddit.com/r/askscience/
p600
aVhttps://www.reddit.com/user/Flabbergastivity
p601
aVhttps://www.reddit.com/r/askscience/comments/5fyz0g/what_makes_hela_cells_unique_among_immortalised/
p602
aVjavascript: void 0;
p603
aVhttps://www.reddit.com/r/askscience/comments/5fzz15/nuclear_particle_exchange_in_solids/
p604
aVhttps://www.reddit.com/r/askscience/
p605
aVhttps://www.reddit.com/user/ronck66
p606
aVhttps://www.reddit.com/r/askscience/comments/5fzz15/nuclear_particle_exchange_in_solids/
p607
aVjavascript: void 0;
p608
aVhttps://www.reddit.com/r/askscience/comments/5fvvwy/why_is_vacuum_birefringence_viewed_as_a_signature/
p609
aVhttps://www.reddit.com/r/askscience/
p610
aVhttps://www.reddit.com/user/ChickenTitilater
p611
aVhttps://www.reddit.com/r/askscience/comments/5fvvwy/why_is_vacuum_birefringence_viewed_as_a_signature/
p612
aVjavascript: void 0;
p613
aVhttps://www.reddit.com/r/askscience/comments/5fw8sq/what_is_the_physical_attribute_of_matter_that/
p614
aVhttps://www.reddit.com/r/askscience/
p615
aVhttps://www.reddit.com/user/ohmscience
p616
aVhttps://www.reddit.com/r/askscience/comments/5fw8sq/what_is_the_physical_attribute_of_matter_that/
p617
aVjavascript: void 0;
p618
aVhttps://www.reddit.com/r/askscience/comments/5fys12/can_anybody_give_a_watered_down_explanation_of/
p619
aVhttps://www.reddit.com/r/askscience/
p620
aVhttps://www.reddit.com/user/afburnham
p621
aVhttps://www.reddit.com/r/askscience/comments/5fys12/can_anybody_give_a_watered_down_explanation_of/
p622
aVjavascript: void 0;
p623
aVhttps://www.reddit.com/r/askscience/comments/5fxco8/if_there_is_antimatter_then_is_there_also_dark/
p624
aVhttps://www.reddit.com/r/askscience/
p625
aVhttps://www.reddit.com/user/I_Zeig_I
p626
aVhttps://www.reddit.com/r/askscience/comments/5fxco8/if_there_is_antimatter_then_is_there_also_dark/
p627
aVjavascript: void 0;
p628
aVhttps://www.reddit.com/r/askscience/comments/5fwmnx/is_there_a_substance_that_when_heated_becomes/
p629
aVhttps://www.reddit.com/r/askscience/
p630
aVhttps://www.reddit.com/user/bentspog
p631
aVhttps://www.reddit.com/r/askscience/comments/5fwmnx/is_there_a_substance_that_when_heated_becomes/
p632
aVjavascript: void 0;
p633
aVhttps://www.reddit.com/r/askscience/comments/5fyaqz/how_are_white_dwarfs_able_to_maintain_being_a_star/
p634
aVhttps://www.reddit.com/r/askscience/
p635
aVhttps://www.reddit.com/user/vbnmjkhf
p636
aVhttps://www.reddit.com/r/askscience/comments/5fyaqz/how_are_white_dwarfs_able_to_maintain_being_a_star/
p637
aVjavascript: void 0;
p638
aVhttps://www.reddit.com/r/askscience/comments/5fz0sq/what_happens_if_you_use_a_spectroscope_on/
p639
aVhttps://www.reddit.com/r/askscience/
p640
aVhttps://www.reddit.com/user/army312
p641
aVhttps://www.reddit.com/r/askscience/comments/5fz0sq/what_happens_if_you_use_a_spectroscope_on/
p642
aVjavascript: void 0;
p643
aVhttps://www.reddit.com/r/askscience/comments/5fy3be/how_long_could_a_full_moon_hang_in_the_alaskan/
p644
aVhttps://www.reddit.com/r/askscience/
p645
aVhttps://www.reddit.com/user/Rokmanfilms
p646
aVhttps://www.reddit.com/r/askscience/comments/5fy3be/how_long_could_a_full_moon_hang_in_the_alaskan/
p647
aVjavascript: void 0;
p648
aVhttps://www.reddit.com/r/askscience/comments/5fwhtc/new_skin_cells_push_to_the_surface_constantly_so/
p649
aVhttps://www.reddit.com/r/askscience/
p650
aVhttps://www.reddit.com/user/onemany
p651
aVhttps://www.reddit.com/r/askscience/comments/5fwhtc/new_skin_cells_push_to_the_surface_constantly_so/
p652
aVjavascript: void 0;
p653
aVhttps://www.reddit.com/r/askscience/comments/5fyid7/cognitive_science_recommend_any_books/
p654
aVhttps://www.reddit.com/r/askscience/
p655
aVhttps://www.reddit.com/user/Generic_Username443
p656
aVhttps://www.reddit.com/r/askscience/comments/5fyid7/cognitive_science_recommend_any_books/
p657
aVjavascript: void 0;
p658
aVhttps://www.reddit.com/r/askscience/comments/5fux6p/would_it_be_possible_to_oxidise_gold_using/
p659
aVhttps://www.reddit.com/r/askscience/
p660
aVhttps://www.reddit.com/user/BaconFlavor23
p661
aVhttps://www.reddit.com/r/askscience/comments/5fux6p/would_it_be_possible_to_oxidise_gold_using/
p662
aVjavascript: void 0;
p663
aVhttps://www.reddit.com/r/askscience/?count=25&after=t3_5fux6p
p664
aVhttps://www.reddit.com/blog/
p665
aVhttps://about.reddit.com/
p666
aVhttps://www.reddit.com/code/
p667
aVhttps://www.reddit.com/advertising/
p668
aVhttps://www.reddit.com/jobs/
p669
aVhttps://www.reddit.com/rules/
p670
aVhttps://reddit.zendesk.com
p671
aVhttps://www.reddit.com/wiki/
p672
aVhttps://www.reddit.com/wiki/reddiquette/
p673
aVhttps://www.reddit.com/wiki/transparency/
p674
aVhttps://www.reddit.com/contact/
p675
aVhttps://itunes.apple.com/us/app/reddit-the-official-app/id1064216828?mt=8
p676
aVhttps://play.google.com/store/apps/details?id=com.reddit.frontpage
p677
aS'https://www.reddit.com/r/askscience/'
p678
aVhttps://www.reddit.com/buttons/
p679
aVhttps://www.reddit.com/gold/about/
p680
aVhttp://redditgifts.com
p681
aVhttps://www.reddit.com/help/useragreement
p682
aVhttps://www.reddit.com/help/privacypolicy
p683
aVhttps://www.reddit.com/advertising
p684
asS'https://www.reddit.com/r/aww/'
p685
(lp686
Vhttps://www.reddit.com/r/aww/#content
p687
aVhttps://www.reddit.com/r/announcements/
p688
aVhttps://www.reddit.com/r/Art/
p689
aVhttps://www.reddit.com/r/AskReddit/
p690
aVhttps://www.reddit.com/r/askscience/
p691
aVhttps://www.reddit.com/r/aww/
p692
aVhttps://www.reddit.com/r/blog/
p693
aVhttps://www.reddit.com/r/books/
p694
aVhttps://www.reddit.com/r/creepy/
p695
aVhttps://www.reddit.com/r/dataisbeautiful/
p696
aVhttps://www.reddit.com/r/DIY/
p697
aVhttps://www.reddit.com/r/Documentaries/
p698
aVhttps://www.reddit.com/r/EarthPorn/
p699
aVhttps://www.reddit.com/r/explainlikeimfive/
p700
aVhttps://www.reddit.com/r/food/
p701
aVhttps://www.reddit.com/r/funny/
p702
aVhttps://www.reddit.com/r/Futurology/
p703
aVhttps://www.reddit.com/r/gadgets/
p704
aVhttps://www.reddit.com/r/gaming/
p705
aVhttps://www.reddit.com/r/GetMotivated/
p706
aVhttps://www.reddit.com/r/gifs/
p707
aVhttps://www.reddit.com/r/history/
p708
aVhttps://www.reddit.com/r/IAmA/
p709
aVhttps://www.reddit.com/r/InternetIsBeautiful/
p710
aVhttps://www.reddit.com/r/Jokes/
p711
aVhttps://www.reddit.com/r/LifeProTips/
p712
aVhttps://www.reddit.com/r/listentothis/
p713
aVhttps://www.reddit.com/r/mildlyinteresting/
p714
aVhttps://www.reddit.com/r/movies/
p715
aVhttps://www.reddit.com/r/Music/
p716
aVhttps://www.reddit.com/r/news/
p717
aVhttps://www.reddit.com/r/nosleep/
p718
aVhttps://www.reddit.com/r/nottheonion/
p719
aVhttps://www.reddit.com/r/OldSchoolCool/
p720
aVhttps://www.reddit.com/r/personalfinance/
p721
aVhttps://www.reddit.com/r/philosophy/
p722
aVhttps://www.reddit.com/r/photoshopbattles/
p723
aVhttps://www.reddit.com/r/pics/
p724
aVhttps://www.reddit.com/r/science/
p725
aVhttps://www.reddit.com/r/Showerthoughts/
p726
aVhttps://www.reddit.com/r/space/
p727
aVhttps://www.reddit.com/r/sports/
p728
aVhttps://www.reddit.com/r/television/
p729
aVhttps://www.reddit.com/r/tifu/
p730
aVhttps://www.reddit.com/r/todayilearned/
p731
aVhttps://www.reddit.com/r/TwoXChromosomes/
p732
aVhttps://www.reddit.com/r/UpliftingNews/
p733
aVhttps://www.reddit.com/r/videos/
p734
aVhttps://www.reddit.com/r/worldnews/
p735
aVhttps://www.reddit.com/r/WritingPrompts/
p736
aVhttps://www.reddit.com/subreddits/
p737
aVhttps://www.reddit.com/
p738
aVhttps://www.reddit.com/r/all/
p739
aVhttps://www.reddit.com/r/random/
p740
aVhttps://www.reddit.com/r/AskReddit/
p741
aVhttps://www.reddit.com/r/funny/
p742
aVhttps://www.reddit.com/r/gaming/
p743
aVhttps://www.reddit.com/r/todayilearned/
p744
aVhttps://www.reddit.com/r/pics/
p745
aVhttps://www.reddit.com/r/videos/
p746
aVhttps://www.reddit.com/r/IAmA/
p747
aVhttps://www.reddit.com/r/gifs/
p748
aVhttps://www.reddit.com/r/worldnews/
p749
aVhttps://www.reddit.com/r/news/
p750
aVhttps://www.reddit.com/r/aww/
p751
aVhttps://www.reddit.com/r/announcements/
p752
aVhttps://www.reddit.com/r/movies/
p753
aVhttps://www.reddit.com/r/Showerthoughts/
p754
aVhttps://www.reddit.com/r/Jokes/
p755
aVhttps://www.reddit.com/r/mildlyinteresting/
p756
aVhttps://www.reddit.com/r/television/
p757
aVhttps://www.reddit.com/r/Futurology/
p758
aVhttps://www.reddit.com/r/OldSchoolCool/
p759
aVhttps://www.reddit.com/r/explainlikeimfive/
p760
aVhttps://www.reddit.com/r/food/
p761
aVhttps://www.reddit.com/r/nottheonion/
p762
aVhttps://www.reddit.com/r/science/
p763
aVhttps://www.reddit.com/r/space/
p764
aVhttps://www.reddit.com/r/books/
p765
aVhttps://www.reddit.com/r/UpliftingNews/
p766
aVhttps://www.reddit.com/r/LifeProTips/
p767
aVhttps://www.reddit.com/r/tifu/
p768
aVhttps://www.reddit.com/r/TwoXChromosomes/
p769
aVhttps://www.reddit.com/r/sports/
p770
aVhttps://www.reddit.com/r/WritingPrompts/
p771
aVhttps://www.reddit.com/r/Art/
p772
aVhttps://www.reddit.com/r/Music/
p773
aVhttps://www.reddit.com/r/Documentaries/
p774
aVhttps://www.reddit.com/r/EarthPorn/
p775
aVhttps://www.reddit.com/r/personalfinance/
p776
aVhttps://www.reddit.com/r/nosleep/
p777
aVhttps://www.reddit.com/r/photoshopbattles/
p778
aVhttps://www.reddit.com/r/dataisbeautiful/
p779
aVhttps://www.reddit.com/r/askscience/
p780
aVhttps://www.reddit.com/r/creepy/
p781
aVhttps://www.reddit.com/r/GetMotivated/
p782
aVhttps://www.reddit.com/r/DIY/
p783
aVhttps://www.reddit.com/r/history/
p784
aVhttps://www.reddit.com/r/gadgets/
p785
aVhttps://www.reddit.com/r/listentothis/
p786
aVhttps://www.reddit.com/r/InternetIsBeautiful/
p787
aVhttps://www.reddit.com/r/philosophy/
p788
aVhttps://www.reddit.com/r/blog/
p789
aVhttps://www.reddit.com/subreddits/
p790
aVhttps://www.reddit.com/
p791
aVhttps://www.reddit.com/r/aww/
p792
aVhttps://www.reddit.com/r/aww/
p793
aVhttps://www.reddit.com/r/aww/new/
p794
aVhttps://www.reddit.com/r/aww/rising/
p795
aVhttps://www.reddit.com/r/aww/controversial/
p796
aVhttps://www.reddit.com/r/aww/top/
p797
aVhttps://www.reddit.com/r/aww/gilded/
p798
aVhttps://www.reddit.com/r/aww/wiki/
p799
aVhttps://www.reddit.com/r/aww/ads/
p800
aVhttps://www.reddit.com/login
p801
aVjavascript:void(0)
p802
aVhttps://www.reddit.com/wiki/search
p803
aVhttps://www.reddit.com/wiki/search
p804
aVhttps://www.reddit.com/password
p805
aVhttps://www.reddit.com/r/aww/submit
p806
aVhttps://www.reddit.com/r/aww/
p807
aS'https://www.reddit.com/r/aww/'
p808
aS'https://www.reddit.com/r/aww/'
p809
aVhttps://www.reddit.com/r/aww
p810
aVhttps://www.reddit.com/r/aww/wiki/index
p811
aVhttp://www.reddit.com/r/aww/comments/2bxq23/reddit_101/
p812
aVhttps://www.reddit.com/message/compose?to=%2Fr%2Faww
p813
aVhttps://www.reddit.com/r/petloss
p814
aVhttps://www.reddit.com/r/aww/wiki/index#wiki_rule_1
p815
aVhttps://www.reddit.com/r/lolcats
p816
aVhttps://www.reddit.com/r/aww/wiki/index#wiki_rule_2
p817
aVhttps://www.reddit.com/r/aww/wiki/index#wiki_rule_3
p818
aVhttps://www.reddit.com/r/aww/wiki/index#wiki_rule_4
p819
aVhttps://www.reddit.com/r/aww/wiki/index#wiki_rule_5
p820
aVhttps://www.reddit.com/r/aww/wiki/index#wiki_rule_6
p821
aVhttps://www.reddit.com/r/care
p822
aVhttps://www.reddit.com/r/assistance
p823
aVhttps://www.reddit.com/r/aww/wiki/index#wiki_rule_7
p824
aVhttps://www.reddit.com/r/aww/wiki/index#wiki_rule_8
p825
aVhttps://www.reddit.com/r/aww/wiki/index#wiki_rule_9
p826
aVhttps://www.reddit.com/r/aww/wiki/index#wiki_rule_10
p827
aVhttps://www.reddit.com/r/aww/wiki/index
p828
aVhttps://www.reddit.com/r/adorableart
p829
aVhttps://www.reddit.com/r/animalgifs
p830
aVhttps://www.reddit.com/r/animalsbeingderps
p831
aVhttps://www.reddit.com/r/animalrights
p832
aVhttps://www.reddit.com/r/awwgifs
p833
aVhttps://www.reddit.com/r/awwducational
p834
aVhttps://www.reddit.com/r/awwnverts
p835
aVhttps://www.reddit.com/r/babyelephantgifs
p836
aVhttps://www.reddit.com/r/beforenafteradoption
p837
aVhttps://www.reddit.com/r/birdpics
p838
aVhttps://www.reddit.com/r/captivewildlife
p839
aVhttps://www.reddit.com/r/cats
p840
aVhttps://www.reddit.com/r/catpictures
p841
aVhttps://www.reddit.com/r/catvideos
p842
aVhttps://www.reddit.com/r/cute
p843
aVhttps://www.reddit.com/r/cutekids
p844
aVhttps://www.reddit.com/r/dogpictures
p845
aVhttps://www.reddit.com/r/dogswearinghats
p846
aVhttps://www.reddit.com/r/foxes
p847
aVhttps://www.reddit.com/r/guineapigs
p848
aVhttps://www.reddit.com/r/gentlemanimals
p849
aVhttps://www.reddit.com/r/hardcoreaww
p850
aVhttps://www.reddit.com/r/photoshawwp
p851
aVhttp://www.reddit.com/r/AnimalReddits/wiki/faq
p852
aVhttps://www.reddit.com/r/raccoongifs
p853
aVhttps://www.reddit.com/r/redpandas
p854
aVhttps://www.reddit.com/r/sloths
p855
aVhttps://www.reddit.com/r/pigs
p856
aVhttps://www.reddit.com/r/upliftingnews
p857
aVhttps://www.reddit.com/r/koalas
p858
aVhttps://www.reddit.com/r/lgbtaww
p859
aVhttps://www.reddit.com/r/delightfullychubby
p860
aVhttps://www.reddit.com/r/rabbits
p861
aVhttps://www.reddit.com/r/parrots
p862
aVhttps://www.reddit.com/r/mildlystartledcats
p863
aVhttps://www.reddit.com/r/animalsfailing
p864
aVhttps://www.reddit.com/r/StartledCats
p865
aVhttps://www.reddit.com/r/animalexpressions
p866
aVhttps://www.reddit.com/r/CatsStandingUp
p867
aVhttps://www.reddit.com/r/lazycats
p868
aVhttps://www.reddit.com/r/kitty
p869
aVhttps://www.reddit.com/r/brushybrushy
p870
aVhttps://www.reddit.com/r/awwakeup
p871
aVhttps://www.reddit.com/r/CatHighFive
p872
aVhttps://www.reddit.com/r/gifsofotters
p873
aVhttps://www.reddit.com/r/Panda_gifs
p874
aVhttps://www.reddit.com/r/GirlsCuddlingPuppies
p875
aVhttps://www.reddit.com/r/animalssmiling
p876
aVhttps://www.reddit.com/r/babybeastgifs
p877
aVhttps://www.reddit.com/r/Pomeranians
p878
aVhttps://www.reddit.com/r/tinyanimalsonfingers
p879
aVhttps://www.reddit.com/r/HoldMyNip
p880
aVhttps://www.reddit.com/r/CorgiGifs
p881
aVhttps://www.reddit.com/r/kittengifs
p882
aVhttps://www.reddit.com/r/PuppySmiles
p883
aVhttps://www.reddit.com/r/stoppedworking
p884
aVhttps://www.reddit.com/r/BeachDogs
p885
aVhttps://www.reddit.com/r/AllThingsDogs
p886
aVhttps://www.reddit.com/r/rats
p887
aVhttps://www.reddit.com/r/batty
p888
aVhttps://www.reddit.com/r/geckos
p889
aVhttps://www.reddit.com/r/rarepuppers
p890
aVhttps://www.petsmartcharities.org/adopt-a-pet/find-a-spayneuter-clinic
p891
aVhttp://adopt.pschar.org/
p892
aVhttps://www.reddit.com/r/aww/#/RES_SR_Config/NightModeCompatible
p893
aVhttps://www.reddit.com/message/compose?to=%2Fr%2Faww
p894
aVhttps://www.reddit.com/user/careless
p895
aVhttps://www.reddit.com/user/moomookitty
p896
aVhttps://www.reddit.com/user/MrsRatt
p897
aVhttps://www.reddit.com/user/PenguinTransport
p898
aVhttps://www.reddit.com/user/316nuts
p899
aVhttps://www.reddit.com/user/absurdlyobfuscated
p900
aVhttps://www.reddit.com/user/ParakeetNipple
p901
aVhttps://www.reddit.com/user/Motha_Effin_Kitty_Yo
p902
aVhttps://www.reddit.com/user/KRaidium
p903
aVhttps://www.reddit.com/user/earthceltic
p904
aVhttps://www.reddit.com/r/aww/about/moderators
p905
aVhttps://www.reddit.com/newsletter
p906
aS'https://www.reddit.com/r/aww/'
p907
aVhttps://www.reddit.com/wiki/selfserve
p908
aVhttps://www.reddit.com/advertising
p909
aVhttps://www.reddit.com/r/ads
p910
aVhttps://www.reddit.com/subreddits/
p911
aVhttps://www.reddit.com/r/StopTouchingMe/top/
p912
aVhttps://www.reddit.com/r/StopTouchingMe/top/
p913
aVhttps://www.reddit.com/domain/reddit.com/
p914
aVhttps://www.reddit.com/user/Motha_Effin_Kitty_Yo
p915
aVhttps://www.reddit.com/r/aww/about/moderators
p916
aVhttps://www.reddit.com/r/aww/comments/5f5n2t/aww_sub_of_the_week_rstoptouchinngme/
p917
aVjavascript: void 0;
p918
aVhttps://i.reddituploads.com/11e2124ada71444da260401eba9d22bb?fit=max&h=1536&w=1536&s=f71b7fcdc44e816b328ebefef48a42c8
p919
aVhttps://i.reddituploads.com/11e2124ada71444da260401eba9d22bb?fit=max&h=1536&w=1536&s=f71b7fcdc44e816b328ebefef48a42c8
p920
aVhttps://www.reddit.com/domain/i.reddituploads.com/
p921
aVhttps://www.reddit.com/user/wine-weed-wednesday
p922
aVhttps://www.reddit.com/r/aww/comments/5fy9ll/hen_taking_care_of_kittens_during_storm/
p923
aVjavascript: void 0;
p924
aVhttp://imgur.com/djvbYg1
p925
aVhttp://imgur.com/djvbYg1
p926
aVhttps://www.reddit.com/domain/imgur.com/
p927
aVhttps://www.reddit.com/user/brngrhm84
p928
aVhttps://www.reddit.com/r/aww/comments/5fz9hp/as_a_bald_man_im_very_proud_of_my_2_month_olds/
p929
aVjavascript: void 0;
p930
aVhttp://i.imgur.com/GsW8jXv.gifv
p931
aVhttp://i.imgur.com/GsW8jXv.gifv
p932
aVhttps://www.reddit.com/domain/i.imgur.com/
p933
aVhttps://www.reddit.com/user/ArkadiusBear
p934
aVhttps://www.reddit.com/r/aww/comments/5fwvem/new_antenna/
p935
aVjavascript: void 0;
p936
aVhttp://i.imgur.com/EqtJlZK.gifv
p937
aVhttp://i.imgur.com/EqtJlZK.gifv
p938
aVhttps://www.reddit.com/domain/i.imgur.com/
p939
aVhttps://www.reddit.com/user/RespectMyAuthoriteh
p940
aVhttps://www.reddit.com/r/aww/comments/5fxihj/conked_out/
p941
aVjavascript: void 0;
p942
aVhttp://imgur.com/TxsZ5iq.gifv
p943
aVhttp://imgur.com/TxsZ5iq.gifv
p944
aVhttps://www.reddit.com/domain/imgur.com/
p945
aVhttps://www.reddit.com/user/SlimJones123
p946
aVhttps://www.reddit.com/r/aww/comments/5fxipy/natural_born_predator/
p947
aVjavascript: void 0;
p948
aVhttps://i.reddituploads.com/c51e2dc21ec14be5b0c4d3a51f67ce00?fit=max&h=1536&w=1536&s=fd405d412988e1d8a22e8bc6ea15b42a
p949
aVhttps://i.reddituploads.com/c51e2dc21ec14be5b0c4d3a51f67ce00?fit=max&h=1536&w=1536&s=fd405d412988e1d8a22e8bc6ea15b42a
p950
aVhttps://www.reddit.com/domain/i.reddituploads.com/
p951
aVhttps://www.reddit.com/user/phritzz
p952
aVhttps://www.reddit.com/r/aww/comments/5fydux/my_local_humane_society_posted_this_picture_of_a/
p953
aVjavascript: void 0;
p954
aVhttps://i.reddituploads.com/01c5fee2e9ab4fcb9f3379110f80c245?fit=max&h=1536&w=1536&s=746ae39b5c1195827c8b45c65730f4bd
p955
aVhttps://i.reddituploads.com/01c5fee2e9ab4fcb9f3379110f80c245?fit=max&h=1536&w=1536&s=746ae39b5c1195827c8b45c65730f4bd
p956
aVhttps://www.reddit.com/domain/i.reddituploads.com/
p957
aVhttps://www.reddit.com/user/xVampyreQueenx
p958
aVhttps://www.reddit.com/r/aww/comments/5fxqfn/stranger_doggos/
p959
aVjavascript: void 0;
p960
aVhttps://i.imgur.com/xoYt068.jpg
p961
aVhttps://i.imgur.com/xoYt068.jpg
p962
aVhttps://www.reddit.com/domain/i.imgur.com/
p963
aVhttps://www.reddit.com/user/isaynonowords
p964
aVhttps://www.reddit.com/r/aww/comments/5fw8lx/hat_snek/
p965
aVjavascript: void 0;
p966
aVhttp://i.imgur.com/Xl3TDM1.gifv
p967
aVhttp://i.imgur.com/Xl3TDM1.gifv
p968
aVhttps://www.reddit.com/domain/i.imgur.com/
p969
aVhttps://www.reddit.com/user/CloseHer54
p970
aVhttps://www.reddit.com/r/aww/comments/5fvq8a/finding_a_nap_buddy_is_important_business_as_a/
p971
aVjavascript: void 0;
p972
aVhttp://i.imgur.com/0EC7Ete.gifv
p973
aVhttp://i.imgur.com/0EC7Ete.gifv
p974
aVhttps://www.reddit.com/domain/i.imgur.com/
p975
aVhttps://www.reddit.com/user/emoposer
p976
aVhttps://www.reddit.com/r/aww/comments/5fvtl0/hedgehog_is_excited_by_the_camera/
p977
aVjavascript: void 0;
p978
aVhttps://i.reddituploads.com/7a39adc6771140fba1929fe5ef13a202?fit=max&h=1536&w=1536&s=746bcf275929753d39e51d662d354e35
p979
aVhttps://i.reddituploads.com/7a39adc6771140fba1929fe5ef13a202?fit=max&h=1536&w=1536&s=746bcf275929753d39e51d662d354e35
p980
aVhttps://www.reddit.com/domain/i.reddituploads.com/
p981
aVhttps://www.reddit.com/user/Not-Patrick
p982
aVhttps://www.reddit.com/r/aww/comments/5fz47y/my_grandpa_tried_rocking_my_nephew_to_sleep_but/
p983
aVjavascript: void 0;
p984
aVhttps://www.reddit.com/r/aww/comments/5fxqk9/my_3lb_kittens_favorite_place_to_nap_is_on_top_of/
p985
aVhttps://www.reddit.com/r/aww/comments/5fxqk9/my_3lb_kittens_favorite_place_to_nap_is_on_top_of/
p986
aVhttps://www.reddit.com/domain/i.redd.it/
p987
aVhttps://www.reddit.com/user/BoosterCogburn
p988
aVhttps://www.reddit.com/r/aww/comments/5fxqk9/my_3lb_kittens_favorite_place_to_nap_is_on_top_of/
p989
aVjavascript: void 0;
p990
aVhttps://www.reddit.com/r/aww/comments/5fwmo3/shes_old_arthritic_and_lazy_but_damn_if_she_hasnt/
p991
aVhttps://www.reddit.com/r/aww/comments/5fwmo3/shes_old_arthritic_and_lazy_but_damn_if_she_hasnt/
p992
aVhttps://www.reddit.com/domain/i.redd.it/
p993
aVhttps://www.reddit.com/user/Gideon_Drake
p994
aVhttps://www.reddit.com/r/aww/comments/5fwmo3/shes_old_arthritic_and_lazy_but_damn_if_she_hasnt/
p995
aVjavascript: void 0;
p996
aVhttps://www.reddit.com/r/aww/comments/5g0cxj/a_few_days_ago_a_frightened_cat_came_in_through/
p997
aVhttps://www.reddit.com/r/aww/comments/5g0cxj/a_few_days_ago_a_frightened_cat_came_in_through/
p998
aVhttps://www.reddit.com/domain/i.redd.it/
p999
aVhttps://www.reddit.com/user/micaelabava
p1000
aVhttps://www.reddit.com/r/aww/comments/5g0cxj/a_few_days_ago_a_frightened_cat_came_in_through/
p1001
aVjavascript: void 0;
p1002
aVhttps://www.reddit.com/r/aww/comments/5fywi8/all_he_wants_is_to_go_for_walkies/
p1003
aVhttps://www.reddit.com/r/aww/comments/5fywi8/all_he_wants_is_to_go_for_walkies/
p1004
aVhttps://www.reddit.com/domain/i.redd.it/
p1005
aVhttps://www.reddit.com/user/NOT_DWIGHT_SHRUTE
p1006
aVhttps://www.reddit.com/r/aww/comments/5fywi8/all_he_wants_is_to_go_for_walkies/
p1007
aVjavascript: void 0;
p1008
aVhttp://i.imgur.com/7eDEBnT.gifv
p1009
aVhttp://i.imgur.com/7eDEBnT.gifv
p1010
aVhttps://www.reddit.com/domain/i.imgur.com/
p1011
aVhttps://www.reddit.com/user/anewhigh
p1012
aVhttps://www.reddit.com/r/aww/comments/5fwjkd/all_this_kitten_needs_is_a_fishing_pole/
p1013
aVjavascript: void 0;
p1014
aVhttp://imgur.com/2E4u3WO
p1015
aVhttp://imgur.com/2E4u3WO
p1016
aVhttps://www.reddit.com/domain/imgur.com/
p1017
aVhttps://www.reddit.com/user/Embeast
p1018
aVhttps://www.reddit.com/r/aww/comments/5g0boo/the_biggest_drawback_to_having_a_barkbox/
p1019
aVjavascript: void 0;
p1020
aVhttps://i.imgur.com/aqYeTlu.gifv
p1021
aVhttps://i.imgur.com/aqYeTlu.gifv
p1022
aVhttps://www.reddit.com/domain/i.imgur.com/
p1023
aVhttps://www.reddit.com/user/_Nohbdy_
p1024
aVhttps://www.reddit.com/r/aww/comments/5fv0lp/scritch_the_ears_to_activate_tongue/
p1025
aVjavascript: void 0;
p1026
aVhttp://i.imgur.com/y5o0K4L.jpg
p1027
aVhttp://i.imgur.com/y5o0K4L.jpg
p1028
aVhttps://www.reddit.com/domain/i.imgur.com/
p1029
aVhttps://www.reddit.com/user/loves-reading
p1030
aVhttps://www.reddit.com/r/aww/comments/5g0o5h/look_at_this_sweet_little_face/
p1031
aVjavascript: void 0;
p1032
aVhttp://i.imgur.com/kDe9vrs.jpg
p1033
aVhttp://i.imgur.com/kDe9vrs.jpg
p1034
aVhttps://www.reddit.com/domain/i.imgur.com/
p1035
aVhttps://www.reddit.com/user/ArkadiusBear
p1036
aVhttps://www.reddit.com/r/aww/comments/5fybqi/knock_knock/
p1037
aVjavascript: void 0;
p1038
aVhttps://www.reddit.com/r/aww/comments/5fw4hh/our_10_month_old_chocolate_spent_some_time_with/
p1039
aVhttps://www.reddit.com/r/aww/comments/5fw4hh/our_10_month_old_chocolate_spent_some_time_with/
p1040
aVhttps://www.reddit.com/domain/i.redd.it/
p1041
aVhttps://www.reddit.com/user/twoandonly
p1042
aVhttps://www.reddit.com/r/aww/comments/5fw4hh/our_10_month_old_chocolate_spent_some_time_with/
p1043
aVjavascript: void 0;
p1044
aVhttp://imgur.com/smrw4of
p1045
aVhttp://imgur.com/smrw4of
p1046
aVhttps://www.reddit.com/domain/imgur.com/
p1047
aVhttps://www.reddit.com/user/HimDoGoodSnuSnu
p1048
aVhttps://www.reddit.com/r/aww/comments/5fxdcy/my_friend_has_a_newborn_came_home_to_find_this/
p1049
aVjavascript: void 0;
p1050
aVhttp://i.imgur.com/o9yVrdd.gifv
p1051
aVhttp://i.imgur.com/o9yVrdd.gifv
p1052
aVhttps://www.reddit.com/domain/i.imgur.com/
p1053
aVhttps://www.reddit.com/user/Rose_Steve
p1054
aVhttps://www.reddit.com/r/aww/comments/5fvkmg/one_of_the_cutest_way_to_eat_food/
p1055
aVjavascript: void 0;
p1056
aVhttp://imgur.com/EG89XDQ
p1057
aVhttp://imgur.com/EG89XDQ
p1058
aVhttps://www.reddit.com/domain/imgur.com/
p1059
aVhttps://www.reddit.com/user/Varniepoos
p1060
aVhttps://www.reddit.com/r/aww/comments/5fyizf/my_sister_in_laws_new_kitten_jimmy_hes_as_snug_as/
p1061
aVjavascript: void 0;
p1062
aVhttp://imgur.com/d6Dnsy0
p1063
aVhttp://imgur.com/d6Dnsy0
p1064
aVhttps://www.reddit.com/domain/imgur.com/
p1065
aVhttps://www.reddit.com/user/zparts
p1066
aVhttps://www.reddit.com/r/aww/comments/5fy4no/just_flew_into_my_shop/
p1067
aVjavascript: void 0;
p1068
aVhttps://www.reddit.com/r/aww/?count=25&after=t3_5fy4no
p1069
aVhttps://www.reddit.com/blog/
p1070
aVhttps://about.reddit.com/
p1071
aVhttps://www.reddit.com/code/
p1072
aVhttps://www.reddit.com/advertising/
p1073
aVhttps://www.reddit.com/jobs/
p1074
aVhttps://www.reddit.com/rules/
p1075
aVhttps://reddit.zendesk.com
p1076
aVhttps://www.reddit.com/wiki/
p1077
aVhttps://www.reddit.com/wiki/reddiquette/
p1078
aVhttps://www.reddit.com/wiki/transparency/
p1079
aVhttps://www.reddit.com/contact/
p1080
aVhttps://itunes.apple.com/us/app/reddit-the-official-app/id1064216828?mt=8
p1081
aVhttps://play.google.com/store/apps/details?id=com.reddit.frontpage
p1082
aS'https://www.reddit.com/r/aww/'
p1083
aVhttps://www.reddit.com/buttons/
p1084
aVhttps://www.reddit.com/gold/about/
p1085
aVhttp://redditgifts.com
p1086
aVhttps://www.reddit.com/help/useragreement
p1087
aVhttps://www.reddit.com/help/privacypolicy
p1088
aVhttps://www.reddit.com/advertising
p1089
asS'https://www.reddit.com/'
p1090
(lp1091
Vhttps://www.reddit.com/#content
p1092
aVhttps://www.reddit.com/r/announcements/
p1093
aVhttps://www.reddit.com/r/Art/
p1094
aVhttps://www.reddit.com/r/AskReddit/
p1095
aVhttps://www.reddit.com/r/askscience/
p1096
aVhttps://www.reddit.com/r/aww/
p1097
aVhttps://www.reddit.com/r/blog/
p1098
aVhttps://www.reddit.com/r/books/
p1099
aVhttps://www.reddit.com/r/creepy/
p1100
aVhttps://www.reddit.com/r/dataisbeautiful/
p1101
aVhttps://www.reddit.com/r/DIY/
p1102
aVhttps://www.reddit.com/r/Documentaries/
p1103
aVhttps://www.reddit.com/r/EarthPorn/
p1104
aVhttps://www.reddit.com/r/explainlikeimfive/
p1105
aVhttps://www.reddit.com/r/food/
p1106
aVhttps://www.reddit.com/r/funny/
p1107
aVhttps://www.reddit.com/r/Futurology/
p1108
aVhttps://www.reddit.com/r/gadgets/
p1109
aVhttps://www.reddit.com/r/gaming/
p1110
aVhttps://www.reddit.com/r/GetMotivated/
p1111
aVhttps://www.reddit.com/r/gifs/
p1112
aVhttps://www.reddit.com/r/history/
p1113
aVhttps://www.reddit.com/r/IAmA/
p1114
aVhttps://www.reddit.com/r/InternetIsBeautiful/
p1115
aVhttps://www.reddit.com/r/Jokes/
p1116
aVhttps://www.reddit.com/r/LifeProTips/
p1117
aVhttps://www.reddit.com/r/listentothis/
p1118
aVhttps://www.reddit.com/r/mildlyinteresting/
p1119
aVhttps://www.reddit.com/r/movies/
p1120
aVhttps://www.reddit.com/r/Music/
p1121
aVhttps://www.reddit.com/r/news/
p1122
aVhttps://www.reddit.com/r/nosleep/
p1123
aVhttps://www.reddit.com/r/nottheonion/
p1124
aVhttps://www.reddit.com/r/OldSchoolCool/
p1125
aVhttps://www.reddit.com/r/personalfinance/
p1126
aVhttps://www.reddit.com/r/philosophy/
p1127
aVhttps://www.reddit.com/r/photoshopbattles/
p1128
aVhttps://www.reddit.com/r/pics/
p1129
aVhttps://www.reddit.com/r/science/
p1130
aVhttps://www.reddit.com/r/Showerthoughts/
p1131
aVhttps://www.reddit.com/r/space/
p1132
aVhttps://www.reddit.com/r/sports/
p1133
aVhttps://www.reddit.com/r/television/
p1134
aVhttps://www.reddit.com/r/tifu/
p1135
aVhttps://www.reddit.com/r/todayilearned/
p1136
aVhttps://www.reddit.com/r/TwoXChromosomes/
p1137
aVhttps://www.reddit.com/r/UpliftingNews/
p1138
aVhttps://www.reddit.com/r/videos/
p1139
aVhttps://www.reddit.com/r/worldnews/
p1140
aVhttps://www.reddit.com/r/WritingPrompts/
p1141
aVhttps://www.reddit.com/subreddits/
p1142
aVhttps://www.reddit.com/
p1143
aVhttps://www.reddit.com/r/all/
p1144
aVhttps://www.reddit.com/r/random/
p1145
aVhttps://www.reddit.com/r/AskReddit/
p1146
aVhttps://www.reddit.com/r/funny/
p1147
aVhttps://www.reddit.com/r/gaming/
p1148
aVhttps://www.reddit.com/r/todayilearned/
p1149
aVhttps://www.reddit.com/r/pics/
p1150
aVhttps://www.reddit.com/r/videos/
p1151
aVhttps://www.reddit.com/r/IAmA/
p1152
aVhttps://www.reddit.com/r/gifs/
p1153
aVhttps://www.reddit.com/r/worldnews/
p1154
aVhttps://www.reddit.com/r/news/
p1155
aVhttps://www.reddit.com/r/aww/
p1156
aVhttps://www.reddit.com/r/announcements/
p1157
aVhttps://www.reddit.com/r/movies/
p1158
aVhttps://www.reddit.com/r/Showerthoughts/
p1159
aVhttps://www.reddit.com/r/Jokes/
p1160
aVhttps://www.reddit.com/r/mildlyinteresting/
p1161
aVhttps://www.reddit.com/r/television/
p1162
aVhttps://www.reddit.com/r/Futurology/
p1163
aVhttps://www.reddit.com/r/OldSchoolCool/
p1164
aVhttps://www.reddit.com/r/explainlikeimfive/
p1165
aVhttps://www.reddit.com/r/food/
p1166
aVhttps://www.reddit.com/r/nottheonion/
p1167
aVhttps://www.reddit.com/r/science/
p1168
aVhttps://www.reddit.com/r/space/
p1169
aVhttps://www.reddit.com/r/books/
p1170
aVhttps://www.reddit.com/r/UpliftingNews/
p1171
aVhttps://www.reddit.com/r/LifeProTips/
p1172
aVhttps://www.reddit.com/r/tifu/
p1173
aVhttps://www.reddit.com/r/TwoXChromosomes/
p1174
aVhttps://www.reddit.com/r/sports/
p1175
aVhttps://www.reddit.com/r/WritingPrompts/
p1176
aVhttps://www.reddit.com/r/Art/
p1177
aVhttps://www.reddit.com/r/Music/
p1178
aVhttps://www.reddit.com/r/Documentaries/
p1179
aVhttps://www.reddit.com/r/EarthPorn/
p1180
aVhttps://www.reddit.com/r/personalfinance/
p1181
aVhttps://www.reddit.com/r/nosleep/
p1182
aVhttps://www.reddit.com/r/photoshopbattles/
p1183
aVhttps://www.reddit.com/r/dataisbeautiful/
p1184
aVhttps://www.reddit.com/r/askscience/
p1185
aVhttps://www.reddit.com/r/creepy/
p1186
aVhttps://www.reddit.com/r/GetMotivated/
p1187
aVhttps://www.reddit.com/r/DIY/
p1188
aVhttps://www.reddit.com/r/history/
p1189
aVhttps://www.reddit.com/r/gadgets/
p1190
aVhttps://www.reddit.com/r/listentothis/
p1191
aVhttps://www.reddit.com/r/InternetIsBeautiful/
p1192
aVhttps://www.reddit.com/r/philosophy/
p1193
aVhttps://www.reddit.com/r/blog/
p1194
aVhttps://www.reddit.com/subreddits/
p1195
aVhttps://www.reddit.com/
p1196
aVhttps://www.reddit.com/
p1197
aVhttps://www.reddit.com/new/
p1198
aVhttps://www.reddit.com/rising/
p1199
aVhttps://www.reddit.com/controversial/
p1200
aVhttps://www.reddit.com/top/
p1201
aVhttps://www.reddit.com/gilded/
p1202
aVhttps://www.reddit.com/wiki/
p1203
aVhttps://www.reddit.com/ads/
p1204
aVhttps://www.reddit.com/login
p1205
aVjavascript:void(0)
p1206
aVhttps://www.reddit.com/wiki/search
p1207
aVhttps://www.reddit.com/wiki/search
p1208
aVhttps://www.reddit.com/password
p1209
aVhttps://www.reddit.com/submit
p1210
aVhttps://www.reddit.com/submit?selftext=true
p1211
aVhttps://www.reddit.com/gold?goldtype=code&source=progressbar
p1212
aVhttps://www.reddit.com/gold/about
p1213
aVhttps://www.reddit.com/r/goldbenefits
p1214
aVhttps://en.wikipedia.org/wiki/Pacific_Time_Zone
p1215
aVhttps://www.reddit.com/newsletter
p1216
aS'https://www.reddit.com/'
p1217
aVhttps://www.reddit.com/r/Showerthoughts/comments/5g16fn/the_best_feeling_while_taking_is_when_you/
p1218
aVhttps://www.reddit.com/r/Showerthoughts/comments/5g16fn/the_best_feeling_while_taking_is_when_you/
p1219
aVhttps://www.reddit.com/r/Showerthoughts/
p1220
aVhttps://www.reddit.com/user/reddit_noob23
p1221
aVhttps://www.reddit.com/r/Showerthoughts/
p1222
aVhttps://www.reddit.com/r/Showerthoughts/comments/5g16fn/the_best_feeling_while_taking_is_when_you/
p1223
aVjavascript: void 0;
p1224
aVhttps://www.reddit.com/r/Jokes/comments/5g16ko/whats_the_difference_in_harry_potter_and_a_jew/
p1225
aVhttps://www.reddit.com/r/Jokes/comments/5g16ko/whats_the_difference_in_harry_potter_and_a_jew/
p1226
aVhttps://www.reddit.com/r/Jokes/
p1227
aVhttps://www.reddit.com/user/windexdrinker420
p1228
aVhttps://www.reddit.com/r/Jokes/
p1229
aVhttps://www.reddit.com/r/Jokes/comments/5g16ko/whats_the_difference_in_harry_potter_and_a_jew/
p1230
aVjavascript: void 0;
p1231
aVhttp://imgur.com/a/mA2dl
p1232
aVhttp://imgur.com/a/mA2dl
p1233
aVhttps://www.reddit.com/domain/imgur.com/
p1234
aVhttps://www.reddit.com/user/The_Moldy_Macaroon
p1235
aVhttps://www.reddit.com/r/funny/
p1236
aVhttps://www.reddit.com/r/funny/comments/5g16yw/we_have_a_new_word/
p1237
aVjavascript: void 0;
p1238
aVhttp://imgur.com/buX4y9k
p1239
aVhttp://imgur.com/buX4y9k
p1240
aVhttps://www.reddit.com/domain/imgur.com/
p1241
aVhttps://www.reddit.com/user/Wodensdays_child
p1242
aVhttps://www.reddit.com/r/aww/
p1243
aVhttps://www.reddit.com/r/aww/comments/5g174o/my_dogs_new_christmas_sweater/
p1244
aVjavascript: void 0;
p1245
aVhttps://www.reddit.com/r/WritingPrompts/comments/5g16ql/tt_its_you_and_your_girlfriends_1_year/
p1246
aVhttps://www.reddit.com/r/WritingPrompts/comments/5g16ql/tt_its_you_and_your_girlfriends_1_year/
p1247
aVhttps://www.reddit.com/r/WritingPrompts/
p1248
aVhttps://www.reddit.com/user/bagothetrumpet
p1249
aVhttps://www.reddit.com/r/WritingPrompts/
p1250
aVhttps://www.reddit.com/r/WritingPrompts/comments/5g16ql/tt_its_you_and_your_girlfriends_1_year/
p1251
aVjavascript: void 0;
p1252
aVhttps://www.reddit.com/r/AskReddit/comments/5g179m/whats_your_least_favorite_quality_in_someone/
p1253
aVhttps://www.reddit.com/r/AskReddit/comments/5g179m/whats_your_least_favorite_quality_in_someone/
p1254
aVhttps://www.reddit.com/r/AskReddit/
p1255
aVhttps://www.reddit.com/user/TheeMagicPeanut
p1256
aVhttps://www.reddit.com/r/AskReddit/
p1257
aVhttps://www.reddit.com/r/AskReddit/comments/5g179m/whats_your_least_favorite_quality_in_someone/
p1258
aVjavascript: void 0;
p1259
aVhttps://www.reddit.com/r/Showerthoughts/comments/5g173h/if_you_were_to_die_right_now/
p1260
aVhttps://www.reddit.com/r/Showerthoughts/comments/5g173h/if_you_were_to_die_right_now/
p1261
aVhttps://www.reddit.com/r/Showerthoughts/
p1262
aVhttps://www.reddit.com/user/thisgirljamiiee
p1263
aVhttps://www.reddit.com/r/Showerthoughts/
p1264
aVhttps://www.reddit.com/r/Showerthoughts/comments/5g173h/if_you_were_to_die_right_now/
p1265
aVjavascript: void 0;
p1266
aVhttps://www.reddit.com/r/AskReddit/comments/5g1718/serious_if_you_could_uninvent_something_and/
p1267
aVhttps://www.reddit.com/r/AskReddit/comments/5g1718/serious_if_you_could_uninvent_something_and/
p1268
aVhttps://www.reddit.com/r/AskReddit/
p1269
aVhttps://www.reddit.com/user/skeetsauce42
p1270
aVhttps://www.reddit.com/r/AskReddit/
p1271
aVhttps://www.reddit.com/r/AskReddit/comments/5g1718/serious_if_you_could_uninvent_something_and/
p1272
aVjavascript: void 0;
p1273
aVhttps://www.reddit.com/r/explainlikeimfive/comments/5g16qb/eli5_why_is_the_culture_of_the_work_force_in_the/
p1274
aVhttps://www.reddit.com/r/explainlikeimfive/comments/5g16qb/eli5_why_is_the_culture_of_the_work_force_in_the/
p1275
aVhttps://www.reddit.com/r/explainlikeimfive/
p1276
aVhttps://www.reddit.com/user/lpb0004
p1277
aVhttps://www.reddit.com/r/explainlikeimfive/
p1278
aVhttps://www.reddit.com/r/explainlikeimfive/comments/5g16qb/eli5_why_is_the_culture_of_the_work_force_in_the/
p1279
aVjavascript: void 0;
p1280
aVhttps://www.reddit.com/r/Showerthoughts/comments/5g16w3/its_never_the_same_day_everywhere_on_earth/
p1281
aVhttps://www.reddit.com/r/Showerthoughts/comments/5g16w3/its_never_the_same_day_everywhere_on_earth/
p1282
aVhttps://www.reddit.com/r/Showerthoughts/
p1283
aVhttps://www.reddit.com/user/Saveman71
p1284
aVhttps://www.reddit.com/r/Showerthoughts/
p1285
aVhttps://www.reddit.com/r/Showerthoughts/comments/5g16w3/its_never_the_same_day_everywhere_on_earth/
p1286
aVjavascript: void 0;
p1287
aVhttps://www.reddit.com/r/random
p1288
aVhttps://www.reddit.com/wiki/selfserve
p1289
aVhttps://www.reddit.com/advertising
p1290
aVhttps://www.reddit.com/r/ads
p1291
aVhttps://www.reddit.com/subreddits/
p1292
aVhttps://www.reddit.com/r/kotk
p1293
aVhttps://www.reddit.com/r/TrueCrime
p1294
aVhttps://www.reddit.com/r/untrustworthypoptarts
p1295
aVhttps://www.reddit.com/r/tinyrebellions
p1296
aVhttps://www.reddit.com/r/Chapecoense
p1297
aVhttps://www.reddit.com/r/trendingsubreddits/comments/5fvk84/trending_subreddits_for_20161201_rkotk_rtruecrime/
p1298
aVhttps://streamable.com/bsqc
p1299
aVhttps://streamable.com/bsqc
p1300
aVhttps://www.reddit.com/domain/streamable.com/
p1301
aVhttps://www.reddit.com/user/beatbreak
p1302
aVhttps://www.reddit.com/r/videos/
p1303
aVhttps://www.reddit.com/r/videos/comments/5fzc9d/2_coaches_2_objects_2_different_reactions/
p1304
aVjavascript: void 0;
p1305
aVhttps://www.reddit.com/r/funny/comments/5fyz2c/scientific_method_is_there_for_a_reason/
p1306
aVhttps://www.reddit.com/r/funny/comments/5fyz2c/scientific_method_is_there_for_a_reason/
p1307
aVhttps://www.reddit.com/domain/i.redd.it/
p1308
aVhttps://www.reddit.com/user/WID_Call_IT
p1309
aVhttps://www.reddit.com/r/funny/
p1310
aVhttps://www.reddit.com/r/funny/comments/5fyz2c/scientific_method_is_there_for_a_reason/
p1311
aVjavascript: void 0;
p1312
aVhttp://i.imgur.com/RmFsW3z.gifv
p1313
aVhttp://i.imgur.com/RmFsW3z.gifv
p1314
aVhttps://www.reddit.com/domain/i.imgur.com/
p1315
aVhttps://www.reddit.com/user/nehala
p1316
aVhttps://www.reddit.com/r/gifs/
p1317
aVhttps://www.reddit.com/r/gifs/comments/5fyp90/this_vietnamese_teacher_has_perfect_handwriting/
p1318
aVjavascript: void 0;
p1319
aVhttp://timesofindia.indiatimes.com/city/lucknow/Boy-waits-12-years-to-avenge-dads-murder-cuts-accused-into-12-parts/articleshow/50271535.cms?
p1320
aVhttp://timesofindia.indiatimes.com/city/lucknow/Boy-waits-12-years-to-avenge-dads-murder-cuts-accused-into-12-parts/articleshow/50271535.cms?
p1321
aVhttps://www.reddit.com/domain/timesofindia.indiatimes.com/
p1322
aVhttps://www.reddit.com/user/NotMushroomLeft
p1323
aVhttps://www.reddit.com/r/todayilearned/
p1324
aVhttps://www.reddit.com/r/todayilearned/comments/5fypd4/til_a_12_year_old_boy_who_saw_his_own_father/
p1325
aVjavascript: void 0;
p1326
aVhttps://www.reddit.com/r/pics/comments/5fyecl/when_your_casual_kayaking_trip_suddenly_turns/
p1327
aVhttps://www.reddit.com/r/pics/comments/5fyecl/when_your_casual_kayaking_trip_suddenly_turns/
p1328
aVhttps://www.reddit.com/domain/i.redd.it/
p1329
aVhttps://www.reddit.com/user/KillerBeeTX
p1330
aVhttps://www.reddit.com/r/pics/
p1331
aVhttps://www.reddit.com/r/pics/comments/5fyecl/when_your_casual_kayaking_trip_suddenly_turns/
p1332
aVjavascript: void 0;
p1333
aVhttps://i.reddituploads.com/11e2124ada71444da260401eba9d22bb?fit=max&h=1536&w=1536&s=f71b7fcdc44e816b328ebefef48a42c8
p1334
aVhttps://i.reddituploads.com/11e2124ada71444da260401eba9d22bb?fit=max&h=1536&w=1536&s=f71b7fcdc44e816b328ebefef48a42c8
p1335
aVhttps://www.reddit.com/domain/i.reddituploads.com/
p1336
aVhttps://www.reddit.com/user/wine-weed-wednesday
p1337
aVhttps://www.reddit.com/r/aww/
p1338
aVhttps://www.reddit.com/r/aww/comments/5fy9ll/hen_taking_care_of_kittens_during_storm/
p1339
aVjavascript: void 0;
p1340
aVhttp://www.independent.co.uk/life-style/gadgets-and-tech/news/investigatory-powers-bill-a7447781.html
p1341
aVhttp://www.independent.co.uk/life-style/gadgets-and-tech/news/investigatory-powers-bill-a7447781.html
p1342
aVhttps://www.reddit.com/domain/independent.co.uk/
p1343
aVhttps://www.reddit.com/user/GameSoup440
p1344
aVhttps://www.reddit.com/r/nottheonion/
p1345
aVhttps://www.reddit.com/r/nottheonion/comments/5fymba/investigatory_powers_bill_politicians_exempt/
p1346
aVjavascript: void 0;
p1347
aVhttp://imgur.com/jWeD3lJ
p1348
aVhttp://imgur.com/jWeD3lJ
p1349
aVhttps://www.reddit.com/domain/imgur.com/
p1350
aVhttps://www.reddit.com/user/suppow
p1351
aVhttps://www.reddit.com/r/gaming/
p1352
aVhttps://www.reddit.com/r/gaming/comments/5fxu6e/kirby_dev_team_attemps_to_draw_him_by_hand/
p1353
aVjavascript: void 0;
p1354
aVhttp://www.wpxi.com/news/trending-now/virginia-schools-ban-to-kill-a-mockingbird-huckleberry-finn-for-racial-slurs/472065098
p1355
aVhttp://www.wpxi.com/news/trending-now/virginia-schools-ban-to-kill-a-mockingbird-huckleberry-finn-for-racial-slurs/472065098
p1356
aVhttps://www.reddit.com/domain/wpxi.com/
p1357
aVhttps://www.reddit.com/user/Another-Chance
p1358
aVhttps://www.reddit.com/r/news/
p1359
aVhttps://www.reddit.com/r/news/comments/5fy34a/virginia_schools_ban_to_kill_a_mockingbird/
p1360
aVjavascript: void 0;
p1361
aVhttp://i.imgur.com/u1IkFio.jpg
p1362
aVhttp://i.imgur.com/u1IkFio.jpg
p1363
aVhttps://www.reddit.com/domain/i.imgur.com/
p1364
aVhttps://www.reddit.com/user/TheSanityInspector
p1365
aVhttps://www.reddit.com/r/OldSchoolCool/
p1366
aVhttps://www.reddit.com/r/OldSchoolCool/comments/5fzkdx/erika_15yearold_hungarian_antisoviet_rebel_1956/
p1367
aVjavascript: void 0;
p1368
aVhttps://www.reddit.com/r/IAmA/comments/5fxmiu/i_am_adam_savage_unemployed_explosives_expert/
p1369
aVhttps://www.reddit.com/r/IAmA/comments/5fxmiu/i_am_adam_savage_unemployed_explosives_expert/
p1370
aVhttps://www.reddit.com/r/IAmA/
p1371
aVhttps://www.reddit.com/user/mistersavage
p1372
aVhttps://www.reddit.com/r/IAmA/
p1373
aVhttps://www.reddit.com/r/IAmA/comments/5fxmiu/i_am_adam_savage_unemployed_explosives_expert/
p1374
aVjavascript: void 0;
p1375
aVhttps://www.reddit.com/r/LifeProTips/comments/5fxmbr/lpt_how_to_meal_plan_like_a_champ/
p1376
aVhttps://www.reddit.com/r/LifeProTips/comments/5fxmbr/lpt_how_to_meal_plan_like_a_champ/
p1377
aVhttps://www.reddit.com/r/LifeProTips/
p1378
aVhttps://www.reddit.com/user/atworknotworking89
p1379
aVhttps://www.reddit.com/r/LifeProTips/
p1380
aVhttps://www.reddit.com/r/LifeProTips/comments/5fxmbr/lpt_how_to_meal_plan_like_a_champ/
p1381
aVjavascript: void 0;
p1382
aVhttps://i.reddituploads.com/f129ae2dd1b84c64a791f2e6d54d5ae2?fit=max&h=1536&w=1536&s=43b90063a70be1573fae0f5eaee3f852
p1383
aVhttps://i.reddituploads.com/f129ae2dd1b84c64a791f2e6d54d5ae2?fit=max&h=1536&w=1536&s=43b90063a70be1573fae0f5eaee3f852
p1384
aVhttps://www.reddit.com/domain/i.reddituploads.com/
p1385
aVhttps://www.reddit.com/user/cassanova5
p1386
aVhttps://www.reddit.com/r/mildlyinteresting/
p1387
aVhttps://www.reddit.com/r/mildlyinteresting/comments/5g0iru/had_to_wear_a_split_on_my_broken_finger_for_so/
p1388
aVjavascript: void 0;
p1389
aVhttp://i.imgur.com/Buh6dz0.jpg
p1390
aVhttp://i.imgur.com/Buh6dz0.jpg
p1391
aVhttps://www.reddit.com/domain/i.imgur.com/
p1392
aVhttps://www.reddit.com/user/Greedish
p1393
aVhttps://www.reddit.com/r/photoshopbattles/
p1394
aVhttps://www.reddit.com/r/photoshopbattles/comments/5fy0bq/psbattle_candid_shot_at_a_brazilian_nightclub/
p1395
aVjavascript: void 0;
p1396
aVhttp://www.ibtimes.co.uk/wikileaks-releases-over-2000-files-german-inquiry-into-nsa-spying-scandal-1594441
p1397
aVhttp://www.ibtimes.co.uk/wikileaks-releases-over-2000-files-german-inquiry-into-nsa-spying-scandal-1594441
p1398
aVhttps://www.reddit.com/domain/ibtimes.co.uk/
p1399
aVhttps://www.reddit.com/user/interestedin86
p1400
aVhttps://www.reddit.com/r/worldnews/
p1401
aVhttps://www.reddit.com/r/worldnews/comments/5fxy9s/whistleblowing_website_wikileaks_has_released_a/
p1402
aVjavascript: void 0;
p1403
aVhttps://i.reddituploads.com/2dea14aa856642a9a42349a847ba43b9?fit=max&h=1536&w=1536&s=0639ccf5689cfa7b9ac8898146d4e020
p1404
aVhttps://i.reddituploads.com/2dea14aa856642a9a42349a847ba43b9?fit=max&h=1536&w=1536&s=0639ccf5689cfa7b9ac8898146d4e020
p1405
aVhttps://www.reddit.com/domain/i.reddituploads.com/
p1406
aVhttps://www.reddit.com/user/daves_not__here
p1407
aVhttps://www.reddit.com/r/food/
p1408
aVhttps://www.reddit.com/r/food/comments/5g0eqx/homemade_surf_turf_with_ribeye_lobster_tail_king/
p1409
aVjavascript: void 0;
p1410
aVhttp://www.mnhockeyhub.com/news_article/show/728662?referrer_id=32760
p1411
aVhttp://www.mnhockeyhub.com/news_article/show/728662?referrer_id=32760
p1412
aVhttps://www.reddit.com/domain/mnhockeyhub.com/
p1413
aVhttps://www.reddit.com/user/EatSleepJeep
p1414
aVhttps://www.reddit.com/r/sports/
p1415
aVhttps://www.reddit.com/r/sports/comments/5fxenq/minnesota_high_school_hockey_goalie_makes_98/
p1416
aVjavascript: void 0;
p1417
aVhttps://cdn.theatlantic.com/assets/media/img/mt/2014/06/Screen_Shot_2014_06_20_at_7.47.55_AM/lead_large.png?1430155488
p1418
aVhttps://cdn.theatlantic.com/assets/media/img/mt/2014/06/Screen_Shot_2014_06_20_at_7.47.55_AM/lead_large.png?1430155488
p1419
aVhttps://www.reddit.com/domain/cdn.theatlantic.com/
p1420
aVhttps://www.reddit.com/user/R3d_Anonymous
p1421
aVhttps://www.reddit.com/r/dataisbeautiful/
p1422
aVhttps://www.reddit.com/r/dataisbeautiful/comments/5g07zc/countries_with_mandatory_maternal_leave/
p1423
aVjavascript: void 0;
p1424
aVhttp://i.imgur.com/V1W4PIo.jpg
p1425
aVhttp://i.imgur.com/V1W4PIo.jpg
p1426
aVhttps://www.reddit.com/domain/i.imgur.com/
p1427
aVhttps://www.reddit.com/user/notbob1959
p1428
aVhttps://www.reddit.com/r/creepy/
p1429
aVhttps://www.reddit.com/r/creepy/comments/5fxbfq/group_of_girls_wear_their_gasmasks_during_a_gas/
p1430
aVjavascript: void 0;
p1431
aVhttp://www.vox.com/culture/2016/12/1/13773792/john-goodman-oscar-10-cloverfield-lane
p1432
aVhttp://www.vox.com/culture/2016/12/1/13773792/john-goodman-oscar-10-cloverfield-lane
p1433
aVhttps://www.reddit.com/domain/vox.com/
p1434
aVhttps://www.reddit.com/user/NeilPoonHandler
p1435
aVhttps://www.reddit.com/r/movies/
p1436
aVhttps://www.reddit.com/r/movies/comments/5fx37b/john_goodman_was_terrifyingly_perfect_in_10/
p1437
aVjavascript: void 0;
p1438
aVhttps://www.theguardian.com/business/2016/dec/01/nestle-discovers-way-to-slash-sugar-in-chocolate-without-changing-taste
p1439
aVhttps://www.theguardian.com/business/2016/dec/01/nestle-discovers-way-to-slash-sugar-in-chocolate-without-changing-taste
p1440
aVhttps://www.reddit.com/domain/theguardian.com/
p1441
aVhttps://www.reddit.com/user/iAmNotFunny
p1442
aVhttps://www.reddit.com/r/Futurology/
p1443
aVhttps://www.reddit.com/r/Futurology/comments/5fwru6/researchers_have_found_a_way_to_structure_sugar/
p1444
aVjavascript: void 0;
p1445
aVhttps://www.reddit.com/r/explainlikeimfive/comments/5fxbng/eli5_how_did_ancient_people_figure_out_that_sex/
p1446
aVhttps://www.reddit.com/r/explainlikeimfive/comments/5fxbng/eli5_how_did_ancient_people_figure_out_that_sex/
p1447
aVhttps://www.reddit.com/r/explainlikeimfive/
p1448
aVhttps://www.reddit.com/user/BenRayfield
p1449
aVhttps://www.reddit.com/r/explainlikeimfive/
p1450
aVhttps://www.reddit.com/r/explainlikeimfive/comments/5fxbng/eli5_how_did_ancient_people_figure_out_that_sex/
p1451
aVjavascript: void 0;
p1452
aVhttps://www.reddit.com/r/EarthPorn/comments/5fwvrl/a_freshly_snowed_mt_hood_holds_on_to_the_final/
p1453
aVhttps://www.reddit.com/r/EarthPorn/comments/5fwvrl/a_freshly_snowed_mt_hood_holds_on_to_the_final/
p1454
aVhttps://www.reddit.com/domain/i.redd.it/
p1455
aVhttps://www.reddit.com/user/steveschwindt
p1456
aVhttps://www.reddit.com/r/EarthPorn/
p1457
aVhttps://www.reddit.com/r/EarthPorn/comments/5fwvrl/a_freshly_snowed_mt_hood_holds_on_to_the_final/
p1458
aVjavascript: void 0;
p1459
aVhttp://www.independent.co.uk/arts-entertainment/tv/news/planet-earth-2-ii-young-viewers-x-factor-bbc-itv-david-attenborough-vieiwng-figures-ratings-a7449296.html
p1460
aVhttp://www.independent.co.uk/arts-entertainment/tv/news/planet-earth-2-ii-young-viewers-x-factor-bbc-itv-david-attenborough-vieiwng-figures-ratings-a7449296.html
p1461
aVhttps://www.reddit.com/domain/independent.co.uk/
p1462
aVhttps://www.reddit.com/user/snikrepab_
p1463
aVhttps://www.reddit.com/r/UpliftingNews/
p1464
aVhttps://www.reddit.com/r/UpliftingNews/comments/5fwi2c/more_young_people_are_watching_planet_earth_2/
p1465
aVjavascript: void 0;
p1466
aVhttp://www.rawstory.com/2016/12/virginia-school-pulls-finn-and-mockingbird-over-slurs-its-not-right-to-put-that-in-a-book/
p1467
aVhttp://www.rawstory.com/2016/12/virginia-school-pulls-finn-and-mockingbird-over-slurs-its-not-right-to-put-that-in-a-book/
p1468
aVhttps://www.reddit.com/domain/rawstory.com/
p1469
aVhttps://www.reddit.com/user/judeharte
p1470
aVhttps://www.reddit.com/r/books/
p1471
aVhttps://www.reddit.com/r/books/comments/5fwor3/virginia_school_pulls_finn_and_mockingbird_over/
p1472
aVjavascript: void 0;
p1473
aVhttps://www.reddit.com/?count=25&after=t3_5fwor3
p1474
aVhttps://www.reddit.com/r/random
p1475
aVhttps://www.reddit.com/blog/
p1476
aVhttps://about.reddit.com/
p1477
aVhttps://www.reddit.com/code/
p1478
aVhttps://www.reddit.com/advertising/
p1479
aVhttps://www.reddit.com/jobs/
p1480
aVhttps://www.reddit.com/rules/
p1481
aVhttps://reddit.zendesk.com
p1482
aVhttps://www.reddit.com/wiki/
p1483
aVhttps://www.reddit.com/wiki/reddiquette/
p1484
aVhttps://www.reddit.com/wiki/transparency/
p1485
aVhttps://www.reddit.com/contact/
p1486
aVhttps://itunes.apple.com/us/app/reddit-the-official-app/id1064216828?mt=8
p1487
aVhttps://play.google.com/store/apps/details?id=com.reddit.frontpage
p1488
aS'https://www.reddit.com/'
p1489
aVhttps://www.reddit.com/buttons/
p1490
aVhttps://www.reddit.com/gold/about/
p1491
aVhttp://redditgifts.com
p1492
aVhttps://www.reddit.com/help/useragreement
p1493
aVhttps://www.reddit.com/help/privacypolicy
p1494
asS'https://www.reddit.com/r/creepy/'
p1495
(lp1496
sS'https://www.reddit.com/r/announcements/'
p1497
(lp1498
Vhttps://www.reddit.com/r/announcements/#content
p1499
aVhttps://www.reddit.com/r/announcements/
p1500
aVhttps://www.reddit.com/r/Art/
p1501
aVhttps://www.reddit.com/r/AskReddit/
p1502
aVhttps://www.reddit.com/r/askscience/
p1503
aVhttps://www.reddit.com/r/aww/
p1504
aVhttps://www.reddit.com/r/blog/
p1505
aVhttps://www.reddit.com/r/books/
p1506
aVhttps://www.reddit.com/r/creepy/
p1507
aVhttps://www.reddit.com/r/dataisbeautiful/
p1508
aVhttps://www.reddit.com/r/DIY/
p1509
aVhttps://www.reddit.com/r/Documentaries/
p1510
aVhttps://www.reddit.com/r/EarthPorn/
p1511
aVhttps://www.reddit.com/r/explainlikeimfive/
p1512
aVhttps://www.reddit.com/r/food/
p1513
aVhttps://www.reddit.com/r/funny/
p1514
aVhttps://www.reddit.com/r/Futurology/
p1515
aVhttps://www.reddit.com/r/gadgets/
p1516
aVhttps://www.reddit.com/r/gaming/
p1517
aVhttps://www.reddit.com/r/GetMotivated/
p1518
aVhttps://www.reddit.com/r/gifs/
p1519
aVhttps://www.reddit.com/r/history/
p1520
aVhttps://www.reddit.com/r/IAmA/
p1521
aVhttps://www.reddit.com/r/InternetIsBeautiful/
p1522
aVhttps://www.reddit.com/r/Jokes/
p1523
aVhttps://www.reddit.com/r/LifeProTips/
p1524
aVhttps://www.reddit.com/r/listentothis/
p1525
aVhttps://www.reddit.com/r/mildlyinteresting/
p1526
aVhttps://www.reddit.com/r/movies/
p1527
aVhttps://www.reddit.com/r/Music/
p1528
aVhttps://www.reddit.com/r/news/
p1529
aVhttps://www.reddit.com/r/nosleep/
p1530
aVhttps://www.reddit.com/r/nottheonion/
p1531
aVhttps://www.reddit.com/r/OldSchoolCool/
p1532
aVhttps://www.reddit.com/r/personalfinance/
p1533
aVhttps://www.reddit.com/r/philosophy/
p1534
aVhttps://www.reddit.com/r/photoshopbattles/
p1535
aVhttps://www.reddit.com/r/pics/
p1536
aVhttps://www.reddit.com/r/science/
p1537
aVhttps://www.reddit.com/r/Showerthoughts/
p1538
aVhttps://www.reddit.com/r/space/
p1539
aVhttps://www.reddit.com/r/sports/
p1540
aVhttps://www.reddit.com/r/television/
p1541
aVhttps://www.reddit.com/r/tifu/
p1542
aVhttps://www.reddit.com/r/todayilearned/
p1543
aVhttps://www.reddit.com/r/TwoXChromosomes/
p1544
aVhttps://www.reddit.com/r/UpliftingNews/
p1545
aVhttps://www.reddit.com/r/videos/
p1546
aVhttps://www.reddit.com/r/worldnews/
p1547
aVhttps://www.reddit.com/r/WritingPrompts/
p1548
aVhttps://www.reddit.com/subreddits/
p1549
aVhttps://www.reddit.com/
p1550
aVhttps://www.reddit.com/r/all/
p1551
aVhttps://www.reddit.com/r/random/
p1552
aVhttps://www.reddit.com/r/AskReddit/
p1553
aVhttps://www.reddit.com/r/funny/
p1554
aVhttps://www.reddit.com/r/gaming/
p1555
aVhttps://www.reddit.com/r/todayilearned/
p1556
aVhttps://www.reddit.com/r/pics/
p1557
aVhttps://www.reddit.com/r/videos/
p1558
aVhttps://www.reddit.com/r/IAmA/
p1559
aVhttps://www.reddit.com/r/gifs/
p1560
aVhttps://www.reddit.com/r/worldnews/
p1561
aVhttps://www.reddit.com/r/news/
p1562
aVhttps://www.reddit.com/r/aww/
p1563
aVhttps://www.reddit.com/r/announcements/
p1564
aVhttps://www.reddit.com/r/movies/
p1565
aVhttps://www.reddit.com/r/Showerthoughts/
p1566
aVhttps://www.reddit.com/r/Jokes/
p1567
aVhttps://www.reddit.com/r/mildlyinteresting/
p1568
aVhttps://www.reddit.com/r/television/
p1569
aVhttps://www.reddit.com/r/Futurology/
p1570
aVhttps://www.reddit.com/r/OldSchoolCool/
p1571
aVhttps://www.reddit.com/r/explainlikeimfive/
p1572
aVhttps://www.reddit.com/r/food/
p1573
aVhttps://www.reddit.com/r/nottheonion/
p1574
aVhttps://www.reddit.com/r/science/
p1575
aVhttps://www.reddit.com/r/space/
p1576
aVhttps://www.reddit.com/r/books/
p1577
aVhttps://www.reddit.com/r/UpliftingNews/
p1578
aVhttps://www.reddit.com/r/LifeProTips/
p1579
aVhttps://www.reddit.com/r/tifu/
p1580
aVhttps://www.reddit.com/r/TwoXChromosomes/
p1581
aVhttps://www.reddit.com/r/sports/
p1582
aVhttps://www.reddit.com/r/WritingPrompts/
p1583
aVhttps://www.reddit.com/r/Art/
p1584
aVhttps://www.reddit.com/r/Music/
p1585
aVhttps://www.reddit.com/r/Documentaries/
p1586
aVhttps://www.reddit.com/r/EarthPorn/
p1587
aVhttps://www.reddit.com/r/personalfinance/
p1588
aVhttps://www.reddit.com/r/nosleep/
p1589
aVhttps://www.reddit.com/r/photoshopbattles/
p1590
aVhttps://www.reddit.com/r/dataisbeautiful/
p1591
aVhttps://www.reddit.com/r/askscience/
p1592
aVhttps://www.reddit.com/r/creepy/
p1593
aVhttps://www.reddit.com/r/GetMotivated/
p1594
aVhttps://www.reddit.com/r/DIY/
p1595
aVhttps://www.reddit.com/r/history/
p1596
aVhttps://www.reddit.com/r/gadgets/
p1597
aVhttps://www.reddit.com/r/listentothis/
p1598
aVhttps://www.reddit.com/r/InternetIsBeautiful/
p1599
aVhttps://www.reddit.com/r/philosophy/
p1600
aVhttps://www.reddit.com/r/blog/
p1601
aVhttps://www.reddit.com/subreddits/
p1602
aVhttps://www.reddit.com/
p1603
aVhttps://www.reddit.com/r/announcements/
p1604
aVhttps://www.reddit.com/r/announcements/
p1605
aVhttps://www.reddit.com/r/announcements/new/
p1606
aVhttps://www.reddit.com/r/announcements/rising/
p1607
aVhttps://www.reddit.com/r/announcements/controversial/
p1608
aVhttps://www.reddit.com/r/announcements/top/
p1609
aVhttps://www.reddit.com/r/announcements/gilded/
p1610
aVhttps://www.reddit.com/r/announcements/ads/
p1611
aVhttps://www.reddit.com/login
p1612
aVjavascript:void(0)
p1613
aVhttps://www.reddit.com/wiki/search
p1614
aVhttps://www.reddit.com/wiki/search
p1615
aVhttps://www.reddit.com/password
p1616
aVhttps://www.reddit.com/r/announcements/
p1617
aS'https://www.reddit.com/r/announcements/'
p1618
aS'https://www.reddit.com/r/announcements/'
p1619
aVhttps://www.reddit.com/r/blog
p1620
aVhttps://www.reddit.com/r/changelog
p1621
aVhttps://www.reddit.com/message/compose?to=%2Fr%2Fannouncements
p1622
aVhttps://www.reddit.com/user/spladug
p1623
aVhttps://www.reddit.com/user/bsimpson
p1624
aVhttps://www.reddit.com/user/rram
p1625
aVhttps://www.reddit.com/user/spez
p1626
aVhttps://www.reddit.com/user/Mart2d2
p1627
aVhttps://www.reddit.com/user/gooeyblob
p1628
aVhttps://www.reddit.com/user/umbrae
p1629
aVhttps://www.reddit.com/user/ggAlex
p1630
aVhttps://www.reddit.com/user/starfishjenga
p1631
aVhttps://www.reddit.com/user/Amg137
p1632
aVhttps://www.reddit.com/r/announcements/about/moderators
p1633
aVhttps://www.reddit.com/newsletter
p1634
aS'https://www.reddit.com/r/announcements/'
p1635
aVhttps://www.reddit.com/wiki/selfserve
p1636
aVhttps://www.reddit.com/advertising
p1637
aVhttps://www.reddit.com/r/ads
p1638
aVhttps://www.reddit.com/subreddits/
p1639
aVhttps://www.reddit.com/r/announcements/comments/5frg1n/tifu_by_editing_some_comments_and_creating_an/
p1640
aVhttps://www.reddit.com/r/announcements/comments/5frg1n/tifu_by_editing_some_comments_and_creating_an/
p1641
aVhttps://www.reddit.com/r/announcements/
p1642
aVhttps://www.reddit.com/user/spez
p1643
aVhttps://www.reddit.com/r/announcements/comments/5frg1n/tifu_by_editing_some_comments_and_creating_an/
p1644
aVjavascript: void 0;
p1645
aVhttps://www.reddit.com/r/announcements/comments/59k22p/hey_its_reddits_totally_politically_neutral_ceo/
p1646
aVhttps://www.reddit.com/r/announcements/comments/59k22p/hey_its_reddits_totally_politically_neutral_ceo/
p1647
aVhttps://www.reddit.com/r/announcements/
p1648
aVhttps://www.reddit.com/user/spez
p1649
aVhttps://www.reddit.com/r/announcements/comments/59k22p/hey_its_reddits_totally_politically_neutral_ceo/
p1650
aVjavascript: void 0;
p1651
aVhttps://www.reddit.com/r/announcements/comments/585n8l/adding_rbaseball_as_a_default_community_for_the/
p1652
aVhttps://www.reddit.com/r/announcements/comments/585n8l/adding_rbaseball_as_a_default_community_for_the/
p1653
aVhttps://www.reddit.com/r/announcements/
p1654
aVhttps://www.reddit.com/user/sodypop
p1655
aVhttps://www.reddit.com/r/announcements/comments/585n8l/adding_rbaseball_as_a_default_community_for_the/
p1656
aVjavascript: void 0;
p1657
aVhttps://www.reddit.com/r/announcements/comments/4y0m56/why_reddit_was_down_on_aug_11/
p1658
aVhttps://www.reddit.com/r/announcements/comments/4y0m56/why_reddit_was_down_on_aug_11/
p1659
aVhttps://www.reddit.com/r/announcements/
p1660
aVhttps://www.reddit.com/user/gooeyblob
p1661
aVhttps://www.reddit.com/r/announcements/comments/4y0m56/why_reddit_was_down_on_aug_11/
p1662
aVjavascript: void 0;
p1663
aVhttps://www.reddit.com/r/announcements/comments/4x35a3/click_to_hear_about_some_of_the_things_that_have/
p1664
aVhttps://www.reddit.com/r/announcements/comments/4x35a3/click_to_hear_about_some_of_the_things_that_have/
p1665
aVhttps://www.reddit.com/r/announcements/
p1666
aVhttps://www.reddit.com/user/spez
p1667
aVhttps://www.reddit.com/r/announcements/comments/4x35a3/click_to_hear_about_some_of_the_things_that_have/
p1668
aVjavascript: void 0;
p1669
aVhttps://www.reddit.com/r/announcements/comments/4w5nyr/adding_rolympics_as_a_default_community/
p1670
aVhttps://www.reddit.com/r/announcements/comments/4w5nyr/adding_rolympics_as_a_default_community/
p1671
aVhttps://www.reddit.com/r/announcements/
p1672
aVhttps://www.reddit.com/user/redtaboo
p1673
aVhttps://www.reddit.com/r/announcements/comments/4w5nyr/adding_rolympics_as_a_default_community/
p1674
aVjavascript: void 0;
p1675
aVhttps://www.reddit.com/r/announcements/comments/4upf11/new_ad_type_promoted_user_posts/
p1676
aVhttps://www.reddit.com/r/announcements/comments/4upf11/new_ad_type_promoted_user_posts/
p1677
aVhttps://www.reddit.com/r/announcements/
p1678
aVhttps://www.reddit.com/user/starfishjenga
p1679
aVhttps://www.reddit.com/r/announcements/comments/4upf11/new_ad_type_promoted_user_posts/
p1680
aVjavascript: void 0;
p1681
aVhttps://www.reddit.com/r/announcements/comments/4tmb16/karma_for_textposts_aka_selfposts/
p1682
aVhttps://www.reddit.com/r/announcements/comments/4tmb16/karma_for_textposts_aka_selfposts/
p1683
aVhttps://www.reddit.com/r/announcements/
p1684
aVhttps://www.reddit.com/user/powerlanguage
p1685
aVhttps://www.reddit.com/r/announcements/comments/4tmb16/karma_for_textposts_aka_selfposts/
p1686
aVjavascript: void 0;
p1687
aVhttps://www.reddit.com/r/announcements/comments/4p5dm9/image_hosting_on_reddit/
p1688
aVhttps://www.reddit.com/r/announcements/comments/4p5dm9/image_hosting_on_reddit/
p1689
aVhttps://www.reddit.com/domain/i.redd.it/
p1690
aVhttps://www.reddit.com/user/Amg137
p1691
aVhttps://www.reddit.com/r/announcements/comments/4p5dm9/image_hosting_on_reddit/
p1692
aVjavascript: void 0;
p1693
aVhttps://www.reddit.com/r/announcements/comments/4phzsi/sponsored_headline_tests_placement_and_design/
p1694
aVhttps://www.reddit.com/r/announcements/comments/4phzsi/sponsored_headline_tests_placement_and_design/
p1695
aVhttps://www.reddit.com/r/announcements/
p1696
aVhttps://www.reddit.com/user/starfishjenga
p1697
aVhttps://www.reddit.com/r/announcements/comments/4phzsi/sponsored_headline_tests_placement_and_design/
p1698
aVjavascript: void 0;
p1699
aVhttps://www.reddit.com/r/announcements/comments/4oedco/lets_all_have_a_town_hall_about_rall/
p1700
aVhttps://www.reddit.com/r/announcements/comments/4oedco/lets_all_have_a_town_hall_about_rall/
p1701
aVhttps://www.reddit.com/r/announcements/
p1702
aVhttps://www.reddit.com/user/spez
p1703
aVhttps://www.reddit.com/r/announcements/comments/4oedco/lets_all_have_a_town_hall_about_rall/
p1704
aVjavascript: void 0;
p1705
aVhttps://www.reddit.com/r/announcements/comments/4ny59k/lets_talk_about_orlando/
p1706
aVhttps://www.reddit.com/r/announcements/comments/4ny59k/lets_talk_about_orlando/
p1707
aVhttps://www.reddit.com/r/announcements/
p1708
aVhttps://www.reddit.com/user/spez
p1709
aVhttps://www.reddit.com/r/announcements/comments/4ny59k/lets_talk_about_orlando/
p1710
aVjavascript: void 0;
p1711
aVhttps://www.reddit.com/r/announcements/comments/4nc81l/new_look_on_reddit_mobile_web_compact_view/
p1712
aVhttps://www.reddit.com/r/announcements/comments/4nc81l/new_look_on_reddit_mobile_web_compact_view/
p1713
aVhttps://www.reddit.com/r/announcements/
p1714
aVhttps://www.reddit.com/user/Amg137
p1715
aVhttps://www.reddit.com/r/announcements/comments/4nc81l/new_look_on_reddit_mobile_web_compact_view/
p1716
aVjavascript: void 0;
p1717
aVhttps://www.reddit.com/r/announcements/comments/4mv578/affiliate_links_on_reddit/
p1718
aVhttps://www.reddit.com/r/announcements/comments/4mv578/affiliate_links_on_reddit/
p1719
aVhttps://www.reddit.com/r/announcements/
p1720
aVhttps://www.reddit.com/user/starfishjenga
p1721
aVhttps://www.reddit.com/r/announcements/comments/4mv578/affiliate_links_on_reddit/
p1722
aVjavascript: void 0;
p1723
aVhttps://www.reddit.com/r/announcements/comments/4megfw/ama_about_my_darkest_secrets/
p1724
aVhttps://www.reddit.com/r/announcements/comments/4megfw/ama_about_my_darkest_secrets/
p1725
aVhttps://www.reddit.com/r/announcements/
p1726
aVhttps://www.reddit.com/user/spez
p1727
aVhttps://www.reddit.com/r/announcements/comments/4megfw/ama_about_my_darkest_secrets/
p1728
aVjavascript: void 0;
p1729
aVhttps://www.reddit.com/r/announcements/comments/4l60nc/reddit_account_security_and_you/
p1730
aVhttps://www.reddit.com/r/announcements/comments/4l60nc/reddit_account_security_and_you/
p1731
aVhttps://www.reddit.com/r/announcements/
p1732
aVhttps://www.reddit.com/user/KeyserSosa
p1733
aVhttps://www.reddit.com/r/announcements/comments/4l60nc/reddit_account_security_and_you/
p1734
aVjavascript: void 0;
p1735
aVhttps://www.reddit.com/r/announcements/comments/4dqxgt/reddit_mobile_apps/
p1736
aVhttps://www.reddit.com/r/announcements/comments/4dqxgt/reddit_mobile_apps/
p1737
aVhttps://www.reddit.com/r/announcements/
p1738
aVhttps://www.reddit.com/user/ggAlex
p1739
aVhttps://www.reddit.com/r/announcements/comments/4dqxgt/reddit_mobile_apps/
p1740
aVjavascript: void 0;
p1741
aVhttps://www.reddit.com/r/announcements/comments/4dmnn6/new_and_improved_block_user_feature_in_your_inbox/
p1742
aVhttps://www.reddit.com/r/announcements/comments/4dmnn6/new_and_improved_block_user_feature_in_your_inbox/
p1743
aVhttps://www.reddit.com/r/announcements/
p1744
aVhttps://www.reddit.com/user/KeyserSosa
p1745
aVhttps://www.reddit.com/r/announcements/comments/4dmnn6/new_and_improved_block_user_feature_in_your_inbox/
p1746
aVjavascript: void 0;
p1747
aVhttps://www.reddit.com/r/announcements/comments/4cqyia/for_your_reading_pleasure_our_2015_transparency/
p1748
aVhttps://www.reddit.com/r/announcements/comments/4cqyia/for_your_reading_pleasure_our_2015_transparency/
p1749
aVhttps://www.reddit.com/r/announcements/
p1750
aVhttps://www.reddit.com/user/spez
p1751
aVhttps://www.reddit.com/r/announcements/comments/4cqyia/for_your_reading_pleasure_our_2015_transparency/
p1752
aVjavascript: void 0;
p1753
aVhttps://www.reddit.com/r/announcements/comments/4ch0pv/updates_to_our_media_previews/
p1754
aVhttps://www.reddit.com/r/announcements/comments/4ch0pv/updates_to_our_media_previews/
p1755
aVhttps://www.reddit.com/r/announcements/
p1756
aVhttps://www.reddit.com/user/powerlanguage
p1757
aVhttps://www.reddit.com/r/announcements/comments/4ch0pv/updates_to_our_media_previews/
p1758
aVjavascript: void 0;
p1759
aVhttps://www.reddit.com/r/announcements/comments/434h6c/reddit_in_2016/
p1760
aVhttps://www.reddit.com/r/announcements/comments/434h6c/reddit_in_2016/
p1761
aVhttps://www.reddit.com/r/announcements/
p1762
aVhttps://www.reddit.com/user/spez
p1763
aVhttps://www.reddit.com/r/announcements/comments/434h6c/reddit_in_2016/
p1764
aVjavascript: void 0;
p1765
aVhttps://www.reddit.com/r/announcements/comments/3tlcil/we_are_updating_our_privacy_policy_effective_jan/
p1766
aVhttps://www.reddit.com/r/announcements/comments/3tlcil/we_are_updating_our_privacy_policy_effective_jan/
p1767
aVhttps://www.reddit.com/r/announcements/
p1768
aVhttps://www.reddit.com/user/spez
p1769
aVhttps://www.reddit.com/r/announcements/comments/3tlcil/we_are_updating_our_privacy_policy_effective_jan/
p1770
aVjavascript: void 0;
p1771
aVhttps://www.reddit.com/r/announcements/comments/3sqxbb/france/
p1772
aVhttps://www.reddit.com/r/announcements/comments/3sqxbb/france/
p1773
aVhttps://www.reddit.com/r/announcements/
p1774
aVhttps://www.reddit.com/user/reddit
p1775
aVhttps://www.reddit.com/r/announcements/comments/3sqxbb/france/
p1776
aVjavascript: void 0;
p1777
aVhttps://www.reddit.com/r/announcements/comments/3sbrro/account_suspensions_a_transparent_alternative_to/
p1778
aVhttps://www.reddit.com/r/announcements/comments/3sbrro/account_suspensions_a_transparent_alternative_to/
p1779
aVhttps://www.reddit.com/r/announcements/
p1780
aVhttps://www.reddit.com/user/powerlanguage
p1781
aVhttps://www.reddit.com/r/announcements/comments/3sbrro/account_suspensions_a_transparent_alternative_to/
p1782
aVjavascript: void 0;
p1783
aVhttps://www.reddit.com/r/announcements/comments/3p4shh/ceo_steve_here_to_answer_more_questions/
p1784
aVhttps://www.reddit.com/r/announcements/comments/3p4shh/ceo_steve_here_to_answer_more_questions/
p1785
aVhttps://www.reddit.com/r/announcements/
p1786
aVhttps://www.reddit.com/user/spez
p1787
aVhttps://www.reddit.com/r/announcements/comments/3p4shh/ceo_steve_here_to_answer_more_questions/
p1788
aVjavascript: void 0;
p1789
aVhttps://www.reddit.com/r/announcements/?count=25&after=t3_3p4shh
p1790
aVhttps://www.reddit.com/blog/
p1791
aVhttps://about.reddit.com/
p1792
aVhttps://www.reddit.com/code/
p1793
aVhttps://www.reddit.com/advertising/
p1794
aVhttps://www.reddit.com/jobs/
p1795
aVhttps://www.reddit.com/rules/
p1796
aVhttps://reddit.zendesk.com
p1797
aVhttps://www.reddit.com/wiki/
p1798
aVhttps://www.reddit.com/wiki/reddiquette/
p1799
aVhttps://www.reddit.com/wiki/transparency/
p1800
aVhttps://www.reddit.com/contact/
p1801
aVhttps://itunes.apple.com/us/app/reddit-the-official-app/id1064216828?mt=8
p1802
aVhttps://play.google.com/store/apps/details?id=com.reddit.frontpage
p1803
aS'https://www.reddit.com/r/announcements/'
p1804
aVhttps://www.reddit.com/buttons/
p1805
aVhttps://www.reddit.com/gold/about/
p1806
aVhttp://redditgifts.com
p1807
aVhttps://www.reddit.com/help/useragreement
p1808
aVhttps://www.reddit.com/help/privacypolicy
p1809
aVhttps://www.reddit.com/advertising
p1810
asS'https://www.reddit.com/r/blog/'
p1811
(lp1812
Vhttps://www.reddit.com/r/blog/#content
p1813
aVhttps://www.reddit.com/r/announcements/
p1814
aVhttps://www.reddit.com/r/Art/
p1815
aVhttps://www.reddit.com/r/AskReddit/
p1816
aVhttps://www.reddit.com/r/askscience/
p1817
aVhttps://www.reddit.com/r/aww/
p1818
aVhttps://www.reddit.com/r/blog/
p1819
aVhttps://www.reddit.com/r/books/
p1820
aVhttps://www.reddit.com/r/creepy/
p1821
aVhttps://www.reddit.com/r/dataisbeautiful/
p1822
aVhttps://www.reddit.com/r/DIY/
p1823
aVhttps://www.reddit.com/r/Documentaries/
p1824
aVhttps://www.reddit.com/r/EarthPorn/
p1825
aVhttps://www.reddit.com/r/explainlikeimfive/
p1826
aVhttps://www.reddit.com/r/food/
p1827
aVhttps://www.reddit.com/r/funny/
p1828
aVhttps://www.reddit.com/r/Futurology/
p1829
aVhttps://www.reddit.com/r/gadgets/
p1830
aVhttps://www.reddit.com/r/gaming/
p1831
aVhttps://www.reddit.com/r/GetMotivated/
p1832
aVhttps://www.reddit.com/r/gifs/
p1833
aVhttps://www.reddit.com/r/history/
p1834
aVhttps://www.reddit.com/r/IAmA/
p1835
aVhttps://www.reddit.com/r/InternetIsBeautiful/
p1836
aVhttps://www.reddit.com/r/Jokes/
p1837
aVhttps://www.reddit.com/r/LifeProTips/
p1838
aVhttps://www.reddit.com/r/listentothis/
p1839
aVhttps://www.reddit.com/r/mildlyinteresting/
p1840
aVhttps://www.reddit.com/r/movies/
p1841
aVhttps://www.reddit.com/r/Music/
p1842
aVhttps://www.reddit.com/r/news/
p1843
aVhttps://www.reddit.com/r/nosleep/
p1844
aVhttps://www.reddit.com/r/nottheonion/
p1845
aVhttps://www.reddit.com/r/OldSchoolCool/
p1846
aVhttps://www.reddit.com/r/personalfinance/
p1847
aVhttps://www.reddit.com/r/philosophy/
p1848
aVhttps://www.reddit.com/r/photoshopbattles/
p1849
aVhttps://www.reddit.com/r/pics/
p1850
aVhttps://www.reddit.com/r/science/
p1851
aVhttps://www.reddit.com/r/Showerthoughts/
p1852
aVhttps://www.reddit.com/r/space/
p1853
aVhttps://www.reddit.com/r/sports/
p1854
aVhttps://www.reddit.com/r/television/
p1855
aVhttps://www.reddit.com/r/tifu/
p1856
aVhttps://www.reddit.com/r/todayilearned/
p1857
aVhttps://www.reddit.com/r/TwoXChromosomes/
p1858
aVhttps://www.reddit.com/r/UpliftingNews/
p1859
aVhttps://www.reddit.com/r/videos/
p1860
aVhttps://www.reddit.com/r/worldnews/
p1861
aVhttps://www.reddit.com/r/WritingPrompts/
p1862
aVhttps://www.reddit.com/subreddits/
p1863
aVhttps://www.reddit.com/
p1864
aVhttps://www.reddit.com/r/all/
p1865
aVhttps://www.reddit.com/r/random/
p1866
aVhttps://www.reddit.com/r/AskReddit/
p1867
aVhttps://www.reddit.com/r/funny/
p1868
aVhttps://www.reddit.com/r/gaming/
p1869
aVhttps://www.reddit.com/r/todayilearned/
p1870
aVhttps://www.reddit.com/r/pics/
p1871
aVhttps://www.reddit.com/r/videos/
p1872
aVhttps://www.reddit.com/r/IAmA/
p1873
aVhttps://www.reddit.com/r/gifs/
p1874
aVhttps://www.reddit.com/r/worldnews/
p1875
aVhttps://www.reddit.com/r/news/
p1876
aVhttps://www.reddit.com/r/aww/
p1877
aVhttps://www.reddit.com/r/announcements/
p1878
aVhttps://www.reddit.com/r/movies/
p1879
aVhttps://www.reddit.com/r/Showerthoughts/
p1880
aVhttps://www.reddit.com/r/Jokes/
p1881
aVhttps://www.reddit.com/r/mildlyinteresting/
p1882
aVhttps://www.reddit.com/r/television/
p1883
aVhttps://www.reddit.com/r/Futurology/
p1884
aVhttps://www.reddit.com/r/OldSchoolCool/
p1885
aVhttps://www.reddit.com/r/explainlikeimfive/
p1886
aVhttps://www.reddit.com/r/food/
p1887
aVhttps://www.reddit.com/r/nottheonion/
p1888
aVhttps://www.reddit.com/r/science/
p1889
aVhttps://www.reddit.com/r/space/
p1890
aVhttps://www.reddit.com/r/books/
p1891
aVhttps://www.reddit.com/r/UpliftingNews/
p1892
aVhttps://www.reddit.com/r/LifeProTips/
p1893
aVhttps://www.reddit.com/r/tifu/
p1894
aVhttps://www.reddit.com/r/TwoXChromosomes/
p1895
aVhttps://www.reddit.com/r/sports/
p1896
aVhttps://www.reddit.com/r/WritingPrompts/
p1897
aVhttps://www.reddit.com/r/Art/
p1898
aVhttps://www.reddit.com/r/Music/
p1899
aVhttps://www.reddit.com/r/Documentaries/
p1900
aVhttps://www.reddit.com/r/EarthPorn/
p1901
aVhttps://www.reddit.com/r/personalfinance/
p1902
aVhttps://www.reddit.com/r/nosleep/
p1903
aVhttps://www.reddit.com/r/photoshopbattles/
p1904
aVhttps://www.reddit.com/r/dataisbeautiful/
p1905
aVhttps://www.reddit.com/r/askscience/
p1906
aVhttps://www.reddit.com/r/creepy/
p1907
aVhttps://www.reddit.com/r/GetMotivated/
p1908
aVhttps://www.reddit.com/r/DIY/
p1909
aVhttps://www.reddit.com/r/history/
p1910
aVhttps://www.reddit.com/r/gadgets/
p1911
aVhttps://www.reddit.com/r/listentothis/
p1912
aVhttps://www.reddit.com/r/InternetIsBeautiful/
p1913
aVhttps://www.reddit.com/r/philosophy/
p1914
aVhttps://www.reddit.com/r/blog/
p1915
aVhttps://www.reddit.com/subreddits/
p1916
aVhttps://www.reddit.com/
p1917
aVhttps://www.reddit.com/r/blog/
p1918
aVhttps://www.reddit.com/r/blog/
p1919
aVhttps://www.reddit.com/r/blog/new/
p1920
aVhttps://www.reddit.com/r/blog/rising/
p1921
aVhttps://www.reddit.com/r/blog/controversial/
p1922
aVhttps://www.reddit.com/r/blog/top/
p1923
aVhttps://www.reddit.com/r/blog/gilded/
p1924
aVhttps://www.reddit.com/r/blog/ads/
p1925
aVhttps://www.reddit.com/login
p1926
aVjavascript:void(0)
p1927
aVhttps://www.reddit.com/wiki/search
p1928
aVhttps://www.reddit.com/wiki/search
p1929
aVhttps://www.reddit.com/password
p1930
aVhttps://www.reddit.com/r/blog/
p1931
aS'https://www.reddit.com/r/blog/'
p1932
aS'https://www.reddit.com/r/blog/'
p1933
aVhttp://redditblog.com
p1934
aVhttps://www.reddit.com/r/announcements
p1935
aVhttps://www.reddit.com/r/changelog
p1936
aVhttps://www.reddit.com/message/compose?to=%2Fr%2Fblog
p1937
aVhttps://www.reddit.com/user/spladug
p1938
aVhttps://www.reddit.com/user/alienth
p1939
aVhttps://www.reddit.com/user/bsimpson
p1940
aVhttps://www.reddit.com/user/rram
p1941
aVhttps://www.reddit.com/user/powerlanguage
p1942
aVhttps://www.reddit.com/user/bluepinkblack
p1943
aVhttps://www.reddit.com/user/sodypop
p1944
aVhttps://www.reddit.com/user/rhymeswithAndrew
p1945
aVhttps://www.reddit.com/r/blog/about/moderators
p1946
aVhttps://www.reddit.com/newsletter
p1947
aS'https://www.reddit.com/r/blog/'
p1948
aVhttps://www.reddit.com/wiki/selfserve
p1949
aVhttps://www.reddit.com/advertising
p1950
aVhttps://www.reddit.com/r/ads
p1951
aVhttps://www.reddit.com/subreddits/
p1952
aVhttps://www.redditgifts.com/exchanges/secret-santa-2016/
p1953
aVhttps://www.redditgifts.com/exchanges/secret-santa-2016/
p1954
aVhttps://www.reddit.com/domain/redditgifts.com/
p1955
aVhttps://www.reddit.com/user/bluepinkblack
p1956
aVhttps://www.reddit.com/r/blog/comments/5e5hpw/nearly_84000_redditors_from_154_countries_have/
p1957
aVjavascript: void 0;
p1958
aVhttps://www.reddit.com/r/blog/comments/5bac3w/its_time_for_extra_life_help_us_raise_money_for/
p1959
aVhttps://www.reddit.com/r/blog/comments/5bac3w/its_time_for_extra_life_help_us_raise_money_for/
p1960
aVhttps://www.reddit.com/r/blog/
p1961
aVhttps://www.reddit.com/user/sodypop
p1962
aVhttps://www.reddit.com/r/blog/comments/5bac3w/its_time_for_extra_life_help_us_raise_money_for/
p1963
aVjavascript: void 0;
p1964
aVhttps://www.redditgifts.com/exchanges/secret-santa-2016/
p1965
aVhttps://www.redditgifts.com/exchanges/secret-santa-2016/
p1966
aVhttps://www.reddit.com/domain/redditgifts.com/
p1967
aVhttps://www.reddit.com/user/bluepinkblack
p1968
aVhttps://www.reddit.com/r/blog/comments/5ak8dj/join_a_reddit_tradition_in_its_8th_straight_year/
p1969
aVjavascript: void 0;
p1970
aVhttps://redditblog.com/2016/10/25/extra-life-is-almost-here/
p1971
aVhttps://redditblog.com/2016/10/25/extra-life-is-almost-here/
p1972
aVhttps://www.reddit.com/domain/redditblog.com/
p1973
aVhttps://www.reddit.com/user/sodypop
p1974
aVhttps://www.reddit.com/r/blog/comments/59c3ou/extra_life_is_almost_here_join_us_on_november_5th/
p1975
aVjavascript: void 0;
p1976
aVhttps://redditblog.com/2016/09/26/join-us-for-extra-life-a-24-hour-gaming-marathon-benefiting-childrens-hospitals/
p1977
aVhttps://redditblog.com/2016/09/26/join-us-for-extra-life-a-24-hour-gaming-marathon-benefiting-childrens-hospitals/
p1978
aVhttps://www.reddit.com/domain/redditblog.com/
p1979
aVhttps://www.reddit.com/user/sodypop
p1980
aVhttps://www.reddit.com/r/blog/comments/54lwpx/join_team_reddit_for_extra_life_the_24hour_gaming/
p1981
aVjavascript: void 0;
p1982
aVhttps://www.redditgifts.com/teachers/
p1983
aVhttps://www.redditgifts.com/teachers/
p1984
aVhttps://www.reddit.com/domain/redditgifts.com/
p1985
aVhttps://www.reddit.com/user/bluepinkblack
p1986
aVhttps://www.reddit.com/r/blog/comments/4vo7is/reddit_gifts_for_the_teachers_2016_has_arrived_in/
p1987
aVjavascript: void 0;
p1988
aVhttp://www.redditblog.com/2016/06/global-reddit-meetup-day-one-week-away.html
p1989
aVhttp://www.redditblog.com/2016/06/global-reddit-meetup-day-one-week-away.html
p1990
aVhttps://www.reddit.com/domain/redditblog.com/
p1991
aVhttps://www.reddit.com/user/bluepinkblack
p1992
aVhttps://www.reddit.com/r/blog/comments/4o8cr2/global_reddit_meetup_day_2016_one_week_away/
p1993
aVjavascript: void 0;
p1994
aVhttps://www.redditgifts.com/exchanges/arbitrary-day-2016/
p1995
aVhttps://www.redditgifts.com/exchanges/arbitrary-day-2016/
p1996
aVhttps://www.reddit.com/domain/redditgifts.com/
p1997
aVhttps://www.reddit.com/user/bluepinkblack
p1998
aVhttps://www.reddit.com/r/blog/comments/4mtja4/reddit_gifts_summer_secret_santa/
p1999
aVjavascript: void 0;
p2000
aVhttp://www.redditblog.com/2016/05/global-reddit-meetup-day-is-june-25.html
p2001
aVhttp://www.redditblog.com/2016/05/global-reddit-meetup-day-is-june-25.html
p2002
aVhttps://www.reddit.com/domain/redditblog.com/
p2003
aVhttps://www.reddit.com/user/bluepinkblack
p2004
aVhttps://www.reddit.com/r/blog/comments/4jm50o/global_reddit_meetup_day_is_june_25_together_were/
p2005
aVjavascript: void 0;
p2006
aVhttp://www.redditblog.com/2016/04/robin.html
p2007
aVhttp://www.redditblog.com/2016/04/robin.html
p2008
aVhttps://www.reddit.com/domain/redditblog.com/
p2009
aVhttps://www.reddit.com/user/powerlanguage
p2010
aVhttps://www.reddit.com/r/blog/comments/4cw4ao/robin/
p2011
aVjavascript: void 0;
p2012
aVhttp://www.redditblog.com/2016/01/ask-me-anything-volume-one.html
p2013
aVhttp://www.redditblog.com/2016/01/ask-me-anything-volume-one.html
p2014
aVhttps://www.reddit.com/domain/redditblog.com/
p2015
aVhttps://www.reddit.com/user/reddit
p2016
aVhttps://www.reddit.com/r/blog/comments/3zkzrg/ask_me_anything_volume_one/
p2017
aVjavascript: void 0;
p2018
aVhttp://www.redditblog.com/2015/12/reddit-in-2015.html
p2019
aVhttp://www.redditblog.com/2015/12/reddit-in-2015.html
p2020
aVhttps://www.reddit.com/domain/redditblog.com/
p2021
aVhttps://www.reddit.com/user/krispykrackers
p2022
aVhttps://www.reddit.com/r/blog/comments/3yxdou/reddit_in_2015/
p2023
aVjavascript: void 0;
p2024
aVhttp://www.redditblog.com/2015/12/happy-holidays-from-all-of-us-at-reddit.html
p2025
aVhttp://www.redditblog.com/2015/12/happy-holidays-from-all-of-us-at-reddit.html
p2026
aVhttps://www.reddit.com/domain/redditblog.com/
p2027
aVhttps://www.reddit.com/user/krispykrackers
p2028
aVhttps://www.reddit.com/r/blog/comments/3y6t5w/happy_holidays_from_all_of_us_at_reddit/
p2029
aVjavascript: void 0;
p2030
aVhttp://www.redditblog.com/2015/11/time-is-running-out-help-us-support.html
p2031
aVhttp://www.redditblog.com/2015/11/time-is-running-out-help-us-support.html
p2032
aVhttps://www.reddit.com/domain/redditblog.com/
p2033
aVhttps://www.reddit.com/user/krispykrackers
p2034
aVhttps://www.reddit.com/r/blog/comments/3ryekk/time_is_running_out_help_us_support_extra_life/
p2035
aVjavascript: void 0;
p2036
aVhttps://www.redditgifts.com/exchanges/secret-santa-2015/
p2037
aVhttps://www.redditgifts.com/exchanges/secret-santa-2015/
p2038
aVhttps://www.reddit.com/domain/redditgifts.com/
p2039
aVhttps://www.reddit.com/user/bluepinkblack
p2040
aVhttps://www.reddit.com/r/blog/comments/3r8j7k/join_a_reddit_tradition_in_its_7th_straight_year/
p2041
aVjavascript: void 0;
p2042
aVhttp://www.redditblog.com/2015/10/join-us-before-its-too-late-play-games.html
p2043
aVhttp://www.redditblog.com/2015/10/join-us-before-its-too-late-play-games.html
p2044
aVhttps://www.reddit.com/domain/redditblog.com/
p2045
aVhttps://www.reddit.com/user/krispykrackers
p2046
aVhttps://www.reddit.com/r/blog/comments/3qv0iy/join_us_before_its_too_late_play_games_and_heal/
p2047
aVjavascript: void 0;
p2048
aVhttp://www.redditblog.com/2015/10/introducing-upvoted-redditorial.html
p2049
aVhttp://www.redditblog.com/2015/10/introducing-upvoted-redditorial.html
p2050
aVhttps://www.reddit.com/domain/redditblog.com/
p2051
aVhttps://www.reddit.com/user/ComeForthLazarus
p2052
aVhttps://www.reddit.com/r/blog/comments/3npxm4/introducing_upvoted_a_redditorial_publication/
p2053
aVjavascript: void 0;
p2054
aVhttp://www.redditblog.com/2015/09/join-us-once-again-for-extra-life.html
p2055
aVhttp://www.redditblog.com/2015/09/join-us-once-again-for-extra-life.html
p2056
aVhttps://www.reddit.com/domain/redditblog.com/
p2057
aVhttps://www.reddit.com/user/krispykrackers
p2058
aVhttps://www.reddit.com/r/blog/comments/3j8qwb/join_us_once_again_for_the_extra_life_gaming/
p2059
aVjavascript: void 0;
p2060
aVhttps://www.redditgifts.com/blog/view/14000-teachers-really-need-your-help/
p2061
aVhttps://www.redditgifts.com/blog/view/14000-teachers-really-need-your-help/
p2062
aVhttps://www.reddit.com/domain/redditgifts.com/
p2063
aVhttps://www.reddit.com/user/highshelfofsteam
p2064
aVhttps://www.reddit.com/r/blog/comments/3hluuw/14000_teachers_really_need_your_help_reddit/
p2065
aVjavascript: void 0;
p2066
aVhttps://www.redditgifts.com/exchanges/redditgifts-teachers-2015/
p2067
aVhttps://www.redditgifts.com/exchanges/redditgifts-teachers-2015/
p2068
aVhttps://www.reddit.com/domain/redditgifts.com/
p2069
aVhttps://www.reddit.com/user/bluepinkblack
p2070
aVhttps://www.reddit.com/r/blog/comments/3ghg5j/lets_help_teachers_get_the_supplies_they/
p2071
aVjavascript: void 0;
p2072
aVhttp://www.redditblog.com/2015/06/happy-10th-birthday-to-us-celebrating.html
p2073
aVhttp://www.redditblog.com/2015/06/happy-10th-birthday-to-us-celebrating.html
p2074
aVhttps://www.reddit.com/domain/redditblog.com/
p2075
aVhttps://www.reddit.com/user/reddit
p2076
aVhttps://www.reddit.com/r/blog/comments/3auk69/happy_10th_birthday_to_us_celebrating_the_best_of/
p2077
aVjavascript: void 0;
p2078
aVhttp://www.redditblog.com/2015/06/the-button-has-ended.html
p2079
aVhttp://www.redditblog.com/2015/06/the-button-has-ended.html
p2080
aVhttps://www.reddit.com/domain/redditblog.com/
p2081
aVhttps://www.reddit.com/user/powerlanguage
p2082
aVhttps://www.reddit.com/r/blog/comments/3921yz/the_button_has_ended/
p2083
aVjavascript: void 0;
p2084
aVhttp://www.redditblog.com/2015/05/the-6th-annual-global-reddit-meetup-day.html
p2085
aVhttp://www.redditblog.com/2015/05/the-6th-annual-global-reddit-meetup-day.html
p2086
aVhttps://www.reddit.com/domain/redditblog.com/
p2087
aVhttps://www.reddit.com/user/krispykrackers
p2088
aVhttps://www.reddit.com/r/blog/comments/36n9yb/the_6th_annual_global_reddit_meetup_day_is/
p2089
aVjavascript: void 0;
p2090
aVhttps://www.redditgifts.com/exchanges/arbitrary-day-2015/
p2091
aVhttps://www.redditgifts.com/exchanges/arbitrary-day-2015/
p2092
aVhttps://www.reddit.com/domain/redditgifts.com/
p2093
aVhttps://www.reddit.com/user/bluepinkblack
p2094
aVhttps://www.reddit.com/r/blog/comments/36drqa/arbitrary_day_is_here_again_sign_up_for_the/
p2095
aVjavascript: void 0;
p2096
aVhttp://www.redditblog.com/2015/05/an-update-on-what-reddit-community-has.html
p2097
aVhttp://www.redditblog.com/2015/05/an-update-on-what-reddit-community-has.html
p2098
aVhttps://www.reddit.com/domain/redditblog.com/
p2099
aVhttps://www.reddit.com/user/reddit
p2100
aVhttps://www.reddit.com/r/blog/comments/35qodf/an_update_on_what_the_reddit_community_has_done/
p2101
aVjavascript: void 0;
p2102
aVhttps://www.reddit.com/r/blog/?count=25&after=t3_35qodf
p2103
aVhttps://www.reddit.com/blog/
p2104
aVhttps://about.reddit.com/
p2105
aVhttps://www.reddit.com/code/
p2106
aVhttps://www.reddit.com/advertising/
p2107
aVhttps://www.reddit.com/jobs/
p2108
aVhttps://www.reddit.com/rules/
p2109
aVhttps://reddit.zendesk.com
p2110
aVhttps://www.reddit.com/wiki/
p2111
aVhttps://www.reddit.com/wiki/reddiquette/
p2112
aVhttps://www.reddit.com/wiki/transparency/
p2113
aVhttps://www.reddit.com/contact/
p2114
aVhttps://itunes.apple.com/us/app/reddit-the-official-app/id1064216828?mt=8
p2115
aVhttps://play.google.com/store/apps/details?id=com.reddit.frontpage
p2116
aS'https://www.reddit.com/r/blog/'
p2117
aVhttps://www.reddit.com/buttons/
p2118
aVhttps://www.reddit.com/gold/about/
p2119
aVhttp://redditgifts.com
p2120
aVhttps://www.reddit.com/help/useragreement
p2121
aVhttps://www.reddit.com/help/privacypolicy
p2122
asS'https://www.reddit.com/r/AskReddit/'
p2123
(lp2124
Vhttps://www.reddit.com/r/AskReddit/#content
p2125
aVhttps://www.reddit.com/r/announcements/
p2126
aVhttps://www.reddit.com/r/Art/
p2127
aVhttps://www.reddit.com/r/AskReddit/
p2128
aVhttps://www.reddit.com/r/askscience/
p2129
aVhttps://www.reddit.com/r/aww/
p2130
aVhttps://www.reddit.com/r/blog/
p2131
aVhttps://www.reddit.com/r/books/
p2132
aVhttps://www.reddit.com/r/creepy/
p2133
aVhttps://www.reddit.com/r/dataisbeautiful/
p2134
aVhttps://www.reddit.com/r/DIY/
p2135
aVhttps://www.reddit.com/r/Documentaries/
p2136
aVhttps://www.reddit.com/r/EarthPorn/
p2137
aVhttps://www.reddit.com/r/explainlikeimfive/
p2138
aVhttps://www.reddit.com/r/food/
p2139
aVhttps://www.reddit.com/r/funny/
p2140
aVhttps://www.reddit.com/r/Futurology/
p2141
aVhttps://www.reddit.com/r/gadgets/
p2142
aVhttps://www.reddit.com/r/gaming/
p2143
aVhttps://www.reddit.com/r/GetMotivated/
p2144
aVhttps://www.reddit.com/r/gifs/
p2145
aVhttps://www.reddit.com/r/history/
p2146
aVhttps://www.reddit.com/r/IAmA/
p2147
aVhttps://www.reddit.com/r/InternetIsBeautiful/
p2148
aVhttps://www.reddit.com/r/Jokes/
p2149
aVhttps://www.reddit.com/r/LifeProTips/
p2150
aVhttps://www.reddit.com/r/listentothis/
p2151
aVhttps://www.reddit.com/r/mildlyinteresting/
p2152
aVhttps://www.reddit.com/r/movies/
p2153
aVhttps://www.reddit.com/r/Music/
p2154
aVhttps://www.reddit.com/r/news/
p2155
aVhttps://www.reddit.com/r/nosleep/
p2156
aVhttps://www.reddit.com/r/nottheonion/
p2157
aVhttps://www.reddit.com/r/OldSchoolCool/
p2158
aVhttps://www.reddit.com/r/personalfinance/
p2159
aVhttps://www.reddit.com/r/philosophy/
p2160
aVhttps://www.reddit.com/r/photoshopbattles/
p2161
aVhttps://www.reddit.com/r/pics/
p2162
aVhttps://www.reddit.com/r/science/
p2163
aVhttps://www.reddit.com/r/Showerthoughts/
p2164
aVhttps://www.reddit.com/r/space/
p2165
aVhttps://www.reddit.com/r/sports/
p2166
aVhttps://www.reddit.com/r/television/
p2167
aVhttps://www.reddit.com/r/tifu/
p2168
aVhttps://www.reddit.com/r/todayilearned/
p2169
aVhttps://www.reddit.com/r/TwoXChromosomes/
p2170
aVhttps://www.reddit.com/r/UpliftingNews/
p2171
aVhttps://www.reddit.com/r/videos/
p2172
aVhttps://www.reddit.com/r/worldnews/
p2173
aVhttps://www.reddit.com/r/WritingPrompts/
p2174
aVhttps://www.reddit.com/subreddits/
p2175
aVhttps://www.reddit.com/
p2176
aVhttps://www.reddit.com/r/all/
p2177
aVhttps://www.reddit.com/r/random/
p2178
aVhttps://www.reddit.com/r/AskReddit/
p2179
aVhttps://www.reddit.com/r/funny/
p2180
aVhttps://www.reddit.com/r/gaming/
p2181
aVhttps://www.reddit.com/r/todayilearned/
p2182
aVhttps://www.reddit.com/r/pics/
p2183
aVhttps://www.reddit.com/r/videos/
p2184
aVhttps://www.reddit.com/r/IAmA/
p2185
aVhttps://www.reddit.com/r/gifs/
p2186
aVhttps://www.reddit.com/r/worldnews/
p2187
aVhttps://www.reddit.com/r/news/
p2188
aVhttps://www.reddit.com/r/aww/
p2189
aVhttps://www.reddit.com/r/announcements/
p2190
aVhttps://www.reddit.com/r/movies/
p2191
aVhttps://www.reddit.com/r/Showerthoughts/
p2192
aVhttps://www.reddit.com/r/Jokes/
p2193
aVhttps://www.reddit.com/r/mildlyinteresting/
p2194
aVhttps://www.reddit.com/r/television/
p2195
aVhttps://www.reddit.com/r/Futurology/
p2196
aVhttps://www.reddit.com/r/OldSchoolCool/
p2197
aVhttps://www.reddit.com/r/explainlikeimfive/
p2198
aVhttps://www.reddit.com/r/food/
p2199
aVhttps://www.reddit.com/r/nottheonion/
p2200
aVhttps://www.reddit.com/r/science/
p2201
aVhttps://www.reddit.com/r/space/
p2202
aVhttps://www.reddit.com/r/books/
p2203
aVhttps://www.reddit.com/r/UpliftingNews/
p2204
aVhttps://www.reddit.com/r/LifeProTips/
p2205
aVhttps://www.reddit.com/r/tifu/
p2206
aVhttps://www.reddit.com/r/TwoXChromosomes/
p2207
aVhttps://www.reddit.com/r/sports/
p2208
aVhttps://www.reddit.com/r/WritingPrompts/
p2209
aVhttps://www.reddit.com/r/Art/
p2210
aVhttps://www.reddit.com/r/Music/
p2211
aVhttps://www.reddit.com/r/Documentaries/
p2212
aVhttps://www.reddit.com/r/EarthPorn/
p2213
aVhttps://www.reddit.com/r/personalfinance/
p2214
aVhttps://www.reddit.com/r/nosleep/
p2215
aVhttps://www.reddit.com/r/photoshopbattles/
p2216
aVhttps://www.reddit.com/r/dataisbeautiful/
p2217
aVhttps://www.reddit.com/r/askscience/
p2218
aVhttps://www.reddit.com/r/creepy/
p2219
aVhttps://www.reddit.com/r/GetMotivated/
p2220
aVhttps://www.reddit.com/r/DIY/
p2221
aVhttps://www.reddit.com/r/history/
p2222
aVhttps://www.reddit.com/r/gadgets/
p2223
aVhttps://www.reddit.com/r/listentothis/
p2224
aVhttps://www.reddit.com/r/InternetIsBeautiful/
p2225
aVhttps://www.reddit.com/r/philosophy/
p2226
aVhttps://www.reddit.com/r/blog/
p2227
aVhttps://www.reddit.com/subreddits/
p2228
aVhttps://www.reddit.com/
p2229
aVhttps://www.reddit.com/r/AskReddit/
p2230
aVhttps://www.reddit.com/r/AskReddit/
p2231
aVhttps://www.reddit.com/r/AskReddit/new/
p2232
aVhttps://www.reddit.com/r/AskReddit/rising/
p2233
aVhttps://www.reddit.com/r/AskReddit/controversial/
p2234
aVhttps://www.reddit.com/r/AskReddit/top/
p2235
aVhttps://www.reddit.com/r/AskReddit/gilded/
p2236
aVhttps://www.reddit.com/r/AskReddit/wiki/
p2237
aVhttps://www.reddit.com/r/AskReddit/ads/
p2238
aVhttps://www.reddit.com/login
p2239
aVjavascript:void(0)
p2240
aVhttps://www.reddit.com/wiki/search
p2241
aVhttps://www.reddit.com/wiki/search
p2242
aVhttps://www.reddit.com/password
p2243
aVhttps://www.reddit.com/r/AskReddit/submit?selftext=true
p2244
aVhttps://www.reddit.com/r/AskReddit/
p2245
aS'https://www.reddit.com/r/AskReddit/'
p2246
aS'https://www.reddit.com/r/AskReddit/'
p2247
aVhttp://www.reddit.com/r/askreddit/submit?selftext=true&title=%5BSerious%5D
p2248
aVhttps://www.reddit.com/r/AskReddit/wiki/index#wiki_rules
p2249
aVhttp://goo.gl/tMUR4k
p2250
aVhttp://goo.gl/2L771B
p2251
aVhttp://goo.gl/DcPPLf
p2252
aVhttp://goo.gl/imCCMb
p2253
aVhttp://goo.gl/DG4Q2M
p2254
aVhttp://goo.gl/G6Zbap
p2255
aVhttp://goo.gl/Ce2LTY
p2256
aVhttp://goo.gl/a5GQTm
p2257
aVhttp://goo.gl/YVNgU0
p2258
aVhttp://goo.gl/xnppZr
p2259
aVhttp://goo.gl/gMFZjB
p2260
aVhttp://ud.reddit.com/r/AskReddit/#ud
p2261
aVhttp://dg.reddit.com/r/AskReddit/#dg
p2262
aVhttp://bu.reddit.com/r/AskReddit/#bu
p2263
aVhttp://nr.reddit.com/r/AskReddit/#nr
p2264
aVhttp://goo.gl/qJBQRm
p2265
aVhttp://www.reddit.com/r/Ideasforaskreddit
p2266
aVhttps://www.reddit.com/r/AskReddit
p2267
aVhttp://goo.gl/su6Az1
p2268
aVhttps://www.reddit.com/r/AskReddit/wiki/sidebarsubs#wiki_ask_others
p2269
aVhttps://www.reddit.com/r/AskReddit/wiki/sidebarsubs#wiki_self_.26amp.3B_others
p2270
aVhttps://www.reddit.com/r/AskReddit/wiki/sidebarsubs#wiki_find_a_subreddit
p2271
aVhttps://www.reddit.com/r/AskReddit/wiki/sidebarsubs#wiki_learn_something
p2272
aVhttps://www.reddit.com/r/AskReddit/wiki/sidebarsubs#wiki_meta
p2273
aVhttps://www.reddit.com/r/AskReddit/wiki/sidebarsubs#wiki_what_is_this______
p2274
aVhttps://www.reddit.com/r/AskReddit/wiki/sidebarsubs#wiki_askreddit_offshoots
p2275
aVhttps://www.reddit.com/r/AskReddit/wiki/sidebarsubs#wiki_offers_.26amp.3B_assistance
p2276
aVhttp://goo.gl/pxsd8T
p2277
aVhttps://www.reddit.com/r/AskReddit/#/RES_SR_Config/NightModeCompatible
p2278
aVhttp://goo.gl/TQnRmU
p2279
aVhttps://www.reddit.com/r/AskReddit/#may4th
p2280
aVhttps://www.reddit.com/message/compose?to=%2Fr%2FAskReddit
p2281
aVhttps://www.reddit.com/user/krispykrackers
p2282
aVhttps://www.reddit.com/user/flyryan
p2283
aVhttps://www.reddit.com/user/Ooer
p2284
aVhttps://www.reddit.com/user/ImNotJesus
p2285
aVhttps://www.reddit.com/user/ducky-box
p2286
aVhttps://www.reddit.com/user/canipaybycheck
p2287
aVhttps://www.reddit.com/user/noahjk
p2288
aVhttps://www.reddit.com/user/GustavoFrings
p2289
aVhttps://www.reddit.com/user/roastedbagel
p2290
aVhttps://www.reddit.com/user/UnholyDemigod
p2291
aVhttps://www.reddit.com/r/AskReddit/about/moderators
p2292
aVhttps://www.reddit.com/newsletter
p2293
aS'https://www.reddit.com/r/AskReddit/'
p2294
aVhttps://www.reddit.com/wiki/selfserve
p2295
aVhttps://www.reddit.com/advertising
p2296
aVhttps://www.reddit.com/r/ads
p2297
aVhttps://www.reddit.com/subreddits/
p2298
aVhttps://www.reddit.com/r/AskReddit/comments/5fwleg/what_is_your_hobbyprofessions_anyway_heres/
p2299
aVhttps://www.reddit.com/r/AskReddit/
p2300
aVhttps://www.reddit.com/user/Exceon
p2301
aVhttps://www.reddit.com/r/AskReddit/comments/5fwleg/what_is_your_hobbyprofessions_anyway_heres/
p2302
aVjavascript: void 0;
p2303
aVhttps://www.reddit.com/r/AskReddit/comments/5fwb62/what_are_you_proud_of_but_cant_tell_anyone_who/
p2304
aVhttps://www.reddit.com/r/AskReddit/
p2305
aVhttps://www.reddit.com/user/AverageYennork
p2306
aVhttps://www.reddit.com/r/AskReddit/comments/5fwb62/what_are_you_proud_of_but_cant_tell_anyone_who/
p2307
aVjavascript: void 0;
p2308
aVhttps://www.reddit.com/r/AskReddit/comments/5fwqpu/what_are_some_unethical_and_possibly_illegal_life/
p2309
aVhttps://www.reddit.com/r/AskReddit/
p2310
aVhttps://www.reddit.com/user/chukkiroad
p2311
aVhttps://www.reddit.com/r/AskReddit/comments/5fwqpu/what_are_some_unethical_and_possibly_illegal_life/
p2312
aVjavascript: void 0;
p2313
aVhttps://www.reddit.com/r/AskReddit/comments/5fwv62/whats_the_most_fucked_up_food_your_parents_would/
p2314
aVhttps://www.reddit.com/r/AskReddit/
p2315
aVhttps://www.reddit.com/user/hppruettreddit
p2316
aVhttps://www.reddit.com/r/AskReddit/comments/5fwv62/whats_the_most_fucked_up_food_your_parents_would/
p2317
aVjavascript: void 0;
p2318
aVhttps://www.reddit.com/r/AskReddit/comments/5fxbdl/what_is_the_strongest_opinion_you_hold/
p2319
aVhttps://www.reddit.com/r/AskReddit/
p2320
aVhttps://www.reddit.com/user/siddiquesafdar
p2321
aVhttps://www.reddit.com/r/AskReddit/comments/5fxbdl/what_is_the_strongest_opinion_you_hold/
p2322
aVjavascript: void 0;
p2323
aVhttps://www.reddit.com/r/AskReddit/comments/5fw4yr/what_sites_do_you_go_on_to_kill_time/
p2324
aVhttps://www.reddit.com/r/AskReddit/
p2325
aVhttps://www.reddit.com/user/AeonArcore
p2326
aVhttps://www.reddit.com/r/AskReddit/comments/5fw4yr/what_sites_do_you_go_on_to_kill_time/
p2327
aVjavascript: void 0;
p2328
aVhttps://www.reddit.com/r/AskReddit/comments/5fxssj/serious_redditors_over_50_that_chose_not_to_have/
p2329
aVhttps://www.reddit.com/r/AskReddit/
p2330
aVhttps://www.reddit.com/user/nochildrenss
p2331
aVhttps://www.reddit.com/r/AskReddit/comments/5fxssj/serious_redditors_over_50_that_chose_not_to_have/
p2332
aVjavascript: void 0;
p2333
aVhttps://www.reddit.com/r/AskReddit/comments/5g0ppc/liberals_what_is_your_most_conservative_viewpoint/
p2334
aVhttps://www.reddit.com/r/AskReddit/
p2335
aVhttps://www.reddit.com/user/lettingpeopleknow
p2336
aVhttps://www.reddit.com/r/AskReddit/comments/5g0ppc/liberals_what_is_your_most_conservative_viewpoint/
p2337
aVjavascript: void 0;
p2338
aVhttps://www.reddit.com/r/AskReddit/comments/5fy4mf/what_is_your_favorite_paradox/
p2339
aVhttps://www.reddit.com/r/AskReddit/
p2340
aVhttps://www.reddit.com/user/leetle_bleetle
p2341
aVhttps://www.reddit.com/r/AskReddit/comments/5fy4mf/what_is_your_favorite_paradox/
p2342
aVjavascript: void 0;
p2343
aVhttps://www.reddit.com/r/AskReddit/comments/5fwufs/parents_of_reddit_when_did_you_realize_your_kid/
p2344
aVhttps://www.reddit.com/r/AskReddit/
p2345
aVhttps://www.reddit.com/user/Custergrant
p2346
aVhttps://www.reddit.com/r/AskReddit/comments/5fwufs/parents_of_reddit_when_did_you_realize_your_kid/
p2347
aVjavascript: void 0;
p2348
aVhttps://www.reddit.com/r/AskReddit/comments/5fxk11/whats_an_outright_dealbreaker_for_a_relationship/
p2349
aVhttps://www.reddit.com/r/AskReddit/
p2350
aVhttps://www.reddit.com/user/AuroraSig
p2351
aVhttps://www.reddit.com/r/AskReddit/comments/5fxk11/whats_an_outright_dealbreaker_for_a_relationship/
p2352
aVjavascript: void 0;
p2353
aVhttps://www.reddit.com/r/AskReddit/comments/5fyb1i/what_one_discovery_would_fuck_everything_up/
p2354
aVhttps://www.reddit.com/r/AskReddit/
p2355
aVhttps://www.reddit.com/user/nissy710
p2356
aVhttps://www.reddit.com/r/AskReddit/comments/5fyb1i/what_one_discovery_would_fuck_everything_up/
p2357
aVjavascript: void 0;
p2358
aVhttps://www.reddit.com/r/AskReddit/comments/5fwkxn/what_music_album_can_you_listen_to_all_the_way/
p2359
aVhttps://www.reddit.com/r/AskReddit/
p2360
aVhttps://www.reddit.com/user/TirionTheHallowed
p2361
aVhttps://www.reddit.com/r/AskReddit/comments/5fwkxn/what_music_album_can_you_listen_to_all_the_way/
p2362
aVjavascript: void 0;
p2363
aVhttps://www.reddit.com/r/AskReddit/comments/5fywfl/in_retrospect_what_was_something_that_one_of_your/
p2364
aVhttps://www.reddit.com/r/AskReddit/
p2365
aVhttps://www.reddit.com/user/Ice_Burn
p2366
aVhttps://www.reddit.com/r/AskReddit/comments/5fywfl/in_retrospect_what_was_something_that_one_of_your/
p2367
aVjavascript: void 0;
p2368
aVhttps://www.reddit.com/r/AskReddit/comments/5fu4zy/what_is_the_best_display_of_wealth_youve_ever_seen/
p2369
aVhttps://www.reddit.com/r/AskReddit/
p2370
aVhttps://www.reddit.com/user/THATFUCKINAUSSIE
p2371
aVhttps://www.reddit.com/r/AskReddit/comments/5fu4zy/what_is_the_best_display_of_wealth_youve_ever_seen/
p2372
aVjavascript: void 0;
p2373
aVhttps://www.reddit.com/r/AskReddit/comments/5fzazj/what_was_the_dumbest_rule_your_parents_had/
p2374
aVhttps://www.reddit.com/r/AskReddit/
p2375
aVhttps://www.reddit.com/user/Too_Square
p2376
aVhttps://www.reddit.com/r/AskReddit/comments/5fzazj/what_was_the_dumbest_rule_your_parents_had/
p2377
aVjavascript: void 0;
p2378
aVhttps://www.reddit.com/r/AskReddit/comments/5g0u5q/what_movie_on_netflix_is_a_must_see/
p2379
aVhttps://www.reddit.com/r/AskReddit/
p2380
aVhttps://www.reddit.com/user/cochrane0123
p2381
aVhttps://www.reddit.com/r/AskReddit/comments/5g0u5q/what_movie_on_netflix_is_a_must_see/
p2382
aVjavascript: void 0;
p2383
aVhttps://www.reddit.com/r/AskReddit/comments/5g0cbr/police_of_reddit_what_do_you_do_when_playing_gta/
p2384
aVhttps://www.reddit.com/r/AskReddit/
p2385
aVhttps://www.reddit.com/user/Pergivin
p2386
aVhttps://www.reddit.com/r/AskReddit/comments/5g0cbr/police_of_reddit_what_do_you_do_when_playing_gta/
p2387
aVjavascript: void 0;
p2388
aVhttps://www.reddit.com/r/AskReddit/comments/5fxap3/what_is_the_most_lengthy_joke_you_know_with_the/
p2389
aVhttps://www.reddit.com/r/AskReddit/
p2390
aVhttps://www.reddit.com/user/bongFuccer
p2391
aVhttps://www.reddit.com/r/AskReddit/comments/5fxap3/what_is_the_most_lengthy_joke_you_know_with_the/
p2392
aVjavascript: void 0;
p2393
aVhttps://www.reddit.com/r/AskReddit/comments/5fykw2/whats_a_secret_somebody_told_you_that_you_can_say/
p2394
aVhttps://www.reddit.com/r/AskReddit/
p2395
aVhttps://www.reddit.com/user/Sifenchar
p2396
aVhttps://www.reddit.com/r/AskReddit/comments/5fykw2/whats_a_secret_somebody_told_you_that_you_can_say/
p2397
aVjavascript: void 0;
p2398
aVhttps://www.reddit.com/r/AskReddit/comments/5fybm3/males_of_reddit_what_can_women_do_for_you_that/
p2399
aVhttps://www.reddit.com/r/AskReddit/
p2400
aVhttps://www.reddit.com/user/squishypoopoo
p2401
aVhttps://www.reddit.com/r/AskReddit/comments/5fybm3/males_of_reddit_what_can_women_do_for_you_that/
p2402
aVjavascript: void 0;
p2403
aVhttps://www.reddit.com/r/AskReddit/comments/5g0833/if_youtube_existed_100_years_ago_what_would_be/
p2404
aVhttps://www.reddit.com/r/AskReddit/
p2405
aVhttps://www.reddit.com/user/saberon2017
p2406
aVhttps://www.reddit.com/r/AskReddit/comments/5g0833/if_youtube_existed_100_years_ago_what_would_be/
p2407
aVjavascript: void 0;
p2408
aVhttps://www.reddit.com/r/AskReddit/comments/5fx316/using_only_one_line_of_lyrics_whats_your_favorite/
p2409
aVhttps://www.reddit.com/r/AskReddit/
p2410
aVhttps://www.reddit.com/user/mets1010
p2411
aVhttps://www.reddit.com/r/AskReddit/comments/5fx316/using_only_one_line_of_lyrics_whats_your_favorite/
p2412
aVjavascript: void 0;
p2413
aVhttps://www.reddit.com/r/AskReddit/comments/5g0e2m/what_is_your_biggest_insecurity/
p2414
aVhttps://www.reddit.com/r/AskReddit/
p2415
aVhttps://www.reddit.com/user/dwc13c1
p2416
aVhttps://www.reddit.com/r/AskReddit/comments/5g0e2m/what_is_your_biggest_insecurity/
p2417
aVjavascript: void 0;
p2418
aVhttps://www.reddit.com/r/AskReddit/comments/5fwzkv/what_is_the_stupidest_thing_you_have_ever_spent/
p2419
aVhttps://www.reddit.com/r/AskReddit/
p2420
aVhttps://www.reddit.com/user/larrylegend_011
p2421
aVhttps://www.reddit.com/r/AskReddit/comments/5fwzkv/what_is_the_stupidest_thing_you_have_ever_spent/
p2422
aVjavascript: void 0;
p2423
aVhttps://www.reddit.com/r/AskReddit/?count=25&after=t3_5fwzkv
p2424
aVhttps://www.reddit.com/blog/
p2425
aVhttps://about.reddit.com/
p2426
aVhttps://www.reddit.com/code/
p2427
aVhttps://www.reddit.com/advertising/
p2428
aVhttps://www.reddit.com/jobs/
p2429
aVhttps://www.reddit.com/rules/
p2430
aVhttps://reddit.zendesk.com
p2431
aVhttps://www.reddit.com/wiki/
p2432
aVhttps://www.reddit.com/wiki/reddiquette/
p2433
aVhttps://www.reddit.com/wiki/transparency/
p2434
aVhttps://www.reddit.com/contact/
p2435
aVhttps://itunes.apple.com/us/app/reddit-the-official-app/id1064216828?mt=8
p2436
aVhttps://play.google.com/store/apps/details?id=com.reddit.frontpage
p2437
aS'https://www.reddit.com/r/AskReddit/'
p2438
aVhttps://www.reddit.com/buttons/
p2439
aVhttps://www.reddit.com/gold/about/
p2440
aVhttp://redditgifts.com
p2441
aVhttps://www.reddit.com/help/useragreement
p2442
aVhttps://www.reddit.com/help/privacypolicy
p2443
aVhttps://www.reddit.com/advertising
p2444
asS'https://www.reddit.com/r/books/'
p2445
(lp2446
Vhttps://www.reddit.com/r/books/#content
p2447
aVhttps://www.reddit.com/r/announcements/
p2448
aVhttps://www.reddit.com/r/Art/
p2449
aVhttps://www.reddit.com/r/AskReddit/
p2450
aVhttps://www.reddit.com/r/askscience/
p2451
aVhttps://www.reddit.com/r/aww/
p2452
aVhttps://www.reddit.com/r/blog/
p2453
aVhttps://www.reddit.com/r/books/
p2454
aVhttps://www.reddit.com/r/creepy/
p2455
aVhttps://www.reddit.com/r/dataisbeautiful/
p2456
aVhttps://www.reddit.com/r/DIY/
p2457
aVhttps://www.reddit.com/r/Documentaries/
p2458
aVhttps://www.reddit.com/r/EarthPorn/
p2459
aVhttps://www.reddit.com/r/explainlikeimfive/
p2460
aVhttps://www.reddit.com/r/food/
p2461
aVhttps://www.reddit.com/r/funny/
p2462
aVhttps://www.reddit.com/r/Futurology/
p2463
aVhttps://www.reddit.com/r/gadgets/
p2464
aVhttps://www.reddit.com/r/gaming/
p2465
aVhttps://www.reddit.com/r/GetMotivated/
p2466
aVhttps://www.reddit.com/r/gifs/
p2467
aVhttps://www.reddit.com/r/history/
p2468
aVhttps://www.reddit.com/r/IAmA/
p2469
aVhttps://www.reddit.com/r/InternetIsBeautiful/
p2470
aVhttps://www.reddit.com/r/Jokes/
p2471
aVhttps://www.reddit.com/r/LifeProTips/
p2472
aVhttps://www.reddit.com/r/listentothis/
p2473
aVhttps://www.reddit.com/r/mildlyinteresting/
p2474
aVhttps://www.reddit.com/r/movies/
p2475
aVhttps://www.reddit.com/r/Music/
p2476
aVhttps://www.reddit.com/r/news/
p2477
aVhttps://www.reddit.com/r/nosleep/
p2478
aVhttps://www.reddit.com/r/nottheonion/
p2479
aVhttps://www.reddit.com/r/OldSchoolCool/
p2480
aVhttps://www.reddit.com/r/personalfinance/
p2481
aVhttps://www.reddit.com/r/philosophy/
p2482
aVhttps://www.reddit.com/r/photoshopbattles/
p2483
aVhttps://www.reddit.com/r/pics/
p2484
aVhttps://www.reddit.com/r/science/
p2485
aVhttps://www.reddit.com/r/Showerthoughts/
p2486
aVhttps://www.reddit.com/r/space/
p2487
aVhttps://www.reddit.com/r/sports/
p2488
aVhttps://www.reddit.com/r/television/
p2489
aVhttps://www.reddit.com/r/tifu/
p2490
aVhttps://www.reddit.com/r/todayilearned/
p2491
aVhttps://www.reddit.com/r/TwoXChromosomes/
p2492
aVhttps://www.reddit.com/r/UpliftingNews/
p2493
aVhttps://www.reddit.com/r/videos/
p2494
aVhttps://www.reddit.com/r/worldnews/
p2495
aVhttps://www.reddit.com/r/WritingPrompts/
p2496
aVhttps://www.reddit.com/subreddits/
p2497
aVhttps://www.reddit.com/
p2498
aVhttps://www.reddit.com/r/all/
p2499
aVhttps://www.reddit.com/r/random/
p2500
aVhttps://www.reddit.com/r/AskReddit/
p2501
aVhttps://www.reddit.com/r/funny/
p2502
aVhttps://www.reddit.com/r/gaming/
p2503
aVhttps://www.reddit.com/r/todayilearned/
p2504
aVhttps://www.reddit.com/r/pics/
p2505
aVhttps://www.reddit.com/r/videos/
p2506
aVhttps://www.reddit.com/r/IAmA/
p2507
aVhttps://www.reddit.com/r/gifs/
p2508
aVhttps://www.reddit.com/r/worldnews/
p2509
aVhttps://www.reddit.com/r/news/
p2510
aVhttps://www.reddit.com/r/aww/
p2511
aVhttps://www.reddit.com/r/announcements/
p2512
aVhttps://www.reddit.com/r/movies/
p2513
aVhttps://www.reddit.com/r/Showerthoughts/
p2514
aVhttps://www.reddit.com/r/Jokes/
p2515
aVhttps://www.reddit.com/r/mildlyinteresting/
p2516
aVhttps://www.reddit.com/r/television/
p2517
aVhttps://www.reddit.com/r/Futurology/
p2518
aVhttps://www.reddit.com/r/OldSchoolCool/
p2519
aVhttps://www.reddit.com/r/explainlikeimfive/
p2520
aVhttps://www.reddit.com/r/food/
p2521
aVhttps://www.reddit.com/r/nottheonion/
p2522
aVhttps://www.reddit.com/r/science/
p2523
aVhttps://www.reddit.com/r/space/
p2524
aVhttps://www.reddit.com/r/books/
p2525
aVhttps://www.reddit.com/r/UpliftingNews/
p2526
aVhttps://www.reddit.com/r/LifeProTips/
p2527
aVhttps://www.reddit.com/r/tifu/
p2528
aVhttps://www.reddit.com/r/TwoXChromosomes/
p2529
aVhttps://www.reddit.com/r/sports/
p2530
aVhttps://www.reddit.com/r/WritingPrompts/
p2531
aVhttps://www.reddit.com/r/Art/
p2532
aVhttps://www.reddit.com/r/Music/
p2533
aVhttps://www.reddit.com/r/Documentaries/
p2534
aVhttps://www.reddit.com/r/EarthPorn/
p2535
aVhttps://www.reddit.com/r/personalfinance/
p2536
aVhttps://www.reddit.com/r/nosleep/
p2537
aVhttps://www.reddit.com/r/photoshopbattles/
p2538
aVhttps://www.reddit.com/r/dataisbeautiful/
p2539
aVhttps://www.reddit.com/r/askscience/
p2540
aVhttps://www.reddit.com/r/creepy/
p2541
aVhttps://www.reddit.com/r/GetMotivated/
p2542
aVhttps://www.reddit.com/r/DIY/
p2543
aVhttps://www.reddit.com/r/history/
p2544
aVhttps://www.reddit.com/r/gadgets/
p2545
aVhttps://www.reddit.com/r/listentothis/
p2546
aVhttps://www.reddit.com/r/InternetIsBeautiful/
p2547
aVhttps://www.reddit.com/r/philosophy/
p2548
aVhttps://www.reddit.com/r/blog/
p2549
aVhttps://www.reddit.com/subreddits/
p2550
aVhttps://www.reddit.com/
p2551
aVhttps://www.reddit.com/r/books/
p2552
aVhttps://www.reddit.com/r/books/
p2553
aVhttps://www.reddit.com/r/books/new/
p2554
aVhttps://www.reddit.com/r/books/rising/
p2555
aVhttps://www.reddit.com/r/books/controversial/
p2556
aVhttps://www.reddit.com/r/books/top/
p2557
aVhttps://www.reddit.com/r/books/gilded/
p2558
aVhttps://www.reddit.com/r/books/wiki/
p2559
aVhttps://www.reddit.com/r/books/ads/
p2560
aVhttps://www.reddit.com/login
p2561
aVjavascript:void(0)
p2562
aVhttps://www.reddit.com/wiki/search
p2563
aVhttps://www.reddit.com/wiki/search
p2564
aVhttps://www.reddit.com/password
p2565
aVhttps://www.reddit.com/r/books/submit
p2566
aVhttps://www.reddit.com/r/books/submit?selftext=true
p2567
aVhttps://www.reddit.com/r/books/
p2568
aS'https://www.reddit.com/r/books/'
p2569
aS'https://www.reddit.com/r/books/'
p2570
aVhttps://www.reddit.com/r/books/#place%20announcements%20below
p2571
aVhttps://goo.gl/wLIq9V
p2572
aVhttps://goo.gl/I2Akkc
p2573
aVhttp://redd.it/5espt0
p2574
aVhttp://redd.it/5faqm4
p2575
aVhttps://www.reddit.com/r/books/wiki/rules
p2576
aVhttp://goo.gl/HXpfgH
p2577
aVhttps://www.reddit.com/r/books/wiki/relatedsubreddits
p2578
aVhttps://www.reddit.com/r/Books/wiki/amarules
p2579
aVhttps://www.reddit.com/r/books/wiki/faq
p2580
aVhttps://www.reddit.com/r/books/wiki/index
p2581
aVhttps://www.reddit.com/r/books/wiki/suggested
p2582
aVhttps://www.reddit.com/r/suggestmeabook
p2583
aVhttps://www.reddit.com/r/books/wiki/suggested
p2584
aVhttps://www.reddit.com/r/books/wiki/whattoread
p2585
aVhttps://www.reddit.com/r/suggestmeabook
p2586
aVhttps://www.reddit.com/r/Books/wiki/rules
p2587
aVhttps://goo.gl/wLIq9V
p2588
aVhttps://goo.gl/I2Akkc
p2589
aVhttps://goo.gl/TbyUQZ
p2590
aVhttps://goo.gl/9CTtjd
p2591
aVhttps://goo.gl/gCzv8b
p2592
aVhttps://goo.gl/nZFZq5
p2593
aVhttps://goo.gl/0A2cpg
p2594
aVhttps://goo.gl/X8To0r
p2595
aVhttps://goo.gl/EGUVTr
p2596
aVhttps://goo.gl/4ec1m8
p2597
aVhttps://www.reddit.com/r/books/wiki/amafullschedule
p2598
aVhttps://goo.gl/0jV4RT
p2599
aVhttps://goo.gl/gc2SkD
p2600
aVhttps://goo.gl/tqAz83
p2601
aVhttps://goo.gl/coikuy
p2602
aVhttps://goo.gl/JqC3qe
p2603
aVhttps://goo.gl/gxn0Qi
p2604
aVhttps://goo.gl/VJn5UZ
p2605
aVhttps://goo.gl/DGbvQI
p2606
aVhttp://goo.gl/RBcyna
p2607
aVhttps://www.reddit.com/r/books/#s
p2608
aVhttps://www.reddit.com/r/books/wiki/flairs
p2609
aVhttps://www.reddit.com/r/bookclub
p2610
aVhttps://www.reddit.com/r/books/new
p2611
aVhttp://goo.gl/94lql6
p2612
aVhttp://goo.gl/6sFeOG
p2613
aVhttps://www.reddit.com/r/books/search?sort=new&restrict_sr=on&q=flair%3Amod%20post
p2614
aVhttps://www.reddit.com/r/books/#the%20book%20banner
p2615
aVhttps://goo.gl/sbDI3Y
p2616
aVhttps://goo.gl/RHOitK
p2617
aVhttps://goo.gl/F3GUIE
p2618
aVhttps://goo.gl/lSauDp
p2619
aVhttps://goo.gl/ddhOlw
p2620
aVhttps://goo.gl/MWpWDy
p2621
aVhttps://goo.gl/6fUbFy
p2622
aVhttps://goo.gl/10mxKt
p2623
aVhttps://goo.gl/dO7TpN
p2624
aVhttps://goo.gl/RNNTFI
p2625
aVhttps://goo.gl/XAMjsx
p2626
aVhttps://goo.gl/1TNSNj
p2627
aVhttps://goo.gl/Rz87wu
p2628
aVhttps://goo.gl/ybleN1
p2629
aVhttps://goo.gl/7kw74O
p2630
aVhttps://goo.gl/mBja3a
p2631
aVhttps://goo.gl/J2GaJ8
p2632
aVhttps://goo.gl/ClQmqF
p2633
aVhttps://goo.gl/8cfCii
p2634
aVhttps://goo.gl/5Yymp7
p2635
aVhttps://goo.gl/sq03pF
p2636
aVhttps://goo.gl/6WG5oS
p2637
aVhttps://goo.gl/tsqUJa
p2638
aVhttps://goo.gl/MeCW3l
p2639
aVhttps://goo.gl/5z8qkP
p2640
aVhttps://goo.gl/syifJQ
p2641
aVhttps://goo.gl/dxDkm5
p2642
aVhttps://goo.gl/cWCKjx
p2643
aVhttps://goo.gl/1TNSNj
p2644
aVhttps://goo.gl/TRDN51
p2645
aVhttps://goo.gl/I2Akkc
p2646
aVhttps://www.reddit.com/r/books/comments/5fonxg/holiday_gift_guide_y/
p2647
aVhttps://www.reddit.com/message/compose?to=%2Fr%2Fbooks
p2648
aVhttps://www.reddit.com/user/DaedalusMinion
p2649
aVhttps://www.reddit.com/user/pithyretort
p2650
aVhttps://www.reddit.com/user/boib
p2651
aVhttps://www.reddit.com/user/brigodon
p2652
aVhttps://www.reddit.com/user/themightiestduck
p2653
aVhttps://www.reddit.com/user/AutoModerator
p2654
aVhttps://www.reddit.com/user/IAmTheRedWizards
p2655
aVhttps://www.reddit.com/user/Abe_lincolin
p2656
aVhttps://www.reddit.com/user/zomboi
p2657
aVhttps://www.reddit.com/user/CycleModRecs
p2658
aVhttps://www.reddit.com/r/books/about/moderators
p2659
aVhttps://www.reddit.com/newsletter
p2660
aS'https://www.reddit.com/r/books/'
p2661
aVhttps://www.reddit.com/wiki/selfserve
p2662
aVhttps://www.reddit.com/advertising
p2663
aVhttps://www.reddit.com/r/ads
p2664
aVhttps://www.reddit.com/subreddits/
p2665
aVhttps://www.reddit.com/r/books/comments/5fs6bc/stiff_the_curious_lives_of_human_cadavers_by_mary/
p2666
aVhttps://www.reddit.com/r/books/comments/5fs6bc/stiff_the_curious_lives_of_human_cadavers_by_mary/
p2667
aVhttps://www.reddit.com/r/books/
p2668
aVhttps://www.reddit.com/user/Chtorrr
p2669
aVhttps://www.reddit.com/r/books/comments/5fs6bc/stiff_the_curious_lives_of_human_cadavers_by_mary/
p2670
aVjavascript: void 0;
p2671
aVhttps://www.reddit.com/r/books/comments/5fztal/hi_everyone_whats_the_most_extravagant_meal_youve/
p2672
aVhttps://www.reddit.com/r/books/comments/5fztal/hi_everyone_whats_the_most_extravagant_meal_youve/
p2673
aVhttps://www.reddit.com/r/books/
p2674
aVhttps://www.reddit.com/user/beckyldiamond
p2675
aVhttps://www.reddit.com/r/books/comments/5fztal/hi_everyone_whats_the_most_extravagant_meal_youve/
p2676
aVjavascript: void 0;
p2677
aVhttp://www.rawstory.com/2016/12/virginia-school-pulls-finn-and-mockingbird-over-slurs-its-not-right-to-put-that-in-a-book/
p2678
aVhttp://www.rawstory.com/2016/12/virginia-school-pulls-finn-and-mockingbird-over-slurs-its-not-right-to-put-that-in-a-book/
p2679
aVhttps://www.reddit.com/domain/rawstory.com/
p2680
aVhttps://www.reddit.com/user/judeharte
p2681
aVhttps://www.reddit.com/r/books/comments/5fwor3/virginia_school_pulls_finn_and_mockingbird_over/
p2682
aVjavascript: void 0;
p2683
aVhttps://www.theguardian.com/books/2016/nov/30/library-user-data-government-surveillance-donald-trump
p2684
aVhttps://www.theguardian.com/books/2016/nov/30/library-user-data-government-surveillance-donald-trump
p2685
aVhttps://www.reddit.com/domain/theguardian.com/
p2686
aVhttps://www.reddit.com/user/thgntlmnfrmtrlfmdr
p2687
aVhttps://www.reddit.com/r/books/comments/5fxxk2/libraries_promise_to_destroy_user_data_to_avoid/
p2688
aVjavascript: void 0;
p2689
aVhttps://www.reddit.com/r/books/comments/5ftsnt/inspired_by_the_100_books_every_man_should_read/
p2690
aVhttps://www.reddit.com/r/books/comments/5ftsnt/inspired_by_the_100_books_every_man_should_read/
p2691
aVhttps://www.reddit.com/r/books/
p2692
aVhttps://www.reddit.com/user/FatGuyANALLIttlecoat
p2693
aVhttps://www.reddit.com/r/books/comments/5ftsnt/inspired_by_the_100_books_every_man_should_read/
p2694
aVjavascript: void 0;
p2695
aVhttps://www.reddit.com/r/books/comments/5fy881/i_read_one_of_my_favorite_books_in_a_foreign/
p2696
aVhttps://www.reddit.com/r/books/comments/5fy881/i_read_one_of_my_favorite_books_in_a_foreign/
p2697
aVhttps://www.reddit.com/r/books/
p2698
aVhttps://www.reddit.com/user/MakDak
p2699
aVhttps://www.reddit.com/r/books/comments/5fy881/i_read_one_of_my_favorite_books_in_a_foreign/
p2700
aVjavascript: void 0;
p2701
aVhttp://www.newyorker.com/books/page-turner/the-unsolvable-mysteries-of-the-voynich-manuscript?mbid=synd_digg
p2702
aVhttp://www.newyorker.com/books/page-turner/the-unsolvable-mysteries-of-the-voynich-manuscript?mbid=synd_digg
p2703
aVhttps://www.reddit.com/domain/newyorker.com/
p2704
aVhttps://www.reddit.com/user/rewardingman
p2705
aVhttps://www.reddit.com/r/books/comments/5fy8ak/the_unsolvable_mysteries_of_the_voynich_manuscript/
p2706
aVjavascript: void 0;
p2707
aVhttp://www.guardian-series.co.uk/news/14937849.Legendary_fantasy_author_Joe_Dever_dies/
p2708
aVhttp://www.guardian-series.co.uk/news/14937849.Legendary_fantasy_author_Joe_Dever_dies/
p2709
aVhttps://www.reddit.com/domain/guardian-series.co.uk/
p2710
aVhttps://www.reddit.com/user/vonotar
p2711
aVhttps://www.reddit.com/r/books/comments/5fwjt0/joe_dever_author_of_the_lone_wolf_series_of_game/
p2712
aVjavascript: void 0;
p2713
aVhttps://www.reddit.com/r/books/comments/5fwfgq/just_read_world_war_z/
p2714
aVhttps://www.reddit.com/r/books/comments/5fwfgq/just_read_world_war_z/
p2715
aVhttps://www.reddit.com/r/books/
p2716
aVhttps://www.reddit.com/user/Rodal888
p2717
aVhttps://www.reddit.com/r/books/comments/5fwfgq/just_read_world_war_z/
p2718
aVjavascript: void 0;
p2719
aVhttp://www.nytimes.com/interactive/2016/12/01/books/review/10-best-books-of-2016.html
p2720
aVhttp://www.nytimes.com/interactive/2016/12/01/books/review/10-best-books-of-2016.html
p2721
aVhttps://www.reddit.com/domain/nytimes.com/
p2722
aVhttps://www.reddit.com/user/axl_d
p2723
aVhttps://www.reddit.com/r/books/comments/5fwhxe/ny_times_10_best_books_of_2016_lets_discuss/
p2724
aVjavascript: void 0;
p2725
aVhttps://www.reddit.com/r/books/comments/5fykrv/101_books_every_woman_should_read/
p2726
aVhttps://www.reddit.com/r/books/comments/5fykrv/101_books_every_woman_should_read/
p2727
aVhttps://www.reddit.com/r/books/
p2728
aVhttps://www.reddit.com/user/random_number_string
p2729
aVhttps://www.reddit.com/r/books/comments/5fykrv/101_books_every_woman_should_read/
p2730
aVjavascript: void 0;
p2731
aVhttp://www.ltisdschools.org/cms/lib09/TX21000349/Centricity/Domain/177/Beatty%20Speech%20to%20Montag%20Excerpt.pdf
p2732
aVhttp://www.ltisdschools.org/cms/lib09/TX21000349/Centricity/Domain/177/Beatty%20Speech%20to%20Montag%20Excerpt.pdf
p2733
aVhttps://www.reddit.com/domain/ltisdschools.org/
p2734
aVhttps://www.reddit.com/user/MattOCOC
p2735
aVhttps://www.reddit.com/r/books/comments/5fzipa/reading_that_finn_and_mockingbird_were_pulled/
p2736
aVjavascript: void 0;
p2737
aVhttp://www.nytimes.com/2016/11/29/nyregion/bookstores-opening.html
p2738
aVhttp://www.nytimes.com/2016/11/29/nyregion/bookstores-opening.html
p2739
aVhttps://www.reddit.com/domain/nytimes.com/
p2740
aVhttps://www.reddit.com/user/drak0bsidian
p2741
aVhttps://www.reddit.com/r/books/comments/5fxvfs/what_it_takes_to_open_a_bookstore/
p2742
aVjavascript: void 0;
p2743
aVhttps://www.reddit.com/r/books/comments/5g0ts4/how_are_essay_collections_compiled/
p2744
aVhttps://www.reddit.com/r/books/comments/5g0ts4/how_are_essay_collections_compiled/
p2745
aVhttps://www.reddit.com/r/books/
p2746
aVhttps://www.reddit.com/user/jchries
p2747
aVhttps://www.reddit.com/r/books/comments/5g0ts4/how_are_essay_collections_compiled/
p2748
aVjavascript: void 0;
p2749
aVhttps://www.theguardian.com/books/2016/nov/30/best-sf-and-fantasy-books-2016-adam-roberts?CMP=twt_gu
p2750
aVhttps://www.theguardian.com/books/2016/nov/30/best-sf-and-fantasy-books-2016-adam-roberts?CMP=twt_gu
p2751
aVhttps://www.reddit.com/domain/theguardian.com/
p2752
aVhttps://www.reddit.com/user/argonautul
p2753
aVhttps://www.reddit.com/r/books/comments/5foo9v/the_best_sf_and_fantasy_books_of_2016/
p2754
aVjavascript: void 0;
p2755
aVhttps://www.reddit.com/r/books/comments/5g18zl/does_anyone_know_how_to_bind_a_book/
p2756
aVhttps://www.reddit.com/r/books/comments/5g18zl/does_anyone_know_how_to_bind_a_book/
p2757
aVhttps://www.reddit.com/r/books/
p2758
aVhttps://www.reddit.com/user/GingeredMexican
p2759
aVhttps://www.reddit.com/r/books/comments/5g18zl/does_anyone_know_how_to_bind_a_book/
p2760
aVjavascript: void 0;
p2761
aVhttp://www.theverge.com/2016/11/29/13777082/james-sa-corey-expanse-novel-babylons-ashes-excerpt
p2762
aVhttp://www.theverge.com/2016/11/29/13777082/james-sa-corey-expanse-novel-babylons-ashes-excerpt
p2763
aVhttps://www.reddit.com/domain/theverge.com/
p2764
aVhttps://www.reddit.com/user/doctor_wongburger
p2765
aVhttps://www.reddit.com/r/books/comments/5fy6lt/read_an_excerpt_from_the_next_expanse_novel/
p2766
aVjavascript: void 0;
p2767
aVhttps://www.reddit.com/r/books/comments/5fvqmr/330am_and_i_just_blazed_through_story_of_you_life/
p2768
aVhttps://www.reddit.com/r/books/comments/5fvqmr/330am_and_i_just_blazed_through_story_of_you_life/
p2769
aVhttps://www.reddit.com/r/books/
p2770
aVhttps://www.reddit.com/user/TylertheDouche
p2771
aVhttps://www.reddit.com/r/books/comments/5fvqmr/330am_and_i_just_blazed_through_story_of_you_life/
p2772
aVjavascript: void 0;
p2773
aVhttps://www.japantoday.com/category/national/view/murakamis-new-novel-set-for-release-in-japan-in-february
p2774
aVhttps://www.japantoday.com/category/national/view/murakamis-new-novel-set-for-release-in-japan-in-february
p2775
aVhttps://www.reddit.com/domain/japantoday.com/
p2776
aVhttps://www.reddit.com/user/doc_two_thirty
p2777
aVhttps://www.reddit.com/r/books/comments/5fvn31/murakamis_new_novel_set_for_release_in_japan_in/
p2778
aVjavascript: void 0;
p2779
aVhttps://www.reddit.com/r/books/comments/5fxy34/beethoven_and_elie_wiesel/
p2780
aVhttps://www.reddit.com/r/books/comments/5fxy34/beethoven_and_elie_wiesel/
p2781
aVhttps://www.reddit.com/r/books/
p2782
aVhttps://www.reddit.com/user/hizleggys
p2783
aVhttps://www.reddit.com/r/books/comments/5fxy34/beethoven_and_elie_wiesel/
p2784
aVjavascript: void 0;
p2785
aVhttps://www.reddit.com/r/books/comments/5fxl1t/im_a_chunk_of_the_way_into_moby_dick_whats_with/
p2786
aVhttps://www.reddit.com/r/books/comments/5fxl1t/im_a_chunk_of_the_way_into_moby_dick_whats_with/
p2787
aVhttps://www.reddit.com/r/books/
p2788
aVhttps://www.reddit.com/user/Nikos_Danovich
p2789
aVhttps://www.reddit.com/r/books/comments/5fxl1t/im_a_chunk_of_the_way_into_moby_dick_whats_with/
p2790
aVjavascript: void 0;
p2791
aVhttp://www.beliefnet.com/inspiration/the-empathy-of-patrick-rothfuss.aspx
p2792
aVhttp://www.beliefnet.com/inspiration/the-empathy-of-patrick-rothfuss.aspx
p2793
aVhttps://www.reddit.com/domain/beliefnet.com/
p2794
aVhttps://www.reddit.com/user/Tolkienside
p2795
aVhttps://www.reddit.com/r/books/comments/5fswlt/did_an_interview_with_patrick_rothfuss_about_his/
p2796
aVjavascript: void 0;
p2797
aVhttps://www.reddit.com/r/books/comments/5fvtt5/finished_infinite_jest_and_its_totally_the_basis/
p2798
aVhttps://www.reddit.com/r/books/comments/5fvtt5/finished_infinite_jest_and_its_totally_the_basis/
p2799
aVhttps://www.reddit.com/r/books/
p2800
aVhttps://www.reddit.com/user/FattyBowlPack77
p2801
aVhttps://www.reddit.com/r/books/comments/5fvtt5/finished_infinite_jest_and_its_totally_the_basis/
p2802
aVjavascript: void 0;
p2803
aVhttps://www.reddit.com/r/books/comments/5fyf5u/reading_the_color_purple_in_school/
p2804
aVhttps://www.reddit.com/r/books/comments/5fyf5u/reading_the_color_purple_in_school/
p2805
aVhttps://www.reddit.com/r/books/
p2806
aVhttps://www.reddit.com/user/sun_chine
p2807
aVhttps://www.reddit.com/r/books/comments/5fyf5u/reading_the_color_purple_in_school/
p2808
aVjavascript: void 0;
p2809
aVhttp://people.com/books/harper-lee-lawyer-hometown-tourist-destination/
p2810
aVhttp://people.com/books/harper-lee-lawyer-hometown-tourist-destination/
p2811
aVhttps://www.reddit.com/domain/people.com/
p2812
aVhttps://www.reddit.com/user/amf88
p2813
aVhttps://www.reddit.com/r/books/comments/5fznmm/harper_lees_lawyer_planning_to_turn_authors/
p2814
aVjavascript: void 0;
p2815
aVhttps://www.reddit.com/r/books/comments/5fwxs4/im_an_inconsistent_reader_help/
p2816
aVhttps://www.reddit.com/r/books/comments/5fwxs4/im_an_inconsistent_reader_help/
p2817
aVhttps://www.reddit.com/r/books/
p2818
aVhttps://www.reddit.com/user/guirepa
p2819
aVhttps://www.reddit.com/r/books/comments/5fwxs4/im_an_inconsistent_reader_help/
p2820
aVjavascript: void 0;
p2821
aVhttps://www.reddit.com/r/books/comments/5fwo0f/just_finished_william_forstchens_day_of_wrath_and/
p2822
aVhttps://www.reddit.com/r/books/comments/5fwo0f/just_finished_william_forstchens_day_of_wrath_and/
p2823
aVhttps://www.reddit.com/r/books/
p2824
aVhttps://www.reddit.com/user/moxin84
p2825
aVhttps://www.reddit.com/r/books/comments/5fwo0f/just_finished_william_forstchens_day_of_wrath_and/
p2826
aVjavascript: void 0;
p2827
aVhttps://www.reddit.com/r/books/?count=25&after=t3_5fwo0f
p2828
aVhttps://www.reddit.com/blog/
p2829
aVhttps://about.reddit.com/
p2830
aVhttps://www.reddit.com/code/
p2831
aVhttps://www.reddit.com/advertising/
p2832
aVhttps://www.reddit.com/jobs/
p2833
aVhttps://www.reddit.com/rules/
p2834
aVhttps://reddit.zendesk.com
p2835
aVhttps://www.reddit.com/wiki/
p2836
aVhttps://www.reddit.com/wiki/reddiquette/
p2837
aVhttps://www.reddit.com/wiki/transparency/
p2838
aVhttps://www.reddit.com/contact/
p2839
aVhttps://itunes.apple.com/us/app/reddit-the-official-app/id1064216828?mt=8
p2840
aVhttps://play.google.com/store/apps/details?id=com.reddit.frontpage
p2841
aS'https://www.reddit.com/r/books/'
p2842
aVhttps://www.reddit.com/buttons/
p2843
aVhttps://www.reddit.com/gold/about/
p2844
aVhttp://redditgifts.com
p2845
aVhttps://www.reddit.com/help/useragreement
p2846
aVhttps://www.reddit.com/help/privacypolicy
p2847
aVhttps://www.reddit.com/advertising
p2848
as.