(dp0
S'http://www.ign.com/articles/2016/12/07/daily-deals-call-of-duty-board-game-blowout-oculus-rift-with-100-credit?abthid=58488891b13000a618000014'
p1
F7.340918382013246e-06
sS'http://me.ign.com/en/'
p2
F5.730296402027254e-06
sS'http://www.ign.com/articles/2016/12/07/daily-deals-call-of-duty-board-game-blowout-oculus-rift-with-100-credit?abthid=58488891b13000a618000013'
p3
F7.340918382013246e-06
sS'http://sea.ign.com/'
p4
F6.254838918828209e-06
sS'http://www.ign.com/watch/jose-otero'
p5
F3.5200392183881697e-06
sS'http://www.ign.com/articles/2016/11/16/best-xbox-gifts-of-2016'
p6
F4.6331506702137206e-05
sS'https://twitter.com/SquareEnixMtl'
p7
F1.6206242080183367e-05
sS'http://www.ign.com/videos/2016/03/20/dark-souls-prepare-to-try-episode-4-the-lower-undead-burg-capra-demon'
p8
F8.675810971430554e-06
sS'http://www.ign.com/boards/'
p9
F1.2822682812988866e-05
sS'http://www.ign.com/boards/forums/hitman.5848/'
p10
F9.765361002173745e-06
sS'http://www.ign.com/boards/categories/sports.80144/'
p11
F8.069787522494533e-06
sS'https://www.youtube.com/watch?v=rYWsD7u2AaM'
p12
F2.8464261124189048e-05
sS'http://www.ign.com/boards/forums/football.5105/'
p13
F1.3230079909682655e-05
sS'http://www.ign.com/articles/2016/12/08/daily-deals-oculus-rift-miyazaki-movies-ps4-with-free-ps-plus'
p14
F7.731813560516646e-06
sS'http://gr.ign.com/'
p15
F6.0127857489351775e-06
sS'http://nl.ign.com/'
p16
F1.2583890525370142e-05
sS'http://adria.ign.com/sl/'
p17
F5.876625339298968e-06
sS'http://www.ign.com/boards/misc/quick-navigation-menu'
p18
F1.2332594430449958e-05
sS'http://it.ign.com/'
p19
F5.179165983743103e-06
sS'http://www.ign.com/articles/2016/12/08/daily-deals-oculus-rift-miyazaki-movies-ps4-with-free-ps-plus/'
p20
F7.731813560516646e-06
sS'http://de.ign.com/'
p21
F5.306545889682217e-06
sS'http://ro.ign.com/'
p22
F1.3998951815710033e-05
sS'http://pl.ign.com/'
p23
F1.0904725875471622e-05
sS'http://www.ign.com/videos/2016/11/08/infamous-second-son-graphics-comparison-ps4-pro-vs-ps4'
p24
F3.5319312427746155e-05
sS'https://www.youtube.com/watch?v=kcv7PwBXp7I&list=PLraFbwCoisJCG-Oc0RG_qsLvbpoAm11Mi'
p25
F8.277357701874407e-07
sS'http://www.ign.com/boards/recent-activity/'
p26
F6.580116204852177e-06
sS'https://www.youtube.com/watch?v=6X-fWJD4Vd0'
p27
F1.779665264713651e-06
sS'https://twitter.com/KOOPMode'
p28
F2.0417114911109028e-05
sS'https://www.youtube.com/watch?v=C_fhTko1Bok&list=PLraFbwCoisJAzl1QlMD8ZT-sesYJyo041'
p29
F5.953718172781748e-06
sS'http://ru.ign.com/'
p30
F5.855466102599619e-06
sS'https://twitter.com/hashtag/LaraCroft?src=hash'
p31
F4.8885514596052135e-05
sS'https://www.youtube.com/watch?v=9UM-4TOGSyI&list=PLraFbwCoisJBTl0oXn8UoUam5HXWUZ7ES'
p32
F1.6338829057890163e-06
sS'http://www.ign.com/articles/2016/05/05/top-10-secret-bosses-in-video-games?read'
p33
F5.8094479122243426e-06
sS'http://www.ign.com/videos/2016/03/16/dark-souls-prepare-to-try-episode-2-the-undead-burg'
p34
F8.786960151135716e-06
sS'http://www.ign.com/wikis/playstation-4/PS4_Pro_Game_Upgrades_and_Differences'
p35
F9.371445172274305e-06
sS'http://in.ign.com'
p36
F1.4559159524577749e-05
sS'http://www.ign.com/articles/2016/05/05/top-10-secret-bosses-in-video-games'
p37
F5.8094479122243426e-06
sS'http://www.ign.com/articles/2016/11/15/best-playstation-gifts-of-2016'
p38
F3.456446586387534e-05
sS'http://www.ign.com/boards/threads/tnf-gt-oakland-raiders-10-2-kansas-city-chiefs-9-3.454894740/page-2'
p39
F4.192664361971772e-05
sS'http://www.ign.com/videos/2016/03/18/dark-souls-prepare-to-try-episode-3-the-undead-parish'
p40
F8.837279178486527e-06
sS'https://twitter.com/'
p41
F8.207215784117396e-06
sS'http://www.ign.com/boards/categories/gaming.80142/'
p42
F1.4092358049352984e-05
sS'https://www.youtube.com/watch?v=leG2uIzuSGQ&list=PLraFbwCoisJBTyMjQXyP8zf3EB3sUdUje'
p43
F1.4907945843323364e-06
sS'http://www.ign.com/articles/2016/12/05/daily-deals-ps4-with-free-ps-plus-dead-rising-4-the-last-guardian'
p44
F9.447665291800936e-06
sS'https://www.youtube.com/watch?v=iVmqMe9Hpso&list=PLraFbwCoisJDET9N2S4Edc6UYR5WHq-fN'
p45
F1.4937157420507025e-06
sS'https://www.youtube.com/watch?v=tUr0bhIGgH0'
p46
F1.7863116420203587e-06
sS'http://www.ign.com/videos/series/season-1-dark-souls'
p47
F7.5462585650034716e-06
sS'https://www.youtube.com/watch?v=OgZM765ROcg'
p48
F1.7782382113595286e-06
sS'http://pt.ign.com/'
p49
F9.71093621951832e-06
sS'http://www.ign.com/articles/2016/12/06/daily-deals-star-wars-legos-ps4-slim-with-free-ps-plus-metal-gear-solid-v-definitive?abthid=5847264c327fc6091100001f'
p50
F7.4553397871118634e-06
sS'http://nl.ign.com'
p51
F1.2583890525370142e-05
sS'http://in.ign.com/'
p52
F1.4559159524577749e-05
sS'http://www.ign.com/wikis/black-friday-cyber-monday/Xbox_Live_Black_Friday_2016_Deals'
p53
F1.4511523963967886e-05
sS'http://www.ign.com/videos/2016/03/21/dark-souls-prepare-to-try-episode-5-the-depths-gaping-dragon'
p54
F8.724861492823801e-06
sS'http://www.ign.com/articles/2016/05/05/top-10-secret-bosses-in-video-games?watch'
p55
F5.827489675926903e-06
sS'http://www.ign.com/boards/categories/individual-gaming-boards.80187/'
p56
F5.540284302391555e-06
sS'http://www.ign.com/boards/forums/tomb-raider.6484/'
p57
F0.00019948259635982487
sS'https://twitter.com/i/moments'
p58
F1.0015122835481578e-05
sS'http://www.ign.com/videos/2016/03/14/dark-souls-prepare-to-try-episode-1-the-northern-undead-asylum'
p59
F8.743398733955864e-06
sS'http://www.ign.com/boards/forums/football.5105/index.rss'
p60
F2.6444672456286956e-05
sS'http://www.ign.com/articles/2016/12/04/daily-deals-extended-lord-of-the-rings-and-hobbit-trilogies-destiny-the-collection-ff-xv-discount'
p61
F8.8866563874062e-06
sS'http://www.ign.com/videos/2016/03/09/indiana-jones-face-melting-candle-time-lapse'
p62
F9.368734658696996e-06
sS'http://www.ign.com/articles/2016/12/06/daily-deals-star-wars-legos-ps4-slim-with-free-ps-plus-metal-gear-solid-v-definitive?abthid=5847264c327fc60911000020'
p63
F7.457619010525838e-06
sS'http://es.ign.com/'
p64
F1.2904534535406461e-05
sS'http://adria.ign.com/'
p65
F5.557956660612899e-06
sS'http://www.ign.com/wikis/playstation-4/PlayStation_VR_Games_Listed_by_Motion_Sickness_Potential'
p66
F4.484167607248165e-05
s.