(dp0
S'http://www.ign.com/articles/2016/07/25/top-10-worst-star-wars-games-ever-made?watch'
p1
F1.2389990162347812e-06
sS'http://www.ign.com/games/dicetiny/iphone-20033605'
p2
F6.894633114164438e-07
sS'http://www.ign.com/articles/2016/12/07/the-flash-the-present-review'
p3
F3.687631775216718e-07
sS'http://www.ign.com/boards/forums/sonic-the-hedgehog.5224/'
p4
F4.478325464542298e-07
sS'http://www.ign.com/articles/2016/12/02/dcs-legends-of-tomorrow-invasion-review'
p5
F3.7090846238784194e-07
sS'http://www.ign.com/articles/2016/10/05/playstation-vr-review'
p6
F7.404566247913764e-07
sS'http://www.ign.com/articles/2016/12/05/valiants-x-o-manowar-returns-in-march-2017'
p7
F1.1510709218535648e-06
sS'http://www.ign.com/articles/2016/11/14/eagle-flight-review'
p8
F6.398170976190272e-07
sS'http://www.ign.com/wikis/ign-community-central/Making_Yourself_Known'
p9
F7.391013045507576e-07
sS'https://www.youtube.com/watch?v=leG2uIzuSGQ&list=PLraFbwCoisJBTyMjQXyP8zf3EB3sUdUje'
p10
F5.552406518480833e-07
sS'http://www.ign.com/images/games/strafe-pc-20030452'
p11
F9.135648854892095e-07
sS'http://www.ign.com/articles/2016/12/09/hands-on-with-resident-evil-7-biohazard-collectors-edition?watch'
p12
F8.325684111056301e-07
sS'http://www.ign.com/games/for-honor/ps4-20038802'
p13
F6.69644576096568e-07
sS'http://www.ign.com/boards/forums/classic-gaming-lobby.5138/index.rss'
p14
F1.2261002410513075e-06
sS'http://www.ign.com/boards/threads/04-grand-prix-gt-starting-disabled-due-to-theft-system.454858041/'
p15
F6.51283353848759e-07
sS'http://www.ign.com/videos/games/ultimate-marvel-vs-capcom-3-ps4-20062336'
p16
F6.158551287029445e-07
sS'http://www.ign.com/wikis/pokemon-sun-pokemon-moon?objectid=20050014'
p17
F2.6507375014413383e-06
sS'http://www.ign.com/boards/forums/socom-u-s-navy-seals.6233/'
p18
F4.863055151179012e-07
sS'http://www.ign.com/boards/forums/tales-of-series-namco.7713/'
p19
F4.759870483924132e-07
sS'http://www.ign.com/articles/2016/01/27/darkest-dungeon-review?read'
p20
F7.828869268582669e-07
sS'http://www.ign.com/articles/2016/11/16/best-xbox-gifts-of-2016'
p21
F1.04465939820515e-06
sS'http://www.ign.com/articles/2016/11/15/best-playstation-gifts-of-2016'
p22
F1.0781301514406298e-06
sS'http://www.ign.com/wikis/create?objectid=20032525'
p23
F1.2065607949787765e-06
sS'http://www.ign.com/blogs/constructive_review'
p24
F7.974898210392966e-07
sS'http://people.ign.com'
p25
F7.933117473206887e-07
sS'http://www.ign.com/articles/2016/11/30/new-mighty-morphin-power-ranger-makes-mysterious-debut'
p26
F1.098863423583719e-06
sS'http://www.ign.com/videos/2015/12/26/destinys-potentially-dastardly-and-dangerous-microtransaction-plan-esports-weekly-with-coca-cola'
p27
F4.23561901454088e-07
sS'http://www.ign.com/videos/2016/12/06/rogue-one-a-star-wars-story-gareth-edwards-on-the-fall-of-the-jedi'
p28
F3.0014545048530515e-07
sS'http://www.ign.com/articles/2016/12/03/psx-2016-windjammers-coming-to-playstation-4-and-ps-vita'
p29
F1.2315850326948877e-06
sS'http://www.ign.com/watch/beyond'
p30
F2.3422023166254674e-07
sS'http://www.ign.com/articles/2016/12/08/the-walking-dead-midseason-finale-beware-the-zombie-pond'
p31
F1.163005989015641e-06
sS'http://www.ign.com/games/dishonored-2/pc-20038694'
p32
F5.889095956046143e-07
sS'http://www.ign.com/articles/2015/09/17/tgs-2015-first-look-at-the-gorgeous-new-playstation-4-and-vita-hardware?watch'
p33
F1.9167516426561576e-06
sS'http://www.ign.com/articles/2016/04/01/the-walking-dead-michonne-episode-2-review?read'
p34
F6.724946547883188e-07
sS'http://www.ign.com/games/ys-origin/ps4-20062330'
p35
F6.794094437233268e-07
sS'http://www.ign.com/images/games/crash-bandicoot-remastered-ps4-20054856'
p36
F9.156364611932666e-07
sS'http://www.ign.com/boards/forums/nfl-2k-series.6054/'
p37
F4.833946680601324e-07
sS'http://www.ign.com/articles/2016/10/05/thumper-vr-review'
p38
F5.366451734311984e-07
sS'http://www.ign.com/cheats/games/watch-dogs-2-ps4-20054628'
p39
F5.446884164382607e-07
sS'http://www.ign.com/videos/2016/12/08/the-first-17-minutes-of-bully-anniversary-on-ipad'
p40
F3.005923171609657e-07
sS'http://www.ign.com/videos/2016/12/03/final-fantasy-xv-didnt-suffer-the-duke-nukem-forever-curse'
p41
F3.948458403385566e-07
sS'http://www.ign.com/games/gravity-rush-2/ps4-143643'
p42
F6.309307490409853e-07
sS'http://www.ign.com/videos/2016/12/03/final-fantasy-15-worth-the-wait-game-scoop'
p43
F4.434066757535475e-07
sS'http://www.ign.com/boards/threads/anyone-have-experience-with-making-vanilla-extract.454893395/'
p44
F8.855168407592775e-07
sS'http://www.ign.com/boards/forums/college-basketball.8691/'
p45
F4.82048164806483e-07
sS'http://www.ign.com/articles/2016/05/10/the-13-biggest-video-games-that-never-came-out?read'
p46
F1.0832074856858644e-06
sS'https://www.youtube.com/watch?v=9UM-4TOGSyI&list=PLraFbwCoisJBTl0oXn8UoUam5HXWUZ7ES'
p47
F8.113777884519033e-08
sS'http://www.ign.com/boards/forums/infamous.24156/'
p48
F4.857205445704457e-07
sS'http://www.ign.com/articles/2016/11/07/call-of-duty-infinite-warfare-review'
p49
F7.142612253294173e-07
sS'http://www.ign.com/videos/2016/12/04/full-destiny-srl-match-on-new-winter-track-haakons-precipice'
p50
F2.7619403514790054e-07
sS'http://www.ign.com/wikis/dishonored-2'
p51
F5.787802380117972e-07
sS'http://www.ign.com/boards/threads/best-exclusive-commodore-64-games.454873300/'
p52
F7.130000224595006e-07
sS'http://www.ign.com/articles/2016/12/08/guitar-hero-skylanders-developer-vicarious-visions-working-on-destiny'
p53
F1.3555244738814154e-06
sS'http://www.ign.com/wikis/gta-5/Cheats_and_Secrets'
p54
F2.9022209826513937e-07
sS'http://www.ign.com/games/the-dwarves/xbox-one-20060259'
p55
F9.748286251277026e-07
sS'http://www.ign.com/boards/forums/warhammer.8643/'
p56
F4.557513311357004e-07
sS'http://www.ign.com/boards/forums/mario-bros.5215/'
p57
F6.754946309435084e-07
sS'http://www.ign.com/articles/2016/02/22/psycho-pass-mandatory-happiness-releasing-in-the-west-this-fall'
p58
F1.235604894082713e-06
sS'http://www.ign.com/articles/2016/12/08/tekken-7-first-ps4-footage-of-bob-and-master-raven-ign-first'
p59
F9.966162387155012e-07
sS'http://www.ign.com/articles/2016/12/05/out-this-week-the-last-guardian-dead-rising-4'
p60
F1.1388784438972343e-06
sS'http://www.ign.com/videos/2016/08/10/what-the-heck-is-transformers-the-last-knight-even-about'
p61
F4.493275364090103e-07
sS'http://www.ign.com/boards/threads/is-prime-dead.454855406/'
p62
F7.084134726074221e-07
sS'http://www.ign.com/wikis/metal-gear-solid-5-the-phantom-pain/Easter_Eggs'
p63
F2.966904330538064e-07
sS'http://latam.ign.com/'
p64
F1.7990896606317204e-06
sS'http://www.ign.com/wikis/watch-dogs-2?objectid=20054628'
p65
F7.202063247079022e-07
sS'http://www.ign.com/wikis/watch-dogs-2?objectid=20054627'
p66
F7.202063247079022e-07
sS'http://www.ign.com/articles/2016/12/08/legends-of-tomorrow-the-legion-of-doom-strikes-in-the-midseason-finale'
p67
F1.207041688081598e-06
sS'http://www.ign.com/articles/2016/12/08/ww2-shooter-days-of-war-hits-early-access-in-january?read'
p68
F1.1266620518589022e-06
sS'http://www.ign.com/articles/2016/06/17/final-fantasy-15-vr-made-me-cry'
p69
F1.1245702173771739e-06
sS'http://www.ign.com/articles?tags=feature'
p70
F6.433282199461984e-07
sS'http://www.ign.com/games/abzu/xbox-one-20060928'
p71
F6.855614251039569e-07
sS'http://www.ign.com/games/reviews/3ds'
p72
F7.944419743691102e-06
sS'http://www.ign.com/boards/threads/%D9%A9%E0%B9%8F%CC%AF%CD%A1%E0%B9%8F-%DB%B6-crosswalk-community-thread-freundschaft-macht-frei-%D9%A9%E0%B9%8F%CC%AF%CD%A1%E0%B9%8F-%DB%B6.454850177/page-45'
p73
F4.3434458162735453e-07
sS'http://www.ign.com/wikis/pokemon-sun-pokemon-moon'
p74
F2.6507375014413383e-06
sS'http://www.ign.com/games/halo-wars-2/pc-20041132'
p75
F6.90249024591847e-07
sS'http://fi.ign.com/'
p76
F1.4059738140189088e-07
sS'http://www.ign.com/articles/2016/12/06/the-future-of-the-transformers-cinematic-universe'
p77
F9.632530519709698e-07
sS'http://www.ign.com/articles/2016/11/29/pc-gear-through-the-ages'
p78
F1.227093839301754e-06
sS'http://www.ign.com/videos/2016/12/07/soulcalibur-official-20th-anniversary-trailer'
p79
F2.6682533880147395e-07
sS'http://www.ign.com/articles/2016/12/06/the-unspoken-review'
p80
F6.425320216541858e-07
sS'http://www.ign.com/wikis/playstation-4/How_To_Set_Up_PlayStation_VR'
p81
F5.914975772259237e-07
sS'https://www.youtube.com/watch?v=Fea8mIQRjkM'
p82
F4.2220376347368315e-08
sS'http://www.ign.com/videos/2016/12/05/every-sith-ever'
p83
F2.964725986683044e-07
sS'http://www.ign.com/boards/forums/god-of-war.7525/'
p84
F4.7542662408111923e-07
sS'http://www.ign.com/boards/forums/fable.6152/'
p85
F4.7282866438668685e-07
sS'http://www.ign.com/videos/2016/03/09/indiana-jones-face-melting-candle-time-lapse'
p86
F4.709902947739859e-07
sS'http://www.ign.com/blogs/techportal11'
p87
F9.553525537529114e-07
sS'http://www.ign.com/boards/forums/ratchet-and-clank.6688/'
p88
F4.6934794194447567e-07
sS'http://www.ign.com/boards/forums/rainbow-six.6173/'
p89
F4.772998574305326e-07
sS'http://www.ign.com/cheats/games/dead-rising-4-pc-20054801'
p90
F7.445525741602284e-07
sS'http://www.ign.com/games/upcoming/vita'
p91
F1.367253993407101e-06
sS'http://www.ign.com/blogs/pacquiaovsvargaslive/2016/12/06/13th-fina-world-swimming-championships-25-m-live-stream-2016'
p92
F5.774008761480895e-07
sS'http://www.ign.com/boards/forums/silent-hill.6286/'
p93
F4.6200878648310136e-07
sS'http://www.ign.com/boards/forums/street-fighter.6376/'
p94
F4.5799131877455266e-07
sS'http://www.ign.com/wikis/ign-community-central/Contests/Sweepstakes/Giveaways'
p95
F8.81008755024503e-07
sS'http://www.ign.com/articles/2016/12/09/spider-man-homecoming-star-tom-holland-calls-vultures-debut-like-a-horror-movie?abthid=584a07217bb8cf2b2000002d&watch'
p96
F1.4701299006780238e-06
sS'http://www.ign.com/videos/2016/12/02/zelda-breath-of-the-wild-game-awards-teaser'
p97
F2.03545589705013e-06
sS'http://www.ign.com/wikis/ign-community-central/Community_How_To%27s'
p98
F9.156364611932666e-07
sS'http://www.ign.com/articles/2016/12/09/spider-man-homecoming-star-tom-holland-calls-vultures-debut-like-a-horror-movie'
p99
F1.4565776009924147e-06
sS'http://www.ign.com/tv'
p100
F6.077192499123871e-07
sS'http://www.ign.com/articles/2016/12/08/the-walking-dead-161-review'
p101
F4.7301329096395615e-07
sS'http://www.ign.com/articles/2016/11/08/call-of-duty-modern-warfare-remastered-review?read'
p102
F5.382347622150585e-07
sS'http://www.ign.com/articles/2016/05/16/doom-review-2?watch'
p103
F7.353624270489831e-07
sS'http://people.ign.com/brianalbert'
p104
F3.3107052149731935e-07
sS'http://www.ign.com/trailers/marvel-vs-capcom-infinite-reveal-trailer'
p105
F3.0997621242545845e-07
sS'http://www.ign.com/boards/forums/battlefield.7641/'
p106
F4.611294397254251e-07
sS'https://www.youtube.com/watch?v=9UM-4TOGSyI'
p107
F4.446762492323221e-08
sS'http://www.ign.com/wikis/final-fantasy-15/Oracle_Ascension_Coins'
p108
F4.7412408538500655e-07
sS'http://www.ign.com/cheats/games/dead-rising-4-xbox-one-20054254'
p109
F7.422714694599826e-07
sS'http://www.ign.com/games/the-last-guardian/ps4-14230646'
p110
F6.767525352841853e-07
sS'http://www.ign.com/articles/2016/05/16/doom-review-2?page=1'
p111
F7.323984511237555e-07
sS'http://www.ign.com/cheats/games/eagle-flight-ps4-20046733'
p112
F7.450104785723811e-07
sS'http://www.ign.com/articles/2016/12/06/vikings-new-clip-reveals-lagerthas-desire-to-take-down-queen-aslaug'
p113
F1.2682025106351462e-06
sS'http://www.ign.com/trailers/resident-evil-7-biohazard-psx-2016-trailer'
p114
F3.08712293108739e-07
sS'http://www.ign.com/videos/series/season-1-dark-souls'
p115
F7.404566247913764e-07
sS'http://www.ign.com/videos/2016/11/21/watch-party-flcl-episodes-1-and-2'
p116
F4.872836034427561e-07
sS'http://www.ign.com/boards/forums/feature-and-board-requests.4/'
p117
F4.826243179915107e-07
sS'http://www.ign.com/cheats/games/batman-the-telltale-series-episode-4-pc-20060180'
p118
F7.09658487497769e-07
sS'https://www.youtube.com/watch?v=C_fhTko1Bok'
p119
F1.7679320463495208e-07
sS'http://www.ign.com/watch/prepare-to-try'
p120
F2.3503823014332393e-07
sS'http://www.ign.com/boards/threads/video-why-you-deserve-the-friend-zone.454894044/'
p121
F9.006595079246778e-07
sS'http://www.ign.com/videos/2016/12/08/sea-of-thieves-official-technical-alpha-update-010-the-quest-for-gold-trailer'
p122
F2.9955169093934016e-07
sS'http://www.ign.com/articles/2016/11/04/the-original-diablo-returns-in-diablo-3-next-week'
p123
F1.1979697766600988e-06
sS'http://www.ign.com/videos/2016/09/08/ps4-pro-reactions-and-impressions'
p124
F4.916343499020664e-07
sS'http://www.ign.com/boards/categories/individual-gaming-boards.80187/'
p125
F2.7512764891180825e-07
sS'http://www.ign.com/articles/2016/12/01/south-park-not-funny-review'
p126
F4.1147657546151214e-07
sS'http://www.ign.com/articles/2016/11/08/first-mass-effect-andromeda-story-details-revealed'
p127
F1.1749631795913596e-06
sS'http://www.ign.com/boards/forums/resident-evil.5234/'
p128
F4.506648207435609e-07
sS'http://www.ign.com/boards/forums/metal.5115/'
p129
F4.746814412847538e-07
sS'http://www.ign.com/boards/forums/dead-or-alive.5608/'
p130
F7.034767933558023e-07
sS'http://www.ign.com/articles/2016/12/08/guitar-hero-skylanders-developer-vicarious-visions-working-on-destiny?watch'
p131
F1.3641745925210493e-06
sS'http://www.ign.com/boards/forums/lord-of-the-rings.5373/'
p132
F4.673561104007298e-07
sS'http://www.ign.com/wikis/ign/IGN_Deals_Standards_and_Practices'
p133
F7.4730847511332e-07
sS'http://www.ign.com/articles/2016/03/03/the-flame-in-the-flood-review'
p134
F5.863441617418644e-07
sS'http://www.ign.com/articles/2016/12/05/the-last-guardian-review?watch'
p135
F5.918829176671133e-07
sS'http://www.ign.com/articles/2016/12/08/into-the-badlands-see-the-fight-prep-for-season-2'
p136
F1.2162520463440678e-06
sS'http://www.ign.com/articles/2016/10/24/top-10-scariest-pokemon'
p137
F1.3081933457437277e-06
sS'http://www.ign.com/videos/2016/12/08/the-last-guardian-official-living-with-trico-trailer'
p138
F3.037580336405947e-07
sS'http://www.ign.com/articles/2016/10/05/playstation-vr-review?read'
p139
F7.404566247913764e-07
sS'http://www.ign.com/cheats/games/the-last-guardian-ps4-14230646'
p140
F7.510149027642229e-07
sS'http://www.ign.com/games/pokemon-sun-version/3ds-20050014'
p141
F4.141494147551083e-06
sS'http://www.ign.com/images/games/bulletstorm-full-clip-edition-xbox-one-20054907'
p142
F9.006595079246778e-07
sS'http://www.ign.com/blogs/sportshd/2016/12/06/fina-world-swimming-championships-25m-2016-live'
p143
F5.790569016054932e-07
sS'http://www.ign.com/boards/forums/donkey-kong.5645/'
p144
F6.91167956347675e-07
sS'http://www.ign.com/articles/2016/11/23/marvel-studios-boss-kevin-feige-on-the-impossibility-of-a-foxmcu-rights-sharing-deal'
p145
F1.256104353130124e-06
sS'http://www.ign.com/articles/2016/04/26/severed-review'
p146
F6.34898866959482e-07
sS'http://www.ign.com/boards/forums/ncaa-football-ea.6051/'
p147
F4.686216782045229e-07
sS'http://www.ign.com/wikis/dead-rising-4'
p148
F6.674308750185629e-07
sS'http://www.ign.com/articles/2016/12/08/bully-anniversary-edition-now-available-on-ios-and-android?abthid=5849e349f91de56c1f00001a&read'
p149
F7.332851320573195e-07
sS'http://www.ign.com/articles/2016/12/03/psx-2016-the-last-of-us-part-2-announced'
p150
F1.129182548619213e-06
sS'http://www.ign.com/articles/2016/11/07/call-of-duty-infinite-warfare-review?read'
p151
F7.142612253294173e-07
sS'http://www.ign.com/wikis/create?objectid=20060259'
p152
F1.2065607949787765e-06
sS'http://www.ign.com/articles/2016/12/05/westworld-creators-on-the-season-finale-reveals-fords-plan-and-what-to-expect-in-season-2'
p153
F8.552577225068425e-07
sS'http://www.ign.com/wikis/nintendo-switch/Nintendo_Switch_Games'
p154
F1.1141065178220359e-05
sS'http://www.ign.com/watch/ign-plays'
p155
F1.2529861793118448e-07
sS'http://www.ign.com/watch/keepin-it-reel'
p156
F8.039467999460391e-08
sS'http://people.ign.com/terrischwartz-ign'
p157
F3.321598678800909e-07
sS'http://www.ign.com/articles/2016/12/07/westworld-questions-we-have-for-season-2'
p158
F7.974898210392966e-07
sS'http://www.ign.com/trailers/kojima-productions-death-stranding-reveal-trailer-e3-2016'
p159
F3.0808419078298365e-07
sS'http://www.ign.com/trailers'
p160
F3.128582226649514e-07
sS'http://www.ign.com/articles/2016/11/14/perfect-holiday-gifts-for-the-lego-lover-in-your-life'
p161
F1.1733698548611892e-06
sS'http://www.ign.com/trailers/death-stranding-mads-mikkelsen-game-awards-announcement-trailer'
p162
F3.08712293108739e-07
sS'http://www.ign.com/blogs/flamingtheronh/2015/10/30/the-love-of-bosses'
p163
F9.951153106451465e-07
sS'http://www.ign.com/boards/threads/check-out-my-app-for-making-colourful-pictures-with-crazy-gpu-shaders.454790188/'
p164
F7.293118832984297e-07
sS'http://www.ign.com/articles/2008/01/23/apollo-justice-ace-attorney-hands-on'
p165
F1.5855851284799631e-06
sS'http://www.ign.com/articles/2016/12/09/former-pilot-and-astronaut-john-glenn-dies-at-95'
p166
F1.8134536499381614e-06
sS'http://www.ign.com/wikis/the-witcher-3-wild-hunt'
p167
F6.670633470036849e-07
sS'http://www.ign.com/boards/threads/video-w-commentary-another-racist-teacher-caught-on-cam.454894000/'
p168
F8.940125742868574e-07
sS'http://www.ign.com/boards/forums/ninja-gaiden.6073/'
p169
F4.6395520419712437e-07
sS'http://www.ign.com/articles/2016/12/09/hands-on-with-resident-evil-7-biohazard-collectors-edition'
p170
F8.27732858325037e-07
sS'http://www.ign.com/articles/2016/12/05/state-of-decay-2-play-area-substantially-larger-than-first-game-a-ign-first'
p171
F5.967423833294047e-07
sS'http://www.ign.com/cheats/top'
p172
F1.400447442958025e-06
sS'http://www.ign.com/boards/forums/outpost.80128/'
p173
F4.468414010175919e-07
sS'http://www.ign.com/articles/2016/10/05/batman-arkham-vr-review'
p174
F6.423048982813848e-07
sS'http://www.ign.com/articles/2016/09/08/a-beginneras-guide-to-hearthstone'
p175
F7.309842132263406e-07
sS'http://www.ign.com/articles/2016/12/03/psx-2016-uncharted-the-lost-legacy-setting-story-details-revealed'
p176
F1.13809379759366e-06
sS'http://www.ign.com/blogs/popcultkid5555/2016/12/07/first-encounter'
p177
F1.158852396197728e-06
sS'http://www.ign.com/games/halo-wars-2/xbox-one-20041087'
p178
F6.990115626997643e-07
sS'http://www.ign.com/boards/forums/starcraft.5283/'
p179
F4.6898452890386824e-07
sS'http://www.ign.com/articles/2016/11/04/the-original-diablo-returns-in-diablo-3-next-week?read'
p180
F1.1979697766600988e-06
sS'http://www.ign.com/boards/forums/the-last-of-us.80152/'
p181
F4.801375498052682e-07
sS'http://www.ign.com/articles/2016/11/30/westworld-season-finale-photos-show-teddy-returning-to-the-massacre'
p182
F1.191840848247434e-06
sS'http://www.ign.com/videos/games/strafe-pc-20030452'
p183
F7.896916806771132e-07
sS'http://www.ign.com/wikis/pokemon-sun-pokemon-moon/How_to_Get_Mimikyu_in_Pokemon_Sun_and_Moon'
p184
F9.758757020612447e-07
sS'http://www.ign.com/wikis/dishonored-2/Rune_Locations'
p185
F4.0393032282717293e-07
sS'http://www.ign.com/games/atelier-shallie/vita-20046424'
p186
F6.752436110137635e-07
sS'http://www.ign.com/wikis'
p187
F6.594376908866041e-07
sS'http://www.ign.com/articles/2016/12/06/daily-deals-star-wars-legos-ps4-slim-with-free-ps-plus-metal-gear-solid-v-definitive?abthid=5847264c327fc60911000020'
p188
F1.1110244923497631e-06
sS'http://www.ign.com/articles/2016/12/05/the-last-guardian-review?read'
p189
F5.905364176919199e-07
sS'http://www.ign.com/articles'
p190
F6.509333896607693e-07
sS'http://www.ign.com/boards/forums/assassins-creed.8627/'
p191
F4.609539719020897e-07
sS'http://www.ign.com/articles/2016/10/17/call-of-duty-created-as-a-little-bit-of-an-f-you-to-medal-of-honor-a-ign-unfiltered?watch'
p192
F1.1042725963160361e-06
sS'http://www.ign.com/images/games/halo-wars-definitive-edition-xbox-one-20054807'
p193
F8.603601123286163e-07
sS'http://www.ign.com/images/games/sniper-elite-4-pc-20050478'
p194
F8.842241154443005e-07
sS'http://www.ign.com/videos/games/crash-bandicoot-remastered-ps4-20054856'
p195
F7.907226097641591e-07
sS'http://www.ign.com/games/oculus-touch/pc-20062371'
p196
F7.552288267822267e-07
sS'http://www.ign.com/watch/ign-unfiltered'
p197
F8.055506305085063e-08
sS'http://www.ign.com/articles/2016/09/01/dreamcast-era-sega-was-like-an-uncool-grandpa-focus-groups-said-a-ign-unfiltered?watch'
p198
F1.191528234254451e-06
sS'http://www.ign.com/articles/2016/12/03/psx-2016-new-uncharted-story-announced?watch'
p199
F1.2416841309539685e-06
sS'http://www.ign.com/wikis/titanfall-2/Multiplayer_Tips'
p200
F4.4849575644527647e-07
sS'http://www.ign.com/wikis/batman-arkham-knight'
p201
F6.580049093746288e-07
sS'http://www.ign.com/games/zodiac-orcanon-odyssey/vita-20025053'
p202
F7.067602322979531e-07
sS'http://www.ign.com/wikis/titanfall-2'
p203
F7.409095034609735e-07
sS'http://www.ign.com/images/games/danganronpa-v3-ps4-20042906'
p204
F9.240175729662027e-07
sS'http://www.ign.com/blogs/shmuga9/2016/12/06/just-another-castle-79-whats-a-zelda'
p205
F9.583758213280788e-07
sS'http://www.ign.com/articles/2016/11/03/owlboy-review'
p206
F5.623895256075635e-07
sS'http://www.ign.com/videos/2016/07/09/holy-chip-lets-play-aero-blasters-on-turbografx-16'
p207
F4.466766364891931e-07
sS'http://www.ign.com/articles/2016/12/05/the-walking-dead-how-negan-and-carls-relationship-compares-to-the-comics'
p208
F8.288655752026628e-07
sS'http://www.ign.com/videos/2016/12/06/godzilla-2-gareth-edwards-on-why-hes-not-directing-the-sequel'
p209
F2.9807751923196154e-07
sS'http://www.ign.com/boards/threads/mods-have-favorites-punish-users-differently-or-not-at-all.454892620/'
p210
F7.382005107609335e-07
sS'http://www.ign.com/articles/2016/11/30/ign-anime-club-episode-74-leave-lelouch-alone?watch'
p211
F1.1584829819815348e-06
sS'http://www.ign.com/boards/threads/portland-to-raise-taxes-on-companies-whose-ceo-make-100-times-average-worker.454894642/'
p212
F4.3248376942473825e-07
sS'http://www.ign.com/articles/2016/10/25/world-of-final-fantasy-review?read'
p213
F6.040826320605177e-07
sS'http://www.ign.com/boards/categories/dark-age-of-camelot.80123/'
p214
F9.419805895479718e-07
sS'http://www.ign.com/games/ni-oh/ps4-711566'
p215
F7.030685073468902e-07
sS'http://www.ign.com/games/bastion/xbox-one-20061167'
p216
F7.006287091721756e-07
sS'http://www.ign.com/boards/forums/nintendo-3ds-lobby.25212/'
p217
F2.502865781319611e-06
sS'http://www.ign.com/articles/2016/09/26/ps-vita-a-great-machine-but-too-late-says-former-sony-exec-a-ign-unfiltered'
p218
F9.81039065564214e-07
sS'http://www.ign.com/trailers/pokemon-a-live-action-movie-teaser-trailer-by-ideas-for-hollywood'
p219
F3.109309646197874e-07
sS'http://www.ign.com/wikis/assassins-creed-the-ezio-collection'
p220
F6.978035934093846e-07
sS'http://www.ign.com/articles/2016/12/06/new-photos-from-marvels-iron-fist-include-claire-temple-colleen-wing-and-more'
p221
F1.4096823562746606e-06
sS'http://www.ign.com/boards/forums/monster-hunter.6950/'
p222
F4.6236146494606553e-07
sS'http://www.ign.com/videos/2016/12/04/mass-effect-andromeda-zelda-breath-of-the-wild-gameplay-reveal-ign-daily-fix'
p223
F6.60876725673045e-07
sS'http://www.ign.com/boards/forums/pokemon.5012/'
p224
F4.5150467318624364e-07
sS'http://www.ign.com/boards/forums/ps-vita-psp-lobby.80083/'
p225
F4.6448889499949836e-07
sS'http://www.ign.com/videos/2016/12/08/nerding-out-about-star-wars-rogue-one-ign-plays-live'
p226
F5.815588277286085e-07
sS'http://www.ign.com/wikis/dishonored'
p227
F6.759972311153413e-07
sS'http://www.ign.com/watch/daily-fix'
p228
F8.060866636669496e-08
sS'http://www.ign.com/articles/2016/12/08/these-90s-batmobile-and-batwing-toys-are-spot-on-animated-series-replicas?read'
p229
F1.1701961342336667e-06
sS'http://www.ign.com/blogs'
p230
F4.772998574305326e-07
sS'http://www.ign.com/wikis/the-elder-scrolls-5-skyrim/Things_Skyrim_Doesn%27t_Tell_You'
p231
F3.987449105196483e-07
sS'http://www.ign.com/videos/2016/12/07/watch-10-minutes-of-rogue-one-footage'
p232
F3.020915307128907e-07
sS'http://www.ign.com/articles/2016/11/04/keepin-it-reel-episode-344-wonder-woman-the-flash-and-the-dceus-ups-and-downs-this-week?watch'
p233
F1.128271069380961e-06
sS'http://www.ign.com/blogs/justguest'
p234
F9.170227389543465e-07
sS'http://www.ign.com/boards/threads/trump-cancels-4-billion-dollar-boeing-deal.454893595/page-3'
p235
F3.332564066461325e-07
sS'http://www.ign.com/watch/ign-anime-club'
p236
F8.042670549453537e-08
sS'http://www.ign.com/articles/2016/09/15/resident-evil-7-biohazard-beginning-hour-demo-updated-with-new-areas'
p237
F1.1770181093652271e-06
sS'http://www.ign.com/boards/forums/dark-souls-demons-souls.25241/'
p238
F4.627146822607684e-07
sS'http://www.ign.com/articles/2016/11/04/nes-classic-edition-review?read'
p239
F3.649913372187622e-06
sS'http://www.ign.com/videos/2016/12/03/playstation-experience-2016-showcase-ign-live-reacts'
p240
F2.792501240568676e-07
sS'http://www.ign.com/wikis/ign/Content_Team'
p241
F5.011944717247379e-07
sS'http://www.ign.com/articles/2016/10/19/persona-5-english-voice-cast-revealed-2'
p242
F1.0720239275740634e-06
sS'http://www.ign.com/wikis/ign-community-central/Support_FAQ%27s'
p243
F9.07406021092653e-07
sS'http://www.ign.com/faqs'
p244
F9.583758213280788e-07
sS'http://www.ign.com/boards/threads/ign-sfcb-secret-santa.454894492/'
p245
F7.907226097641591e-07
sS'http://www.ign.com/articles/2016/12/09/spider-man-homecoming-star-tom-holland-calls-vultures-debut-like-a-horror-movie?abthid=584a07217bb8cf2b2000002e'
p246
F1.2133283635403562e-06
sS'http://www.ign.com/articles/2016/12/09/spider-man-homecoming-star-tom-holland-calls-vultures-debut-like-a-horror-movie?abthid=584a07217bb8cf2b2000002d'
p247
F1.4571616337113373e-06
sS'http://www.ign.com/boards/forums/the-witcher.7687/'
p248
F4.79567315185547e-07
sS'http://www.ign.com/videos/games/kingdom-hearts-hd-ii-8-ps4-20042901'
p249
F6.409455228352867e-07
sS'http://www.ign.com/boards/forums/f-e-a-r.7699/'
p250
F4.791879106640394e-07
sS'http://www.ign.com/boards/forums/counter-strike.5568/'
p251
F4.756132854961491e-07
sS'http://www.ign.com/articles/2015/03/10/ori-and-the-blind-forest-review'
p252
F6.136712452678276e-07
sS'http://www.ign.com/mobile'
p253
F1.4827258728992553e-06
sS'http://www.ign.com/wikis/killing-floor-2?objectid=20028713'
p254
F7.359581033770909e-07
sS'http://www.ign.com/watch/jose-otero'
p255
F3.4960664881924723e-07
sS'http://www.ign.com/articles/2016/05/26/teenage-mutant-ninja-turtles-mutants-in-manhattan-review?watch'
p256
F5.703328804890262e-07
sS'http://www.ign.com/boards/forums/hitman.5848/'
p257
F4.849427694790599e-07
sS'http://www.ign.com/videos/2016/12/08/pokemon-sun-and-moon-walkthrough-shady-house'
p258
F1.1263477807147296e-06
sS'http://www.ign.com/games/super-mario-run/iphone-20058495'
p259
F3.668646390547219e-06
sS'http://www.ign.com/wikis/halo-wars?objectid=20054807'
p260
F6.871168679289233e-07
sS'http://www.ign.com/articles/2016/12/02/arrowverse-crossover-what-was-left-on-the-cutting-room-floor'
p261
F9.819933837213778e-07
sS'http://www.ign.com/boards/forums/board-issues-bug-reports.3/'
p262
F4.6934794194447567e-07
sS'http://www.ign.com/games/the-bunker/iphone-20055564'
p263
F7.206347639254562e-07
sS'http://www.ign.com/wikis/the-last-guardian/Barrels'
p264
F5.139529224262586e-07
sS'http://www.ign.com/articles/2016/11/15/pokemon-sun-and-moon-review?read'
p265
F8.886348578042045e-07
sS'http://www.ign.com/videos/2016/09/01/five-of-ben-brodes-favourite-hearthstone-cards'
p266
F2.920412338858948e-07
sS'http://www.ign.com/boards/forums/guild-wars.7695/'
p267
F4.704415682169677e-07
sS'http://www.ign.com/trailers/mass-effect-andromeda-avina-ark-and-nexus-briefing-trailer'
p268
F3.0808419078298365e-07
sS'http://www.ign.com/articles/2016/12/08/vikings-the-vision-review'
p269
F4.6898452890386824e-07
sS'http://www.ign.com/wikis/how-to/Beginner%27s_Guide_to_Wikis'
p270
F5.429793985471501e-07
sS'http://www.ign.com/cheats/games/dishonored-2-pc-20038694'
p271
F4.7430972519917453e-07
sS'http://www.ign.com/wikis/playstation-4/PS4_Pro_Game_Upgrades_and_Differences'
p272
F4.6538111339173714e-07
sS'http://www.ign.com/articles/2016/10/14/world-of-warcraft-director-moves-onto-undisclosed-blizzard-project'
p273
F1.1528235993135627e-06
sS'http://www.ign.com/boards/forums/auto-racing.6043/'
p274
F4.750537404543889e-07
sS'http://www.ign.com/articles/2016/11/18/8-things-the-elder-scrolls-series-needs-to-change'
p275
F9.62946771191329e-07
sS'http://www.ign.com/articles/2016/05/10/the-13-biggest-video-games-that-never-came-out?watch'
p276
F1.0874210396397593e-06
sS'http://www.ign.com/articles/2016/12/08/elite-dangerous-heading-to-ps4-early-next-year'
p277
F1.213814667493679e-06
sS'http://www.ign.com/videos/2016/12/04/rogue-one-a-star-wars-story-trust-goes-both-ways-clip'
p278
F3.0164019874469413e-07
sS'http://www.ign.com/videos/2016/12/05/our-favorite-games-of-psx-2016'
p279
F2.874672610723046e-07
sS'http://www.ign.com/articles/2016/09/09/world-of-warcraft-legion-review?watch'
p280
F7.580644794484929e-07
sS'http://www.ign.com/articles/2016/12/08/sea-of-thieves-announces-alpha-playtest'
p281
F1.2300843198199549e-06
sS'http://www.ign.com/boards/threads/damn-this-place-is-dead.454863167/'
p282
F7.409095034609735e-07
sS'http://www.ign.com/articles/2006/09/22/tgs-2006-ni-oh-at-a-glance'
p283
F1.2401587204736811e-06
sS'http://www.ign.com/boards/categories/iconic-franchises.80282/'
p284
F9.530975909981838e-07
sS'http://www.ign.com/articles/2016/12/08/unlocked-274-ideas-for-an-xbox-experience-event?read'
p285
F1.3489833387067836e-06
sS'http://www.ign.com/boards/forums/marvel-vs-capcom.5988/'
p286
F4.602534339508707e-07
sS'http://www.ign.com/games/ultimate-chicken-horse/xbox-one-20050771'
p287
F7.121616920392073e-07
sS'http://www.ign.com/articles/2016/05/26/teenage-mutant-ninja-turtles-mutants-in-manhattan-review?read'
p288
F5.685483595863697e-07
sS'http://www.ign.com/articles/2016/11/07/call-of-duty-infinite-warfare-review?watch'
p289
F7.170799357687599e-07
sS'http://www.ign.com/videos/2016/10/06/18-new-transformers-you-should-check-out-ign-access'
p290
F4.810909603489641e-07
sS'http://www.ign.com/articles/2016/12/02/harry-potter-and-the-cursed-child-in-talks-to-open-on-broadway-in-2018'
p291
F1.1715541955113073e-06
sS'http://www.ign.com/articles/2016/09/13/tgs-2016-kingdom-hearts-hd-28-delayed-to-january'
p292
F1.4701299006780238e-06
sS'http://www.ign.com/videos/2016/10/01/street-fighter-5-is-street-fighter-5-now-a-complete-game-ign-plays-live'
p293
F8.887652517671986e-07
sS'http://www.ign.com/wikis/iphone/IPhone_7_vs_7_Plus_vs_6s_Plus_Comparison_Chart'
p294
F6.756202109083613e-07
sS'http://www.ign.com/articles/2016/12/07/sony-to-launch-smartphone-games-in-japan-based-on-classic-playstation-franchises?read'
p295
F1.5616407490075214e-06
sS'http://www.ign.com/trailers/justice-league-dark-official-trailer-debut'
p296
F3.1141054965519067e-07
sS'http://www.ign.com/wikis/gta-5/Cell_Phone_Cheats'
p297
F5.141710688279676e-07
sS'http://www.ign.com/ds'
p298
F4.3396669739564184e-06
sS'http://www.ign.com/wikis/the-elder-scrolls-5-skyrim/Cheats'
p299
F3.0753669412508044e-07
sS'http://www.ign.com/games/the-unlikely-legend-of-rusty-pup/3ds-20001242'
p300
F2.409921163445673e-06
sS'http://www.ign.com/images/games/ys-origin-ps4-20062330'
p301
F9.332719862547702e-07
sS'http://www.ign.com/articles/2016/12/03/psx-2016-new-uncharted-story-announced?read'
p302
F1.2351009769154685e-06
sS'http://www.ign.com/boards/forums/banjo-kazooie.5450/'
p303
F4.839740464077873e-07
sS'http://www.ign.com/boards/forums/tony-hawks-pro-skater.5225/'
p304
F4.6060343656224015e-07
sS'http://www.ign.com/articles/2016/11/23/everything-you-need-to-know-about-final-fantasy-xv-2'
p305
F5.906899932507761e-07
sS'http://www.ign.com/boards/forums/the-gcb.5313/'
p306
F4.648453715113936e-07
sS'http://www.ign.com/games/ghost-recon-wildlands/pc-20038799'
p307
F6.13982279857421e-07
sS'http://www.pcmag.com/news/350101/nintendo-switch-uses-usb-c-for-charging'
p308
F8.365932583968865e-07
sS'http://www.ign.com/videos/2016/11/29/welcome-to-skyrim-episode-2-you-will-believe-a-horse-can-fly'
p309
F8.887652517671986e-07
sS'http://www.ign.com/articles/2016/05/15/ranking-the-final-fantasy-games?read'
p310
F9.934054905237631e-07
sS'http://www.ign.com/videos/2016/12/03/the-last-of-us-2-psx-2016-reveal-trailer'
p311
F2.903612267877976e-07
sS'http://www.ign.com/wikis/pokemon-sun-pokemon-moon/List_of_Pokemon_(Pokedex)'
p312
F9.473829808331791e-07
sS'http://www.ign.com/videos/2016/03/16/dark-souls-prepare-to-try-episode-2-the-undead-burg'
p313
F4.310985900920611e-07
sS'http://www.ign.com/boards/forums/rock-band.11059/'
p314
F4.3434458162735453e-07
sS'http://www.ign.com/games/story-of-seasons-trio-of-towns/3ds-20054537'
p315
F1.8659689435592909e-06
sS'http://www.ign.com/articles/2016/11/06/9-skyrim-secrets-you-probably-didnt-find'
p316
F1.1720579814478849e-06
sS'http://www.ign.com/articles/2015/05/12/the-witcher-3-the-wild-hunt-review'
p317
F5.230513981686924e-07
sS'https://www.youtube.com/watch?v=5dCqIz88OSA'
p318
F4.404403134666564e-08
sS'http://www.ign.com/videos?filter=movies-trailer'
p319
F8.141041923109488e-07
sS'http://www.ign.com/articles/2016/12/08/johnny-depp-will-smith-top-list-of-2016s-most-overpaid-actors'
p320
F1.1683902760018245e-06
sS'http://www.ign.com/boards/forums/marvel-comics-games.7683/'
p321
F4.56266304391221e-07
sS'http://www.ign.com/boards/forums/television.10502/'
p322
F4.453628816759896e-07
sS'http://www.ign.com/watch/nintendo-voice-chat'
p323
F1.4179325456402945e-06
sS'http://www.ign.com/vr'
p324
F4.09944852168762e-07
sS'http://www.ign.com/games/yoshis-woolly-world/3ds-20058268'
p325
F3.51942776920015e-06
sS'http://www.ign.com/articles/2016/05/23/salt-and-sanctuary-review'
p326
F5.81465778316172e-07
sS'http://www.ign.com/articles/2016/11/15/pokemon-sun-and-moon-review'
p327
F8.878532968034972e-07
sS'http://www.ign.com/videos/2016/03/20/dark-souls-prepare-to-try-episode-4-the-lower-undead-burg-capra-demon'
p328
F4.256454807303906e-07
sS'http://www.ign.com/games/rise-race-the-future/wii-u-20054219'
p329
F1.892792247122956e-06
sS'http://www.ign.com/watch/fireteam-chat'
p330
F2.9303024628899167e-07
sS'http://www.ign.com/videos/2016/12/03/zelda-breath-of-the-wild-game-awards-trailer-all-easter-eggs-analysis-things-missed'
p331
F1.7396654449382839e-06
sS'http://www.ign.com/articles/2016/03/10/hitman-episode-1-paris-review?watch'
p332
F5.651883537287831e-07
sS'http://www.ign.com/articles/2016/09/26/ps-vita-a-great-machine-but-too-late-says-former-sony-exec-a-ign-unfiltered?watch'
p333
F1.18569693783885e-06
sS'http://www.ign.com/boards/threads/can-we-get-the-old-bigger-icon-sizes-back.454883499/'
p334
F8.690007447336383e-07
sS'http://www.ign.com/articles/2016/12/08/the-5-most-annoying-heroes-in-dota-2?watch'
p335
F1.3302200272606425e-06
sS'http://www.ign.com/videos/series/ign-live'
p336
F7.691346274023439e-07
sS'http://www.ign.com/trailers/cars-3-official-teaser-trailer'
p337
F3.1205230246231114e-07
sS'http://www.ign.com/wikis/ign-community-central/Livefyre_and_Comments'
p338
F9.163290757630043e-07
sS'http://www.ign.com/wikis/pokemon-go/Gen_1_to_Gen_2_Evolutions_Candy_Chart'
p339
F5.996965535439068e-07
sS'http://www.ign.com/boards/forums/medal-of-honor.6000/'
p340
F4.832018500832436e-07
sS'http://www.ign.com/images/games/ni-oh-ps4-711566'
p341
F8.746476809810048e-07
sS'http://www.ign.com/videos/2016/12/02/podcast-beyond-episode-470-a-decade-later-final-fantasy-xv-is-finally-here'
p342
F4.3986457449480456e-07
sS'http://www.ign.com/articles/2016/12/08/motor-crush-1-review'
p343
F4.816648263056428e-07
sS'http://www.ign.com/images/games/resident-evil-7-ps4-20053763'
p344
F8.621971801841222e-07
sS'http://www.ign.com/games/sniper-elite-4/pc-20050478'
p345
F6.703857433086284e-07
sS'http://www.ign.com/videos/2016/12/08/pokemon-sun-and-moon-walkthrough-ulaula-island-grand-trial'
p346
F1.1242571119802244e-06
sS'http://www.ign.com/boards/forums/fallout.5729/'
p347
F4.7393859082890913e-07
sS'http://www.ign.com/wikis/ign-community-central/IGN_Prime'
p348
F8.746476809810048e-07
sS'http://www.ign.com/articles/2016/12/08/bully-anniversary-edition-now-available-on-ios-and-android?abthid=5849e349f91de56c1f00001a&watch'
p349
F7.364950377910334e-07
sS'http://www.ign.com/articles/2016/12/08/super-mario-run-wont-come-to-nintendo-switch'
p350
F3.3770247977343057e-06
sS'http://www.ign.com/games/touhou-genso-rondo-wanderer/vita-20054675'
p351
F7.538189409823843e-07
sS'http://www.ign.com/wikis/the-last-guardian/Part_7_-_The_Tree'
p352
F7.266868855181113e-07
sS'http://www.ign.com/videos/2016/12/08/these-might-be-the-best-street-fighter-figures-ever-made'
p353
F8.567093622055811e-07
sS'http://www.ign.com/games/steep/xbox-one-20054838'
p354
F6.681671473572487e-07
sS'http://www.ign.com/boards/forums/bioshock.8010/'
p355
F4.786199281543626e-07
sS'https://www.amazon.com/Outlet/b/?_encoding=UTF8&camp=1789&creative=390957&linkCode=ur2&node=409566&pf_rd_i=517808&pf_rd_m=ATVPDKIKX0DER&pf_rd_p=1396814542&pf_rd_r=1P5G0D13Z872NN83JHGQ&pf_rd_s=browse&pf_rd_t=101&tag=homepagetextlink-20'
p356
F1.9291548056736483e-08
sS'http://www.ign.com/videos/2016/12/08/goat-simulator-official-payday-trailer'
p357
F2.920412338858948e-07
sS'http://www.ign.com/articles/2016/12/04/star-wars-rebels-an-inside-man-review'
p358
F4.3859052793580435e-07
sS'http://www.ign.com/boards/forums/yu-gi-oh.6607/'
p359
F6.943372400603887e-07
sS'http://www.ign.com/boards/forums/mixed-martial-arts.8252/'
p360
F4.695298597514309e-07
sS'https://www.youtube.com/watch?v=kcv7PwBXp7I&list=PLraFbwCoisJCG-Oc0RG_qsLvbpoAm11Mi'
p361
F4.0609689512527375e-08
sS'http://www.ign.com/videos/2016/12/08/lara-croft-goes-indie-the-best-zelda-amiibo-our-top-10-games-of-2016-up-at-noon-live'
p362
F8.251955300808526e-07
sS'http://www.ign.com/boards/forums/animal-crossing.5310/'
p363
F4.5201008886518347e-07
sS'http://www.ign.com/articles/2016/11/23/watch-dogs-2-review?read'
p364
F7.490027029010872e-07
sS'http://www.ign.com/articles/2016/12/07/ign-anime-club-episode-75-our-least-favorite-anime-endings'
p365
F9.694198448773141e-07
sS'http://www.ign.com/wikis/halo-wars?objectid=20054810'
p366
F6.871168679289233e-07
sS'http://www.ign.com/articles/2016/12/08/unlocked-274-ideas-for-an-xbox-experience-event?watch'
p367
F1.3586664851488242e-06
sS'http://www.ign.com/articles/2016/11/30/the-flash-invasion-review'
p368
F3.710220637545763e-07
sS'http://www.ign.com/articles/2016/10/20/10-of-the-best-oculus-rift-games'
p369
F8.970579370250974e-07
sS'http://people.ign.com/kicksplode'
p370
F3.2936026051079165e-07
sS'http://www.ign.com/videos/2016/12/06/whats-next-for-dota-2'
p371
F3.005923171609657e-07
sS'http://www.ign.com/videos/2016/08/18/13-minutes-of-new-sea-of-thieves-gameplay-gamescom-2016'
p372
F2.9603788811307224e-07
sS'http://www.ign.com/articles/2016/11/23/killing-floor-2-review'
p373
F5.43385334102284e-07
sS'http://www.ign.com/boards/forums/madden-nfl.5973/'
p374
F4.6538111339173714e-07
sS'http://www.ign.com/articles/2016/12/01/lethal-weapon-can-i-get-a-witness-review'
p375
F4.5678244274460476e-07
sS'http://www.ign.com/articles/2016/12/07/nintendo-switch-will-run-gamecube-virtual-console-games-says-report?watch'
p376
F6.866736533737697e-06
sS'http://www.ign.com/wikis/ign-community-central/Writing_Your_First_Blog'
p377
F6.756202109083613e-07
sS'http://www.ign.com/articles/2016/12/08/office-christmas-party-review?watch'
p378
F4.4503564958070965e-07
sS'http://www.ign.com/boards/categories/music.80077/'
p379
F8.966595397177585e-07
sS'http://www.ign.com/articles/2016/11/22/the-art-of-dc-comics-bombshells-shows-off-dcs-design-to-statue-process'
p380
F1.0917330913470545e-06
sS'http://www.ign.com/wikis/pokemon-sun-pokemon-moon/Zygarde_Cells_and_Cores'
p381
F7.612402837193287e-07
sS'http://www.ign.com/videos/2016/12/07/amnesia-laboratory-experiments-scared-senseless-episode-2'
p382
F4.466766364891931e-07
sS'http://www.ign.com/boards/forums/announcements.14/'
p383
F4.916343499020664e-07
sS'http://www.ign.com/articles/2016/12/07/the-5-most-popular-dota-2-heroes?watch'
p384
F1.2850640433083716e-06
sS'http://www.ign.com/articles/2016/09/30/ign-unfiltered-11-longtime-playstation-boss-jack-tretton?watch'
p385
F1.6647554349409414e-06
sS'http://www.ign.com/videos/games/bulletstorm-full-clip-edition-pc-20059601'
p386
F8.022430716282727e-07
sS'http://www.ign.com/blogs/andri_g/2016/12/07/driving-passion-in-games-part-2-catch-a-ride'
p387
F8.441721520269629e-07
sS'http://www.ign.com/articles/2016/12/07/batman-the-telltale-series-episode-5-release-date-announced?read'
p388
F1.1445455764915834e-06
sS'http://www.ign.com/articles/2016/12/01/unlocked-273-our-xbox-holiday-wishes'
p389
F1.364789362504159e-06
sS'http://www.ign.com/articles/2016/11/24/ad-after-death-book-1-review'
p390
F4.506648207435609e-07
sS'http://www.ign.com/articles/2016/11/04/the-original-diablo-returns-in-diablo-3-next-week?watch'
p391
F1.2051204120162076e-06
sS'https://www.youtube.com/watch?v=kDDkAK1LvSk'
p392
F4.215279553757017e-08
sS'http://www.ign.com/articles/2016/10/21/ign-unfiltered-12-call-of-duty-and-titanfall-creator-vince-zampella?watch'
p393
F1.3873869874199676e-06
sS'http://www.ign.com/blogs/saleem44/2015/11/02/weekly-theme-blog-most-memorable-character-deaths'
p394
F6.495372858759742e-07
sS'http://www.ign.com/blogs/shmuga9'
p395
F3.268718397621942e-07
sS'http://www.ign.com/videos/2016/12/07/rogue-one-a-star-wars-story-jyn-erso-and-saw-gerreras-relationship'
p396
F2.999967900343466e-07
sS'http://www.ign.com/wikis/bulletstorm?objectid=20054907'
p397
F6.90249024591847e-07
sS'http://www.ign.com/videos/2016/11/04/fantastic-beasts-2-is-johnny-depp-playing-gellert-grindelwald-ign-keepin-it-reel'
p398
F4.5438373524332024e-07
sS'http://people.ign.com/alexroth-ign'
p399
F3.321598678800909e-07
sS'http://www.ign.com/articles/2016/12/01/ign-unfiltered-episode-13-inventor-and-oculus-co-founder-jack-mccauley?read'
p400
F1.3747015866530774e-06
sS'http://www.ign.com/articles/2016/12/07/your-name-anime-director-makoto-shinkai-talks-the-oscar-contender'
p401
F1.0276442468261721e-06
sS'http://www.ign.com/articles/2016/11/30/ign-anime-club-episode-74-leave-lelouch-alone'
p402
F9.617235933301776e-07
sS'http://www.ign.com/articles/2016/11/22/marvel-reveals-new-inhumans-comics-for-spring-2017'
p403
F1.1262430626242949e-06
sS'http://www.ign.com/articles/2016/12/03/death-stranding-everything-you-missed-in-the-new-trailer'
p404
F1.1420996588548319e-06
sS'http://www.ign.com/articles/2016/12/07/batman-the-telltale-series-episode-5-release-date-announced'
p405
F1.1445455764915834e-06
sS'http://www.ign.com/blogs/clinta13/2016/12/08/thursdays-wii-u-virtual-console-releases-12816-eshop-eshop-sales-sales'
p406
F1.194299370245942e-06
sS'http://www.ign.com/articles/2016/12/09/spider-man-homecoming-star-tom-holland-calls-vultures-debut-like-a-horror-movie?abthid=584a07217bb8cf2b2000002e&watch'
p407
F1.2256040450816386e-06
sS'http://www.ign.com/videos/2016/12/06/transformers-the-last-knight-official-trailer'
p408
F3.014900542953439e-07
sS'http://www.ign.com/videos/2016/12/05/could-gt-sport-surpass-photorealism-psx-2016'
p409
F2.953161965282037e-07
sS'http://www.ign.com/blogs/scottcollura/2016/11/23/why-star-trek-first-contact-is-still-awesome-20-years-later'
p410
F8.365932583968865e-07
sS'http://www.ign.com/games/the-unspoken/pc-20052379'
p411
F7.088279919009313e-07
sS'http://www.ign.com/articles/2016/12/09/season-of-heaven-announced-as-a-nintendo-switch-exclusive'
p412
F4.281409490373755e-06
sS'http://www.ign.com/boards/categories/technology.80145/'
p413
F9.170227389543465e-07
sS'http://www.ign.com/videos/2016/12/09/final-fantasy-xv-ultimate-collectors-edition-unboxing'
p414
F2.9574878861296183e-07
sS'http://www.ign.com/boards/forums/call-of-duty.6860/'
p415
F4.613050411876206e-07
sS'http://www.ign.com/games/dead-rising-4/xbox-one-20054254'
p416
F6.641376305694582e-07
sS'http://people.ign.com/havokrose'
p417
F3.2320892160050475e-07
sS'http://www.ign.com/games/nintendo-switch/nintendo-nx-20034301'
p418
F9.06480096581334e-06
sS'http://www.ign.com/articles/2016/12/02/paterson-review'
p419
F4.521788123026098e-07
sS'http://www.ign.com/wikis/pokemon-sun-pokemon-moon/Things_Not_to_Do_in_Pokemon_Sun_and_Moon'
p420
F9.395452726153244e-07
sS'http://www.ign.com/games/the-walking-dead-a-telltale-game-series-season-3/pc-20022256'
p421
F6.90642553112139e-07
sS'http://www.ign.com/watch/ign-originals'
p422
F1.8804517823016016e-07
sS'https://www.youtube.com/watch?v=kcv7PwBXp7I'
p423
F4.485289685125488e-08
sS'http://www.ign.com/articles/2016/12/05/star-wars-director-gareth-edwards-on-the-politics-of-rogue-one'
p424
F8.875930818864975e-07
sS'http://www.ign.com/wikis/dishonored-2/Safe_Combinations'
p425
F4.835876399835096e-07
sS'http://www.ign.com/boards/forums/indie-rock.6855/'
p426
F4.861103684424927e-07
sS'http://www.ign.com/videos/2016/03/14/dark-souls-prepare-to-try-episode-1-the-northern-undead-asylum'
p427
F4.2896141577857357e-07
sS'http://www.ign.com/articles/2016/12/02/barbie-amy-schumer-may-star-in-live-action-movie?watch'
p428
F1.291457396757667e-06
sS'http://www.ign.com/articles/2016/12/07/sprint-and-niantic-announce-new-pokemon-go-partnership'
p429
F1.2290858747551659e-06
sS'http://www.ign.com/articles/2015/07/04/what-its-really-like-to-play-minecraft-on-hololens'
p430
F8.938806361855754e-07
sS'http://www.ign.com/boards/forums/star-fox.6338/'
p431
F4.72275648404948e-07
sS'http://www.ign.com/videos/2016/11/18/secret-history-of-westworld-ign-secret-origins'
p432
F2.4946191065870915e-07
sS'http://www.ign.com/images/games/ultimate-marvel-vs-capcom-3-ps4-20062336'
p433
F8.652764558276369e-07
sS'http://www.ign.com/images/games/abzu-xbox-one-20060928'
p434
F9.013296414871218e-07
sS'http://www.ign.com/articles/2016/12/02/the-game-awards-2016-winners-announced'
p435
F1.5350668477753153e-06
sS'http://www.ign.com/articles/2015/08/26/ign-is-coming-to-snapchat'
p436
F1.4318995722915978e-06
sS'http://www.ign.com/videos/2016/10/05/the-first-12-minutes-of-batman-arkham-vr'
p437
F3.020915307128907e-07
sS'http://www.ign.com/images/games/resident-evil-7-pc-20054862'
p438
F8.671346014020699e-07
sS'http://www.ign.com/articles/2016/10/20/whats-new-in-splatoon-and-mario-kart-for-nintendo-switch'
p439
F9.056686463257907e-06
sS'http://www.ign.com/watch/eric-goldman'
p440
F2.9793089969471017e-07
sS'http://www.ign.com/articles/2016/11/12/the-walking-dead-new-images-show-negan-arriving-on-ricks-turf'
p441
F1.2778344284374383e-06
sS'http://www.ign.com/videos/games/resident-evil-7-ps4-20053763'
p442
F6.436700521565843e-07
sS'http://www.ign.com/games/ultimate-marvel-vs-capcom-3/ps4-20062336'
p443
F6.759972311153413e-07
sS'http://www.ign.com/boards/forums/books.80225/'
p444
F4.793775378546465e-07
sS'http://www.ign.com/articles/2016/11/04/nes-classic-edition-review'
p445
F3.649913372187622e-06
sS'http://www.ign.com/wikis/create?objectid=20042750'
p446
F1.2065607949787765e-06
sS'http://www.ign.com/videos/2016/11/26/totally-wild-halo-6-speculation-unlocked'
p447
F4.865008185376272e-07
sS'http://www.ign.com/articles/2016/05/26/teenage-mutant-ninja-turtles-mutants-in-manhattan-review'
p448
F5.685483595863697e-07
sS'http://www.ign.com/games/asdivine-hearts/vita-20060896'
p449
F7.755358759018513e-07
sS'http://www.ign.com/articles/2016/12/08/batman-writer-scott-snyder-lands-movie-deal-for-ad-after-death-comic'
p450
F1.3014471832388179e-06
sS'http://www.ign.com/articles/2016/10/07/playstation-vr-everything-you-need-to-know'
p451
F5.598941755216731e-07
sS'http://www.ign.com/wikis/ign-community-central/IGN_Community_Team'
p452
F8.412409987213137e-07
sS'http://www.ign.com/videos/2016/12/08/pokemon-sun-and-moon-walkthrough-route-17'
p453
F1.1263477807147296e-06
sS'http://www.ign.com/wikis/pokemon-sun-pokemon-moon/Every_Pokemon_QR_Code_List'
p454
F9.044701628860317e-07
sS'http://www.ign.com/articles/2016/08/19/deus-ex-mankind-divided-review?watch'
p455
F5.007110932041988e-07
sS'http://www.ign.com/boards/forums/fire-emblem.5750/'
p456
F4.697119186346226e-07
sS'http://www.ign.com/boards/forums/tech-board.5124/'
p457
F4.841674812784539e-07
sS'http://www.ign.com/articles/2016/12/08/ww2-shooter-days-of-war-hits-early-access-in-january'
p458
F1.1266620518589022e-06
sS'http://www.ign.com/blogs/pacquiaovsvargas'
p459
F6.142936298979167e-07
sS'http://www.ign.com/articles/2016/12/09/attack-on-titan-season-2-licensed-by-funimation?abthid=5849f1398a994e2d20000019'
p460
F1.039817200136216e-06
sS'http://www.ign.com/articles/2016/12/02/star-wars-heres-the-advice-george-lucas-gave-to-rogue-one-director-gareth-edwards'
p461
F1.1550219662077533e-06
sS'http://www.ign.com/boards/threads/want-to-help-on-wikis-legacy-guides-updated-list.250115891/'
p462
F1.4935113280220585e-07
sS'http://www.ign.com/articles/2016/11/03/owlboy-review?watch'
p463
F5.641355346904805e-07
sS'http://www.ign.com/boards/forums/acfriends.80124/'
p464
F4.4470889800245654e-07
sS'http://adria.ign.com/'
p465
F5.520104981356535e-07
sS'http://www.ign.com/wikis/gta-5'
p466
F5.75207520493206e-07
sS'http://www.ign.com/articles/2016/05/05/top-10-secret-bosses-in-video-games?read'
p467
F1.0097296102775472e-06
sS'http://www.ign.com/boards/forums/phantasy-star.5187/'
p468
F4.697119186346226e-07
sS'http://www.ign.com/videos'
p469
F7.686465978164287e-07
sS'http://adria.ign.com/sl/'
p470
F4.3774525589931045e-07
sS'http://www.ign.com/articles/2016/12/08/daily-deals-oculus-rift-miyazaki-movies-ps4-with-free-ps-plus/'
p471
F9.59894641964098e-07
sS'http://www.ign.com/videos/2016/12/08/star-wars-battlefront-scariff-dlc-fun-naming-episode-8-ign-plays-live'
p472
F5.782277031783731e-07
sS'http://www.ign.com/articles/2016/07/25/top-10-worst-star-wars-games-ever-made?read'
p473
F1.233232877706638e-06
sS'http://www.ign.com/videos/2015/06/17/sony-head-discusses-the-future-of-vita'
p474
F4.976939351514756e-07
sS'http://www.ign.com/articles/2016/10/20/10-of-the-best-oculus-rift-games?read'
p475
F8.970579370250974e-07
sS'http://www.ign.com/trailers/baywatch-official-teaser-trailer'
p476
F3.131817575384415e-07
sS'http://www.ign.com/articles/2016/12/05/daily-deals-ps4-with-free-ps-plus-dead-rising-4-the-last-guardian'
p477
F1.8766646601993675e-06
sS'http://www.ign.com/blogs/sportshd'
p478
F6.215428620619249e-07
sS'http://www.ign.com/boards/forums/super-smash-bros.80153/'
p479
F4.6609735981481025e-07
sS'http://pt.ign.com/'
p480
F7.233600944418939e-07
sS'http://www.ign.com/cheats/games/pokemon-sun-version-3ds-20050014'
p481
F1.382861915706269e-06
sS'http://www.ign.com/boards/forums/tomb-raider.6484/'
p482
F4.717239245166245e-07
sS'http://www.ign.com/articles/2016/12/03/psx-2016-new-uncharted-story-announced'
p483
F1.2351009769154685e-06
sS'http://www.ign.com/articles/2016/11/11/pokemon-just-hit-us-in-the-nostagia-with-updated-pokemon-base-set-cards'
p484
F1.1885665602027979e-06
sS'http://www.ign.com/boards/forums/saints-row.8406/'
p485
F4.627146822607684e-07
sS'http://www.ign.com/articles/2016/12/07/sony-to-launch-smartphone-games-in-japan-based-on-classic-playstation-franchises?watch'
p486
F1.5697351475584676e-06
sS'http://www.ign.com/boards/forums/gaming.80002/'
p487
F4.989238213174183e-07
sS'http://www.ign.com/articles/2016/10/12/overwatch-officially-passes-20-million-registered-players'
p488
F1.2391438606369597e-06
sS'http://www.ign.com/articles/2016/10/25/world-of-final-fantasy-review'
p489
F6.040826320605177e-07
sS'http://www.ign.com/articles/2016/12/08/nintendo-shows-zelda-breath-of-the-wild-running-on-nintendo-switch'
p490
F7.089662728201472e-06
sS'http://www.ign.com/boards/categories/all-tv-shows-boards.80088/'
p491
F4.987184183444594e-07
sS'http://www.ign.com/cheats/games/watch-dogs-2-xbox-one-20054627'
p492
F5.46408226503695e-07
sS'http://www.ign.com/articles/2016/11/29/lethal-weapon-clip-riggs-bets-the-house'
p493
F1.2947702417258357e-06
sS'http://www.ign.com/wikis/pokemon-sun-pokemon-moon/How_to_EV_Train_in_Pokemon_Sun_and_Moon'
p494
F6.404936754452018e-07
sS'http://www.ign.com/games/yu-gi-oh-duel-links/iphone-20059937'
p495
F7.236481709430655e-07
sS'http://www.ign.com/videos/games/bulletstorm-full-clip-edition-ps4-20059600'
p496
F8.011819035441082e-07
sS'http://www.ign.com/trailers/transformers-the-last-knight-official-trailer'
p497
F3.112505236790061e-07
sS'http://www.ign.com/movies/upcoming'
p498
F5.706015252749373e-07
sS'http://www.ign.com/boards/forums/the-vestibule.5296/'
p499
F4.3403333506223273e-07
sS'http://www.ign.com/boards/forums/onimusha.6087/'
p500
F4.79947320982049e-07
sS'http://www.ign.com/articles/2016/10/26/nintendo-switch-the-unanswered-questions'
p501
F6.45162269696045e-06
sS'http://www.ign.com/articles/2016/12/06/daily-deals-star-wars-legos-ps4-slim-with-free-ps-plus-metal-gear-solid-v-definitive?abthid=5847264c327fc6091100001f'
p502
F1.1106849371870646e-06
sS'http://www.ign.com/videos/2016/12/08/this-batman-dark-knight-returns-statue-features-bats-riding-a-stallion'
p503
F2.906398843950796e-07
sS'http://www.ign.com/games/upcoming/iphone'
p504
F1.4341598715375199e-06
sS'http://www.ign.com/wikis/create?objectid=20052379'
p505
F1.2065607949787765e-06
sS'http://www.ign.com/articles/2016/04/01/the-walking-dead-michonne-episode-2-review'
p506
F6.724946547883188e-07
sS'http://www.ign.com/boards/forums/tekken.6428/'
p507
F4.6042836874142595e-07
sS'http://www.ign.com/videos/2016/11/29/final-fantasy-xv-official-ride-together-launch-trailer'
p508
F3.014900542953439e-07
sS'http://www.ign.com/wikis/ign-all-stars'
p509
F7.876378661629985e-07
sS'http://www.ign.com/articles/2016/12/03/psx-2016-ys-origin-coming-to-ps4-and-ps-vita'
p510
F1.221156288466423e-06
sS'http://www.ign.com/boards/threads/new-recruit-briefs_cat11.454894307/'
p511
F4.300273475891699e-07
sS'http://www.ign.com/boards/forums/dead-rising.8413/'
p512
F4.697119186346226e-07
sS'http://www.ign.com/articles/2016/11/23/assassinas-creed-the-ezio-collection-review'
p513
F6.629261427355116e-07
sS'http://www.ign.com/videos/2016/12/03/stories-you-may-have-missed-no-mans-sky-cleared-of-misleading-pr-ign-daily-fix'
p514
F1.0485173440496465e-06
sS'http://www.ign.com/videos/2015/01/21/the-platforming-bliss-of-super-mario-galaxy-2'
p515
F2.7181459345370793e-06
sS'http://www.ign.com/games/ember-nfusion/iphone-20025446'
p516
F7.350649503390119e-07
sS'http://www.ign.com/articles/2016/11/08/first-mass-effect-andromeda-story-details-revealed?read'
p517
F1.1749631795913596e-06
sS'http://www.ign.com/wikis/pokemon-sun-pokemon-moon/Walkthrough'
p518
F1.0050224321006844e-06
sS'http://www.ign.com/pc'
p519
F3.949745804234404e-07
sS'http://www.ign.com/articles/2016/11/17/what-we-want-from-dragon-ball-super?watch'
p520
F1.18569693783885e-06
sS'http://www.ign.com/videos/2016/07/12/pokemon-go-in-gta-5-ign-original'
p521
F1.6470252048384659e-06
sS'http://www.ign.com/wikis/create'
p522
F1.2065607949787765e-06
sS'http://www.ign.com/videos/2016/12/08/call-of-duty-modern-warfare-remastered-december-update-trailer'
p523
F2.9119880724968554e-07
sS'http://www.ign.com/wikis/gta-5/GTA_Online_Weekly_Updates'
p524
F2.33858501575037e-07
sS'http://www.ign.com/articles/2016/12/05/a-classic-piece-of-peter-parkers-costume-is-back-in-spider-man-homecoming?watch'
p525
F9.357953172334428e-07
sS'http://www.ign.com/boards/threads/pretty-clear-that-harbaugh-is-the-most-overrated-coach-in-college-football.454892736/page-3'
p526
F4.874796934240208e-07
sS'http://www.ign.com/games/syberia-3/xbox-one-20053957'
p527
F7.538189409823843e-07
sS'http://www.ign.com/videos/2016/12/05/star-wars-at-at-toys-have-changed-a-lot-in-20-years'
p528
F4.4308231095782436e-07
sS'http://www.ign.com/comics/reviews'
p529
F5.355380363212607e-07
sS'https://www.youtube.com/watch?v=od4yhVXIyHc'
p530
F4.383683282039125e-08
sS'https://www.youtube.com/watch?v=yQjh_AnA_y0'
p531
F4.3996042643956265e-07
sS'http://www.ign.com/articles/2016/11/14/dishonored-2-review?watch'
p532
F7.233600944418939e-07
sS'http://www.ign.com/articles/2016/12/05/transformers-the-last-knights-story-characters-revealed'
p533
F9.46691964800478e-07
sS'http://www.ign.com/articles/2016/04/26/severed-review?read'
p534
F6.34898866959482e-07
sS'http://www.ign.com/boards/categories/other-categories.5/'
p535
F9.067268249690807e-07
sS'http://www.ign.com/boards/forums/xbox-lobby.8271/'
p536
F4.3700831102405905e-07
sS'http://www.ign.com/boards/forums/naruto.6791/'
p537
F4.6502381503212736e-07
sS'http://www.ign.com/games/get-off-my-lawn/wii-u-20027109'
p538
F1.8232797082460741e-06
sS'http://www.ign.com/articles/2016/07/13/pokemon-go-review?read'
p539
F8.899405217151716e-07
sS'http://www.ign.com/wikis/recentchanges'
p540
F7.104909314713735e-07
sS'http://www.ign.com/boards/forums/mobile-suit-gundam.6018/'
p541
F4.6395520419712437e-07
sS'http://www.ign.com/wikis/pokemon-sun-pokemon-moon/Things_to_Do_First_in_Pokemon_Sun_and_Moon'
p542
F9.200407884749558e-07
sS'http://www.ign.com/videos/2015/07/20/gta-5-cinema-king-of-the-hill-intro'
p543
F4.3418890256583933e-07
sS'http://www.ign.com/tv/westworld'
p544
F6.544500476276022e-07
sS'http://www.ign.com/games/batman-the-telltale-series-episode-4/pc-20060180'
p545
F6.491891951547115e-07
sS'http://www.ign.com/articles/2016/11/28/future-of-vr-not-necessarily-gaming-says-oculus-chief-engineer-a-ign-unfiltered?watch'
p546
F1.1562714331772432e-06
sS'http://www.ign.com/videos/games/apollo-justice-ace-attorney-android-20060197'
p547
F1.3902682151782996e-06
sS'http://www.ign.com/boards/threads/magical-girl-raising-project-aka-battle-royale-mahou-shoujo-edition-official-discussion-fall-2016.454853387/page-3'
p548
F4.6699577415523965e-07
sS'http://www.ign.com/wikis/create?objectid=20062533'
p549
F1.2065607949787765e-06
sS'http://www.ign.com/articles/2016/05/25/the-witcher-3-wild-hunt-blood-and-wine-review'
p550
F5.175393213437874e-07
sS'http://www.ign.com/wikis/ultimate-marvel-vs-capcom-3?objectid=20062336'
p551
F7.514807929024142e-07
sS'http://www.ign.com/wii-u'
p552
F5.591017099193962e-06
sS'http://www.ign.com/wikis/create?objectid=20042906'
p553
F1.2065607949787765e-06
sS'http://www.ign.com/videos/2016/12/08/super-mario-run-official-live-action-commercial'
p554
F2.0875699820558448e-06
sS'http://www.ign.com/articles/2016/12/07/podcast-beyond-episode-471-our-death-stranding-and-last-of-us-2-theories?read'
p555
F7.89177223556151e-07
sS'http://www.ign.com/wikis/super-mario-maker?objectid=20058267'
p556
F2.097034688099293e-06
sS'http://www.ign.com/games/dishonored-2/ps4-20038705'
p557
F5.886234393385285e-07
sS'http://www.ign.com/articles/2016/11/30/super-mario-maker-for-nintendo-3ds-review'
p558
F2.607289982791886e-06
sS'http://www.ign.com/games/danganronpa-v3/vita-20032525'
p559
F6.942046063946657e-07
sS'http://www.ign.com/watch/andrew-goldfarb'
p560
F1.9444414737699705e-07
sS'http://www.ign.com/blogs/justguest/2016/12/05/justguest-and-the-super-comment-section'
p561
F8.771810558716087e-07
sS'http://www.ign.com/boards/categories/all-movie-boards.80092/'
p562
F5.126479213536571e-07
sS'http://www.ign.com/articles/2016/03/10/hitman-episode-1-paris-review'
p563
F5.634358317017171e-07
sS'https://www.youtube.com/watch?v=o62lk5Pzx2E'
p564
F8.818424970216872e-08
sS'http://www.ign.com/articles/2016/12/08/the-legend-of-zelda-ocarina-of-time-soundtrack-on-vinyl-announced'
p565
F1.8522737586524338e-06
sS'http://www.ign.com/watch/unlocked'
p566
F1.4315611417616306e-07
sS'http://www.ign.com/articles/2016/10/12/rez-infinite-review'
p567
F7.062108656191363e-07
sS'http://www.ign.com/boards/categories/archived-game-boards.80227/'
p568
F4.317131283530619e-07
sS'http://www.ign.com/boards/threads/tnf-gt-oakland-raiders-10-2-kansas-city-chiefs-9-3.454894740/page-2'
p569
F3.832290535142966e-07
sS'https://www.youtube.com/watch?v=i0vPmDggp94'
p570
F4.417895835735564e-08
sS'https://twitter.com/hashtag/Zelda?src=hash'
p571
F4.2096442454410795e-06
sS'http://www.ign.com/games/gravity-plus/wii-u-20062292'
p572
F1.6639931842839173e-06
sS'http://www.ign.com/articles/2016/11/02/ign-anime-club-episode-70-bunny-ears-and-horror-manga?watch'
p573
F1.1614449071511905e-06
sS'http://www.ign.com/articles/2016/09/24/iphone-7-plus-review?watch'
p574
F9.437418496094514e-07
sS'http://www.ign.com/blogs/mich-streams/2016/12/05/is-call-of-duty-going-through-an-identity-crisis'
p575
F6.286388366158234e-07
sS'http://www.ign.com/games/drive-drive-drive/vita-20042501'
p576
F7.500848533490352e-07
sS'http://www.ign.com/games/yakuza-6/ps4-20042750'
p577
F7.556999614215169e-07
sS'http://www.ign.com/articles/2016/12/03/psx-2016-nier-automata-release-date-is-march-2017'
p578
F1.252986179311845e-06
sS'http://www.ign.com/articles/2016/11/06/what-you-need-to-know-about-valerian-and-the-city-of-a-thousand-planets'
p579
F1.011174489281045e-06
sS'http://www.ign.com/videos/games/ni-oh-ps4-711566'
p580
F7.155268979082645e-07
sS'http://www.ign.com/wikis/create?objectid=20050478'
p581
F1.2065607949787765e-06
sS'http://www.ign.com/wikis/create?objectid=20050479'
p582
F1.2065607949787765e-06
sS'http://www.ign.com/articles/2016/11/29/nintendo-switch-new-york-hands-on-event-to-take-place-on-january-13'
p583
F1.562216150904724e-05
sS'http://www.ign.com/boards/forums/pro-wrestling.10733/'
p584
F4.357507331506085e-07
sS'http://www.ign.com/articles/2016/10/19/call-of-duty-creator-got-quite-a-lot-of-calls-after-exit-a-ign-unfiltered?watch'
p585
F1.166290473195146e-06
sS'http://www.ign.com/videos/games/demons-crest-3ds-20062533'
p586
F2.29429363287631e-06
sS'http://www.ign.com/videos/2016/09/28/xcom-2-graphics-comparison-xbox-one-vs-playstation-4-vs-pc'
p587
F2.859742771857157e-07
sS'http://www.ign.com/images/games/sniper-elite-4-xbox-one-20050479'
p588
F8.835791671471128e-07
sS'http://www.ign.com/games/the-walking-dead-a-telltale-game-series-season-3/iphone-20022259'
p589
F6.90249024591847e-07
sS'http://www.ign.com/videos/2016/11/12/the-x-men-movie-franchises-murky-future-ign-keepin-it-reel'
p590
F1.2627383997484625e-06
sS'http://www.ign.com/boards/forums/bayonetta.24351/'
p591
F4.855258669974716e-07
sS'http://www.ign.com/videos/2016/12/04/destinys-alternate-thunderlord-void-and-solar-exotic-machine-guns'
p592
F2.744420113635459e-07
sS'http://www.ign.com/boards/forums/splinter-cell.6328/'
p593
F4.7375324136045823e-07
sS'http://www.ign.com/articles/2016/12/08/unlocked-274-ideas-for-an-xbox-experience-event'
p594
F1.3489833387067836e-06
sS'http://www.ign.com/articles/2016/12/03/psx-2016-free-gravity-rush-2-dlc-lets-you-play-as-raven'
p595
F1.2325875439140126e-06
sS'http://www.ign.com/articles/2016/10/20/zampella-no-regrets-on-lack-of-titanfall-1-campaign-a-ign-unfiltered?watch'
p596
F1.125475724520308e-06
sS'http://www.ign.com/articles/2016/12/08/lethal-weapon-jingle-bell-glock-review'
p597
F4.1414941475510825e-07
sS'http://www.ign.com/articles/2016/12/07/10-big-missing-games-of-psx-2016'
p598
F8.796013927960294e-07
sS'http://www.ign.com/boards/categories/ign-prime-vip-board.80000/'
p599
F9.493628825695076e-07
sS'http://www.ign.com/boards/categories/sports.80144/'
p600
F8.113777884519033e-07
sS'http://www.ign.com/wikis/create?objectid=20062330'
p601
F1.2065607949787765e-06
sS'http://www.ign.com/wikis/create?objectid=20062331'
p602
F1.2065607949787765e-06
sS'http://www.ign.com/games/sniper-elite-4/xbox-one-20050479'
p603
F6.689050459186592e-07
sS'http://www.ign.com/articles/2016/12/08/daily-deals-oculus-rift-miyazaki-movies-ps4-with-free-ps-plus'
p604
F9.59894641964098e-07
sS'http://www.ign.com/wikis/strafe'
p605
F7.730612879123751e-07
sS'http://www.ign.com/articles/2016/02/01/xcom-2-review?page=2'
p606
F5.587578589292858e-07
sS'http://www.ign.com/videos/2016/12/05/why-were-excited-for-the-last-of-us-part-ii-psx-2016'
p607
F2.87603760246603e-07
sS'http://www.ign.com/articles/2016/12/07/injustice-ground-zero-1-review'
p608
F4.7301329096395615e-07
sS'http://www.ign.com/videos/2016/12/05/playstation-vr-games-we-loved-at-psx-2016'
p609
F2.861093618702626e-07
sS'http://www.ign.com/boards/threads/survey-product-design.454879324/'
p610
F8.070533232236453e-07
sS'http://www.ign.com/articles/2016/11/10/nintendo-officially-announces-wii-u-production-is-ending-in-japan'
p611
F9.182525653681045e-06
sS'http://www.ign.com/boards/forums/spider-man.6322/'
p612
F4.675364871318764e-07
sS'http://www.ign.com/articles/2016/12/08/batman-writer-scott-snyder-lands-movie-deal-for-ad-after-death-comic?abthid=584975c07bb8cf2b2000000f'
p613
F1.3014471832388179e-06
sS'http://www.ign.com/articles/2016/05/15/ranking-the-final-fantasy-games?watch'
p614
F9.962064458541873e-07
sS'http://nl.ign.com'
p615
F1.0935916000916742e-06
sS'http://www.ign.com/watch/terri-schwartz'
p616
F1.0343127033458775e-07
sS'http://www.ign.com/videos/2016/11/20/these-new-metal-gear-solid-3-pachinko-screens-are-heartbreaking'
p617
F3.7974515302780305e-07
sS'http://www.ign.com/articles/2016/12/05/westworld-the-bicameral-mind-review?watch'
p618
F3.682027471606966e-07
sS'http://www.ign.com/games/kingdom-hearts-hd-ii-8/ps4-20042901'
p619
F6.478005551650758e-07
sS'http://www.ign.com/boards/forums/thief.6803/'
p620
F4.857205445704457e-07
sS'http://www.ign.com/watch/up-at-noon'
p621
F8.056577801002206e-08
sS'http://www.ign.com/articles/2016/12/01/comic-book-reviews-for-november-30-2016'
p622
F1.0788983239746096e-06
sS'http://www.ign.com/boards/forums/sega-board.5139/'
p623
F9.26845476785533e-07
sS'http://www.ign.com/wikis/steep?objectid=20054836'
p624
F7.0388555384003e-07
sS'http://br.ign.com/'
p625
F1.6382745879271331e-06
sS'http://www.ign.com/articles/2016/12/02/keepin-it-reel-the-final-episode-before-we-relaunch-as-the-ign-movies-show?read'
p626
F9.056422235038066e-07
sS'https://www.youtube.com/watch?v=Apwv4POh_WQ'
p627
F4.419830115873802e-08
sS'http://www.ign.com/blogs/nancyli/2016/12/07/naruto-online-ready-deliver-you-this-new-service'
p628
F7.985412248903702e-07
sS'http://www.ign.com/cheats/games/mario-maker-3ds-20058267'
p629
F2.9727289279967896e-06
sS'http://www.ign.com/games/dragon-quest-viii-journey-of-the-cursed-king/3ds-20037220'
p630
F1.7669005807448829e-06
sS'http://www.ign.com/articles/2016/10/17/call-of-duty-created-as-a-little-bit-of-an-f-you-to-medal-of-honor-a-ign-unfiltered'
p631
F9.146685579573329e-07
sS'http://www.ign.com/watch/peer-schneider'
p632
F5.935262313369386e-07
sS'http://www.ign.com/articles/2016/12/06/new-photos-from-marvels-iron-fist-include-claire-temple-colleen-wing-and-more?read'
p633
F1.4096823562746606e-06
sS'http://www.ign.com/boards/forums/resistance.8417/'
p634
F4.780532905125066e-07
sS'http://www.ign.com/articles/2016/12/08/ww2-shooter-days-of-war-hits-early-access-in-january?watch'
p635
F1.1334085312113508e-06
sS'http://www.ign.com/support'
p636
F9.419805895479718e-07
sS'http://www.ign.com/boards/forums/sex-health-and-dating.5128/'
p637
F4.756132854961491e-07
sS'http://www.ign.com/games/upcoming/wii-u'
p638
F2.3959395533201975e-06
sS'http://no.ign.com/'
p639
F2.576870959707917e-07
sS'http://www.ign.com/videos/2016/12/05/persona-5-80-hours-in-and-still-finding-surprises-psx-2016'
p640
F2.961826499165505e-07
sS'http://www.ign.com/wikis/crash-bandicoot-remasters'
p641
F7.571168988491823e-07
sS'http://www.ign.com/cheats/games/the-dwarves-xbox-one-20060259'
p642
F7.249473597598395e-07
sS'http://feeds.ign.com/ignfeeds/podcasts/wii/'
p643
F3.7475037183151867e-06
sS'http://www.ign.com/articles/2015/12/09/microsoft-working-to-make-xbox-360-games-available-to-buy-on-xbox-one'
p644
F1.2488526166584452e-06
sS'http://www.ign.com/wikis/ign-community-central/How_to_Follow_IGN'
p645
F8.835791671471128e-07
sS'http://www.ign.com/games/bulletstorm-full-clip-edition/pc-20059601'
p646
F6.934098672917525e-07
sS'http://www.ign.com/boards/forums/the-lobby-misc-discussion.80131/'
p647
F4.93035017565605e-07
sS'http://www.ign.com/watch/mitch-dyer'
p648
F8.681288792881551e-08
sS'http://www.ign.com/games/assassins-creed-the-ezio-collection/ps4-20058808'
p649
F6.60876725673045e-07
sS'http://www.ign.com/articles/2016/12/05/the-last-guardian-review'
p650
F5.899612198824797e-07
sS'http://www.ign.com/blogs/boxinglive/2016/12/06/13th-fina-world-swimming-championships-25m-2016-live-stream'
p651
F5.741170796960624e-07
sS'http://www.ign.com/games/harvest-moon-seeds-of-memories/wii-u-20038123'
p652
F1.3844423293242192e-06
sS'http://www.ign.com/images/games/bulletstorm-full-clip-edition-pc-20059601'
p653
F9.013296414871218e-07
sS'http://www.ign.com/tv/arrow'
p654
F5.826777480320787e-07
sS'http://www.ign.com/articles/2016/12/02/why-marvel-vs-capcom-4-needs-the-x-men-universe'
p655
F7.439124528117735e-07
sS'http://www.ign.com/wikis/dishonored-2/Bonecharms'
p656
F3.5597620868606873e-07
sS'http://www.ign.com/wikis/pokemon-sun-pokemon-moon/Pokemon_Sun_and_Moon_Exclusives_and_Version_Differences'
p657
F9.816750714414032e-07
sS'http://www.ign.com/articles/2016/12/05/the-last-of-us-part-2-neil-druckmann-co-wrote-script-with-westworld-writer?watch'
p658
F1.4102293808599438e-06
sS'http://www.ign.com/articles/2016/06/14/e3-2016-three-crash-bandicoot-remasters-announced'
p659
F1.1729154126246047e-06
sS'http://www.ign.com/boards/threads/i-like-a-warm-glass-of-milk-to-help-me-fall-asleep-at-night.454891950/'
p660
F6.605163784943793e-07
sS'http://www.ign.com/boards/threads/myign-following-not-working.454840525/'
p661
F8.621971801841222e-07
sS'http://www.ign.com/articles/2016/12/08/bully-anniversary-edition-now-available-on-ios-and-android?abthid=5849e349f91de56c1f00001a'
p662
F7.332851320573195e-07
sS'http://www.ign.com/articles/2016/11/28/top-comics-to-buy-this-week-november-30-2016'
p663
F1.1406657609780525e-06
sS'http://www.ign.com/wikis/planet-coaster'
p664
F7.805328854115282e-07
sS'http://www.ign.com/articles/2016/02/01/xcom-2-review?watch'
p665
F7.699493886601854e-07
sS'http://www.ign.com/videos/series/ign-game-reviews'
p666
F1.18453752101567e-06
sS'http://www.ign.com/watch/franmirabella'
p667
F8.69749453014569e-08
sS'http://www.ign.com/boards/forums/ghost-recon.5792/'
p668
F4.788091059915777e-07
sS'http://www.ign.com/articles/2016/10/17/call-of-duty-created-as-a-little-bit-of-an-f-you-to-medal-of-honor-a-ign-unfiltered?read'
p669
F9.146685579573329e-07
sS'http://www.ign.com/'
p670
F2.1503911919976774e-06
sS'http://www.ign.com/images/games/demons-crest-3ds-20062533'
p671
F1.7632999099835396e-06
sS'http://www.ign.com/articles/2016/12/03/psx-2016-tons-of-new-games-hit-playstation-store-today'
p672
F1.2406667740256981e-06
sS'http://www.ign.com/boards/forums/batman.5456/'
p673
F4.609539719020897e-07
sS'http://www.ign.com/wikis/create?objectid=20050480'
p674
F1.2065607949787765e-06
sS'http://www.ign.com/articles/?tags=screens'
p675
F9.87543781107629e-07
sS'https://www.youtube.com/watch?v=leG2uIzuSGQ'
p676
F4.3615865131370765e-08
sS'http://www.ign.com/videos/2016/12/08/rogue-one-a-star-wars-story-felicity-jones-on-the-force-jyn-ersos-necklace-and-her-father-abandonment-issues'
p677
F2.9969991047963676e-07
sS'http://es.ign.com/'
p678
F7.476379181018199e-07
sS'http://www.ign.com/videos/2016/12/01/ea-taking-a-break-from-battlefield-ign-daily-fix'
p679
F3.425868320584536e-07
sS'http://www.ign.com/wikis/playstation-4/How_to_Transfer_Data_and_Saves_to_PlayStation_4_Pro'
p680
F6.029801085906878e-07
sS'http://www.ign.com/articles/2016/05/05/top-10-secret-bosses-in-video-games?watch'
p681
F1.0128654165206453e-06
sS'http://www.ign.com/videos/2016/12/03/marvel-vs-capcom-infinite-ign-live-reacts'
p682
F2.9288854887782683e-07
sS'http://www.ign.com/boards/forums/anime.5036/'
p683
F4.3685071697031796e-07
sS'http://www.ign.com/wikis/the-elder-scrolls-5-skyrim/Marriage'
p684
F5.70870423260458e-07
sS'http://www.ign.com/boards/forums/quake.6640/'
p685
F4.7282866438668685e-07
sS'http://www.ign.com/blogs/mich-streams'
p686
F6.612374662438273e-07
sS'http://www.ign.com/articles/2009/10/13/pokemon-mystery-dungeon-explorers-of-sky-review'
p687
F1.443600488101948e-06
sS'https://www.youtube.com/watch?v=C_fhTko1Bok&list=PLraFbwCoisJAzl1QlMD8ZT-sesYJyo041'
p688
F1.1087196029275962e-06
sS'http://www.ign.com/videos/2016/12/02/zelda-breath-of-the-wild-game-awards-gameplay-demo'
p689
F1.7404986180440973e-06
sS'http://www.ign.com/videos/2016/12/05/nba-2kvr-experience-official-lifestyle-trailer'
p690
F3.0652506026282687e-07
sS'http://www.ign.com/boards/forums/mass-effect.8653/'
p691
F4.4899445446949285e-07
sS'http://www.ign.com/videos/2016/12/03/watch-party-flcl-episodes-5-and-6'
p692
F4.810909603489641e-07
sS'http://www.ign.com/blogs/andri_g'
p693
F2.9119880724968554e-07
sS'http://www.ign.com/articles/2016/12/08/into-the-badlands-see-the-fight-prep-for-season-2?abthid=5849a2fcbdc2856a1f00000b'
p694
F1.2162520463440678e-06
sS'http://www.ign.com/wikis/ign/Disclosures'
p695
F7.927925642399816e-07
sS'http://www.ign.com/wikis/black-friday-cyber-monday/Xbox_Live_Black_Friday_2016_Deals'
p696
F1.4412695278509123e-06
sS'http://www.ign.com/videos/2015/06/29/the-awful-horror-of-being-a-doom-soldier'
p697
F4.5955502206323664e-07
sS'http://www.ign.com/support/editorial?category=feedback'
p698
F1.015412437685408e-06
sS'http://www.ign.com/watch/esports-weekly'
p699
F1.873472066437816e-07
sS'http://www.ign.com/boards/forums/classic-gaming-lobby.5138/'
p700
F8.781348591219222e-07
sS'http://www.ign.com/articles/2016/12/08/one-of-elder-scrolls-most-beloved-characters-is-coming-to-elder-scrolls-legends'
p701
F1.2473095532935458e-06
sS'http://www.ign.com/wikis/final-fantasy-15/Easter_Eggs'
p702
F6.309307490409853e-07
sS'http://www.ign.com/boards/forums/need-for-speed.6063/'
p703
F4.68803033343147e-07
sS'http://www.ign.com/games/death-stranding/pc-20047135'
p704
F7.500848533490352e-07
sS'http://www.ign.com/articles/2016/12/01/ign-unfiltered-episode-13-inventor-and-oculus-co-founder-jack-mccauley'
p705
F1.3747015866530774e-06
sS'https://www.youtube.com/watch?v=iVmqMe9Hpso'
p706
F4.417895835735564e-08
sS'http://www.ign.com/videos/2016/12/06/this-xenomorph-queen-from-aliens-is-beautiful-ign-unboxing'
p707
F3.0194093672948444e-07
sS'http://www.ign.com/watch/jared-petty'
p708
F1.4131906651407975e-07
sS'http://www.ign.com/images/games/bulletstorm-full-clip-edition-ps4-20059600'
p709
F8.999903701030398e-07
sS'http://www.ign.com/blogs/popcultkid5555'
p710
F1.2017728553161624e-06
sS'http://www.ign.com/wikis/abzu?objectid=20060928'
p711
F7.671862179599061e-07
sS'http://www.ign.com/wikis/arrow'
p712
F7.750396917202122e-07
sS'http://www.ign.com/wikis/create?objectid=20040456'
p713
F1.2065607949787765e-06
sS'http://www.ign.com/articles/2016/11/28/final-fantasy-xv-review'
p714
F4.2977307408657465e-07
sS'http://www.ign.com/blogs/nancyli'
p715
F8.360158993503739e-07
sS'http://pl.ign.com/'
p716
F2.7076151948115593e-07
sS'http://www.ign.com/boards/categories/the-vault.80141/'
p717
F9.59134630371094e-07
sS'http://www.ign.com/boards/forums/nba-2k-series.6044/'
p718
F4.73382977006132e-07
sS'http://www.ign.com/boards/forums/cars-lobby.5126/'
p719
F4.863055151179012e-07
sS'http://www.ign.com/articles/2007/12/12/pokemon-snap-review'
p720
F1.409057704737594e-06
sS'http://www.ign.com/videos/games/abzu-xbox-one-20060928'
p721
F7.275597826778929e-07
sS'http://www.ign.com/boards/forums/earthbound.5345/'
p722
F9.610369203956301e-07
sS'http://de.ign.com/'
p723
F1.4318995722915978e-06
sS'http://www.ign.com/watch/brian-altano'
p724
F1.7365066487366567e-07
sS'http://www.ign.com/articles/2016/09/13/tgs-2016-musou-stars-announced-for-ps4-and-ps-vita?watch'
p725
F1.2545433286647594e-06
sS'http://people.ign.com/sportsmaniac1322'
p726
F3.2529190068708155e-07
sS'https://twitter.com/IGNDeals'
p727
F1.4633812976065373e-07
sS'http://www.ign.com/articles/2016/12/08/dinosaur-tail-discovered-preserved-in-amber-feathers-and-all?read'
p728
F1.8522737586524338e-06
sS'http://www.ign.com/boards/forums/playstation-lobby.8269/'
p729
F4.1557016746438823e-07
sS'http://www.ign.com/articles/2016/06/15/e3-2016-batman-arkham-vr-lets-you-actually-put-on-batmanas-cowl'
p730
F1.0708867027569764e-06
sS'http://www.ign.com/articles/2016/12/07/the-man-in-the-high-castle-season-2-premiere'
p731
F1.2746075738201721e-06
sS'http://www.ign.com/videos/2016/12/08/super-mario-run-official-meet-super-mario-run-trailer'
p732
F2.367146141980834e-06
sS'http://www.ign.com/cheats/games/oculus-touch-pc-20062371'
p733
F7.681591871646745e-07
sS'http://www.ign.com/articles/2016/04/01/mlb-the-show-16-review?watch'
p734
F5.506304718903144e-07
sS'http://www.ign.com/boards/forums/wikis-discussion.5030/'
p735
F4.7025894338458526e-07
sS'http://www.ign.com/wireless'
p736
F1.655465716650074e-06
sS'http://www.ign.com/boards/threads/connor-makes-me-feel-bad-for-kenny-florian.454887177/'
p737
F7.206347639254562e-07
sS'http://www.ign.com/blogs/jasonstanley2e'
p738
F8.646588423688021e-07
sS'http://www.ign.com/videos/2016/10/07/nycc-cosplay-spotlight-nadya-sonika-ign-access'
p739
F4.523476617470843e-07
sS'http://www.ign.com/wikis/titanfall-2/Pilot_Helmet_Locations'
p740
F3.292707361127186e-07
sS'http://www.ign.com/articles/2016/12/08/the-5-most-annoying-heroes-in-dota-2'
p741
F1.1020624437397122e-06
sS'http://www.ign.com/articles/2016/12/08/reggie-and-me-1-review'
p742
F4.6200878648310136e-07
sS'http://www.ign.com/trailers/guardians-of-the-galaxy-vol-2-official-teaser-trailer-2'
p743
F3.0839792213815977e-07
sS'http://www.ign.com/videos/2016/12/07/pokken-tournament-official-empoleon-trailer-japanese'
p744
F9.044701628860317e-07
sS'http://people.ign.com/jarriaga'
p745
F3.312515827614689e-07
sS'https://www.youtube.com/watch?v=ex_bTrCkquo'
p746
F5.000359275813967e-08
sS'http://www.ign.com/boards/forums/nhl-ea-sports.6062/'
p747
F4.6934794194447567e-07
sS'http://www.ign.com/videos/games/bulletstorm-full-clip-edition-xbox-one-20054907'
p748
F8.017121364385783e-07
sS'http://www.ign.com/boards/forums/disney-board.7236/'
p749
F7.344707183662238e-07
sS'http://www.ign.com/boards/forums/kirby.5919/'
p750
F4.713568241862614e-07
sS'http://www.ign.com/games/nier-automata/ps4-20038887'
p751
F6.859496252314223e-07
sS'http://www.ign.com/videos/2016/11/29/star-wars-the-best-and-worst-movies-in-the-skywalker-saga'
p752
F2.634595559283801e-07
sS'http://www.ign.com/boards/forums/soccer.5106/'
p753
F4.7007646028664787e-07
sS'http://www.ign.com/articles/2016/10/05/superhypercube-review'
p754
F7.067602322979531e-07
sS'http://www.ign.com/games/upcoming/ps4'
p755
F1.0383317469931642e-06
sS'http://www.ign.com/boards/forums/command-conquer.5554/'
p756
F4.657389612297931e-07
sS'http://www.ign.com/games/upcoming/ps3'
p757
F1.5557196551695525e-06
sS'http://www.ign.com/games/upcoming/xbox-one'
p758
F1.2319190218562966e-06
sS'http://www.ign.com/games/red-faction/ps4-20062072'
p759
F7.427265715258686e-07
sS'http://www.ign.com/articles/2016/05/15/ranking-the-final-fantasy-games'
p760
F9.934054905237631e-07
sS'http://www.ign.com/articles/2016/12/07/podcast-beyond-episode-471-our-death-stranding-and-last-of-us-2-theories'
p761
F7.89177223556151e-07
sS'http://www.ign.com/games/killing-floor-2/ps4-20028713'
p762
F5.877666366611798e-07
sS'http://www.ign.com/boards/threads/why-is-480p-and-720p-1080p-has-no-difference-in-my-gaming-youtube-video.454841424/'
p763
F8.027747105094047e-07
sS"http://www.ign.com/wikis/dead-rising-4/What_Dead_Rising_4_Doesn't_Tell_You"
p764
F6.13982279857421e-07
sS'http://www.ign.com/articles/2016/11/04/nes-classic-edition-review?watch'
p765
F3.66152620506127e-06
sS'http://www.ign.com/videos/2016/12/05/resident-evil-entering-the-spencer-mansion-prepare-to-try-ep-1'
p766
F8.61583953171189e-07
sS'https://twitter.com/IGN/status/806999940539023360'
p767
F3.2106733054828824e-07
sS'http://www.ign.com/articles/2016/10/25/rigs-mechanized-combat-league-review'
p768
F6.028800787120231e-07
sS'http://www.ign.com/articles/2016/10/05/thumper-vr-review?watch'
p769
F5.382347622150585e-07
sS'http://www.ign.com/videos/2016/10/21/ign-reacts-to-the-nintendo-switch-reveal'
p770
F5.567574679490843e-06
sS'http://www.ign.com/videos/2016/03/21/dark-souls-prepare-to-try-episode-5-the-depths-gaping-dragon'
p771
F4.2805195694653415e-07
sS'http://www.ign.com/articles/2016/12/07/star-wars-doctor-aphra-1-review'
p772
F4.5903260256108057e-07
sS'http://www.ign.com/articles/2016/04/26/severed-review?watch'
p773
F6.371250200694381e-07
sS'http://www.ign.com/wikis/bulletstorm?objectid=20059600'
p774
F6.90249024591847e-07
sS'http://www.ign.com/wikis/bulletstorm?objectid=20059601'
p775
F6.90249024591847e-07
sS'http://www.ign.com/articles/2016/11/30/playstation-plus-free-games-for-december-revealed?watch'
p776
F1.1715541955113073e-06
sS'http://www.ign.com/articles/2016/12/08/dinosaur-tail-discovered-preserved-in-amber-feathers-and-all'
p777
F1.8522737586524338e-06
sS'http://www.ign.com/articles/2016/01/27/darkest-dungeon-review'
p778
F7.828869268582669e-07
sS'http://www.ign.com/videos/2016/12/05/westworld-the-pros-and-cons-of-the-season-1-finale'
p779
F3.1595906055260605e-07
sS'http://www.ign.com/videos/2016/11/25/watch-party-flcl-episodes-3-and-4'
p780
F4.833946680601324e-07
sS'http://za.ign.com'
p781
F1.401347473448358e-06
sS'http://www.ign.com/articles/2016/09/09/world-of-warcraft-legion-review?page=1'
p782
F7.549150632480422e-07
sS'https://www.youtube.com/watch?v=uYRTX6VkflE'
p783
F4.623293810195548e-07
sS'http://www.ign.com/trailers/ultimate-marvel-vs-capcom-3-ps4-announcement-trailer'
p784
F3.0997621242545845e-07
sS'http://www.ign.com/boards/threads/cole-dropping-new-album-4-your-eyez-only-on-12-9.454890976/page-4'
p785
F4.5472486417368305e-07
sS'http://www.ign.com/articles/2016/01/27/darkest-dungeon-review?watch'
p786
F7.862745812367104e-07
sS'http://www.ign.com/articles/2016/12/07/steep-review'
p787
F5.797959659342813e-07
sS'http://www.ign.com/articles/2016/04/01/mlb-the-show-16-review?read'
p788
F5.489669357214614e-07
sS'http://www.ign.com/boards/forums/international.8184/'
p789
F4.765487954990919e-07
sS'http://www.ign.com/videos/2016/12/05/marvel-vs-capcom-infinite-captain-america-and-morrigan-reveal-trailer'
p790
F2.95604450502365e-07
sS'http://www.ign.com/blogs/techportal11/2016/12/08/httpthetechportalcom20161208pokemon-go-partnership-sprint'
p791
F9.135648854892095e-07
sS'http://www.ign.com/games/upcoming'
p792
F1.3376623654579194e-06
sS'http://www.ign.com/articles/2016/12/08/arrow-what-we-leave-behind-review?read'
p793
F3.7330879450190807e-07
sS'http://www.ign.com/boards/forums/music-general.8276/'
p794
F4.7524010912463384e-07
sS'http://www.ign.com/articles/2016/12/04/daily-deals-extended-lord-of-the-rings-and-hobbit-trilogies-destiny-the-collection-ff-xv-discount'
p795
F2.206533767137872e-06
sS'http://www.ign.com/games/upcoming/3ds'
p796
F2.413121589957553e-06
sS'http://www.ign.com/wikis/how-to/FAQs'
p797
F7.969651566833498e-07
sS'http://www.ign.com/boards/threads/editing-private-messages-conversations.454575290/'
p798
F8.842241154443005e-07
sS'http://www.ign.com/articles/2016/11/23/planet-coaster-review'
p799
F5.724891484681908e-07
sS'http://www.ign.com/videos/2015/10/21/meanwhile-in-back-to-the-future-pt-ii'
p800
F4.717239245166245e-07
sS'http://www.ign.com/boards/forums/ico-shadow-of-the-colossus.8115/'
p801
F4.724598432756208e-07
sS'http://www.ign.com/watch/brandin-tyrrel'
p802
F1.438701945556641e-07
sS'http://www.ign.com/boards/misc/quick-navigation-menu'
p803
F1.224860503699385e-06
sS'http://www.ign.com/articles/2016/12/02/between-the-panels-the-all-new-x-men-need-to-go-home'
p804
F1.0021401705482227e-06
sS'http://www.ign.com/games/apollo-justice-ace-attorney/iphone-20060196'
p805
F1.016832992298846e-06
sS'http://www.ign.com/videos/2016/12/02/westworld-all-the-arnold-theory-reveal-hints'
p806
F3.1334377603690937e-07
sS'http://www.ign.com/articles/2016/12/08/november-saw-ps4-regain-its-spot-at-the-top-of-console-sales'
p807
F1.2310843883726543e-06
sS'http://www.pcmag.com/article2/0,2817,2391253,00.asp'
p808
F6.917994963976385e-08
sS'http://www.ign.com/boards/forums/mega-man.6002/'
p809
F9.087674704866405e-07
sS'http://www.ign.com/videos/2016/11/30/scared-senseless-episode-1-beginning-the-dark-descent'
p810
F4.443826258835993e-07
sS'http://www.ign.com/images/games/halo-wars-definitive-edition-pc-20054810'
p811
F8.609715978384447e-07
sS'http://www.ign.com/articles/2016/09/25/minecraft-chinese-mythology-pack-coming-soon'
p812
F1.2226352827600846e-06
sS'http://www.ign.com/videos/games/yakuza-6-ps4-20042750'
p813
F8.365932583968865e-07
sS'http://www.ign.com/boards/forums/grand-theft-auto.5257/'
p814
F4.5387300043412954e-07
sS'http://me.ign.com/en/'
p815
F9.959724297757624e-07
sS'http://www.ign.com/boards/forums/guitar-hero.8464/'
p816
F4.682593885422078e-07
sS'http://www.ign.com/articles/2016/12/08/dinosaur-tail-discovered-preserved-in-amber-feathers-and-all?watch'
p817
F1.5020298055284458e-06
sS'http://www.ign.com/boards/categories/entertainment.80143/'
p818
F8.418255998323083e-07
sS'http://www.ign.com/articles/2016/12/03/psx-2016-wipeout-omega-collection-hd-fury-2048-coming-q2-2017'
p819
F1.228089049228195e-06
sS'http://www.ign.com/boards/threads/what-are-your-top-3-mobile-games-right-now.454823940/'
p820
F2.9567660194256573e-07
sS'http://www.ign.com/blogs/andri_g/2016/12/05/driving-passion-in-games-part-1-the-mako'
p821
F8.424110140185617e-07
sS'http://www.ign.com/wikis/battlefield-1/Things_to_Do_First_In_Battlefield_1_Multiplayer'
p822
F6.221813241698468e-07
sS'http://www.ign.com/videos/2016/12/08/we-happy-few-clockwork-update-details'
p823
F3.013400592434556e-07
sS'http://www.ign.com/images/games/sniper-elite-4-ps4-20050480'
p824
F8.829351590077928e-07
sS'http://www.ign.com/games/reviews/xbox-one'
p825
F5.446884164382607e-07
sS'http://www.ign.com/games/planet-coaster/pc-20038996'
p826
F7.163731745468314e-07
sS'http://www.ign.com/articles/2016/10/18/batman-arkham-vr-easter-egg-discovered-in-batman-arkham-knight-dlc'
p827
F1.1816104547002454e-06
sS'http://www.ign.com/videos/2016/10/29/the-pros-and-cons-of-superhero-origin-movies-ign-keepin-it-reel'
p828
F4.250480835644532e-07
sS'http://www.ign.com/articles/2016/12/08/arrow-what-we-leave-behind-review?watch'
p829
F3.7446276295477336e-07
sS'http://www.ign.com/boards/categories/community-central.80140/'
p830
F9.545997148610653e-07
sS'http://www.ign.com/articles/2016/12/07/podcast-beyond-episode-471-our-death-stranding-and-last-of-us-2-theories?watch'
p831
F7.943521561696339e-07
sS'http://www.ign.com/cheats/games/planet-coaster-pc-20038996'
p832
F7.382005107609335e-07
sS'http://www.ign.com/articles/2016/10/20/100ft-robot-golf-review'
p833
F6.729927989770509e-07
sS'http://www.ign.com/articles/2016/12/02/keepin-it-reel-the-final-episode-before-we-relaunch-as-the-ign-movies-show'
p834
F9.056422235038066e-07
sS'http://www.ign.com/articles/2016/09/24/iphone-7-plus-review?read'
p835
F9.408100638076201e-07
sS'http://www.ign.com/articles/2016/09/26/ps-vita-a-great-machine-but-too-late-says-former-sony-exec-a-ign-unfiltered?read'
p836
F9.81039065564214e-07
sS'http://www.ign.com/boards/threads/2016-us-soccer-usmnt-mls-nasl-usl-pdl-npsl.454703136/page-7'
p837
F6.565783404654156e-07
sS'http://www.ign.com/articles/2016/11/17/sword-art-online-hollow-realization-review'
p838
F7.206347639254562e-07
sS'http://www.ign.com/games/reviews/pc'
p839
F5.533974591862457e-07
sS'http://www.ign.com/blogs/jeriahking/2016/12/06/iam-going-to-go-out-on-a-limb'
p840
F1.0473086785233646e-06
sS'http://www.ign.com/games/resident-evil-7/ps4-20053763'
p841
F6.805545158194898e-07
sS'http://www.ign.com/videos/games/sniper-elite-4-ps4-20050480'
p842
F7.418169247756839e-07
sS'http://www.ign.com/articles/2016/11/15/pokemon-sun-and-moon-review?watch'
p843
F8.912500280743759e-07
sS'http://www.ign.com/articles/2004/11/21/super-mario-64-ds-2'
p844
F7.111861280775098e-06
sS'http://www.ign.com/articles/2015/12/18/uncharteds-best-moments'
p845
F1.1683902760018245e-06
sS'http://www.ign.com/wikis/battlefield-1'
p846
F6.488414773212061e-07
sS'http://www.ign.com/videos/2016/12/03/playstation-vr-psx-2016-sizzle-reel'
p847
F4.872836034427561e-07
sS'http://www.ign.com/articles/2016/12/08/x-mens-apocalypse-prompted-the-mummy-to-alter-characters-look'
p848
F1.2351009769154685e-06
sS'http://www.ign.com/videos/2016/07/23/dead-rising-4-is-every-bit-as-insane-as-i-hoped'
p849
F2.986654433330108e-07
sS'http://www.ign.com/games/letter-quest-remastered/vita-20048797'
p850
F1.1216546649617516e-06
sS'http://www.ign.com/watch/daemon-hatfield'
p851
F1.0220950372584304e-07
sS'http://www.ign.com/games/shift-dx/3ds-20045199'
p852
F2.4779980324695623e-06
sS'http://www.ign.com/articles/2016/07/25/top-10-worst-star-wars-games-ever-made'
p853
F1.233232877706638e-06
sS'http://www.ign.com/articles/2015/06/22/e3-2015-abzus-a-stunning-game-from-the-artist-behind-journey'
p854
F1.0831429168085585e-06
sS'http://www.ign.com/games/izle/xbox-360-20031498'
p855
F7.431822319991974e-07
sS'http://www.ign.com/wikis/nioh'
p856
F7.845770972530387e-07
sS'http://www.ign.com/videos/2016/12/08/pokemon-sun-and-moon-walkthrough-po-town'
p857
F1.1263477807147296e-06
sS'http://www.ign.com/boards/threads/best-game-story-r1v2-kotor-v-ffvii.454892890/'
p858
F2.884941743650135e-07
sS'http://www.ign.com/videos/games/resident-evil-7-pc-20054862'
p859
F6.474543229068368e-07
sS'http://www.ign.com/articles/2016/11/19/westworld-ed-harris-man-in-black-returning-for-season-2'
p860
F1.0028038395353407e-06
sS'http://www.ign.com/games/crash-bandicoot-remastered/ps4-20054856'
p861
F7.323984511237555e-07
sS'http://www.ign.com/boards/threads/2016-2017-off-season-thread.454873688/page-6'
p862
F3.2260640164013093e-07
sS'http://www.ign.com/articles/2016/12/06/paranoid-season-1-review'
p863
F4.092523777563148e-07
sS'http://www.ign.com/boards/forums/nintendo-lobby.80041/'
p864
F5.3131010445556655e-06
sS'http://www.ign.com/boards/threads/how-can-microsoft-look-at-their-current-upcoming-lineup-and-feel-content-with-it.454893791/page-2'
p865
F6.875068320991439e-07
sS'http://www.ign.com/games/nintendo-switch'
p866
F8.67045937332397e-06
sS'http://www.ign.com/articles/2016/11/29/marvel-comics-reveals-new-x-men-aresurrxiona-creators-and-concepts'
p867
F9.089038401550809e-07
sS'http://www.ign.com/videos/2016/12/03/lara-croft-go-psx-trailer'
p868
F2.971999602940853e-07
sS'http://www.ign.com/videos/2016/10/30/stranger-things-director-heads-into-uncharted-territory-ign-keepin-it-reel'
p869
F4.496611129022612e-07
sS'http://www.ign.com/articles/2016/11/08/call-of-duty-modern-warfare-remastered-review?watch'
p870
F5.398337959708965e-07
sS'http://www.ign.com/boards/forums/legend-of-zelda.5188/'
p871
F1.1334085312113508e-06
sS'http://www.ign.com/articles/2016/12/07/marvels-agents-of-shield-laws-of-inferno-dynamics-review'
p872
F4.04334792442821e-07
sS'http://www.ign.com/games/rise-race-the-future/3ds-20054221'
p873
F2.2756174793212744e-06
sS'http://www.ign.com/articles/2016/12/01/mayans-mc-fx-orders-pilot-for-sons-of-anarchy-spinoff'
p874
F1.269797733918964e-06
sS'http://www.ign.com/games/gigantic/xbox-one-20033776'
p875
F6.637737195390091e-07
sS'http://www.ign.com/videos/series/ign-news'
p876
F1.469238372539347e-06
sS'http://www.ign.com/boards/forums/android-board.80151/'
p877
F4.682593885422078e-07
sS'http://www.ign.com/wikis/final-fantasy-15/Upgradable_Weapons'
p878
F3.5021307839222084e-07
sS'http://www.ign.com/articles/2016/08/11/transformers-the-last-knight-megatrons-new-look-revealed'
p879
F1.2597618949237642e-06
sS'http://www.ign.com/articles/2016/11/04/wonder-woman-we-think-we-know-who-this-villain-is'
p880
F1.1287616829656091e-06
sS'http://www.ign.com/articles/2016/12/08/the-last-of-us-part-2-naughty-dog-teased-new-game-3-months-ago?watch'
p881
F1.1857743129979362e-06
sS'http://www.ign.com/watch/destin-legarie'
p882
F1.261073327252438e-07
sS'http://www.ign.com/games/halo-wars-definitive-edition/pc-20054810'
p883
F6.335706266520354e-07
sS'http://www.ign.com/articles/2016/11/29/nintendo-outlines-plans-for-universal-theme-parks'
p884
F6.903218664053329e-06
sS'http://www.ign.com/videos/2016/12/08/the-last-of-us-part-ii-teaser-you-probably-missed-ign-daily-fix'
p885
F1.4927751548474327e-06
sS'http://www.ign.com/videos/2016/12/03/5-minutes-of-digimon-world-next-order-gameplay-psx-2016'
p886
F2.9940361793343834e-07
sS'http://www.ign.com/articles/2016/11/16/miss-sloane-review'
p887
F4.382731686536511e-07
sS'http://www.ign.com/articles/2016/12/08/the-5-most-annoying-heroes-in-dota-2?read'
p888
F1.1020624437397122e-06
sS'http://www.ign.com/articles/2016/11/14/dishonored-2-review'
p889
F7.204918942260259e-07
sS'http://www.ign.com/videos/games/halo-wars-definitive-edition-xbox-one-20054807'
p890
F7.002237214790125e-07
sS'http://in.ign.com'
p891
F1.8075008029822317e-07
sS'http://www.ign.com/watch/max-scoville'
p892
F9.389141514173707e-08
sS'https://www.youtube.com/watch?v=1NKpmSoZbyo'
p893
F3.4392071978872657e-07
sS'http://www.ign.com/articles/2016/11/28/x-men-gold-and-blue-rosters-and-creative-teams-revealed'
p894
F8.970579370250974e-07
sS'http://www.ign.com/cheats/games/assassins-creed-the-ezio-collection-ps4-20058808'
p895
F7.346191862696735e-07
sS'http://www.ign.com/articles/2016/07/20/the-japanese-collectible-card-game-that-may-just-surprise-you'
p896
F8.424110140185617e-07
sS'http://www.ign.com/articles/2016/12/08/kanyes-next-album-may-have-songs-named-after-wii-games'
p897
F1.0107526392646573e-06
sS'http://www.ign.com/boards/forums/world-of-warcraft.6673/'
p898
F4.750537404543889e-07
sS'http://www.ign.com/videos/2016/12/02/rogue-one-is-already-beating-suicide-squad-and-dr-strange-records'
p899
F4.2835468110279055e-07
sS'http://www.ign.com/videos/2016/03/01/jedi-michonne-killing-zombies-with-a-lightsaber-star-wars-walking-dead-mash-up'
p900
F9.304047912125129e-07
sS'http://www.ign.com/games/bulletstorm-full-clip-edition/ps4-20059600'
p901
F6.934098672917525e-07
sS'http://www.ign.com/wikis/steep?objectid=20054837'
p902
F7.0388555384003e-07
sS'http://www.ign.com/boards/forums/the-crosswalk.80237/index.rss'
p903
F2.2251782479035483e-07
sS'http://www.ign.com/trailers/one-piece-film-gold-theatrical-trailer'
p904
F3.110906620849234e-07
sS'http://www.ign.com/boards/forums/shenmue.5284/'
p905
F4.805184601978151e-07
sS'http://www.ign.com/boards/forums/dynasty-warriors.5679/'
p906
F4.808999754500563e-07
sS'http://www.ign.com/boards/threads/2016-ign-moonlighters-fantasy-football.454828736/page-2'
p907
F8.61583953171189e-07
sS'http://www.ign.com/articles/2016/12/01/vikings-the-outsider-review'
p908
F4.493275364090103e-07
sS'http://www.ign.com/videos/2016/11/25/the-best-and-worst-new-pokemon-in-sun-and-moon'
p909
F8.723382415929129e-07
sS'http://www.ign.com/videos/2016/03/18/dark-souls-prepare-to-try-episode-3-the-undead-parish'
p910
F4.3356730070103494e-07
sS'http://www.ign.com/blogs/ttdog666'
p911
F3.132897512479375e-07
sS'http://www.ign.com/articles?tags=review'
p912
F6.615986008512789e-07
sS'http://www.ign.com/boards/forums/warcraft.5369/'
p913
F4.826243179915107e-07
sS'http://www.ign.com/articles/2016/12/07/the-flash-the-present-review?read'
p914
F3.687631775216718e-07
sS'http://www.ign.com/boards/forums/kingdom-hearts.5917/'
p915
F4.5201008886518347e-07
sS'http://www.ign.com/videos/2015/08/28/15-best-selling-video-games-of-all-time'
p916
F4.2267517032752676e-07
sS'http://www.ign.com/wikis/pokemon-go/Bugs,_Glitches,_Freezes,_and_Fixes'
p917
F5.139529224262586e-07
sS'http://www.ign.com/games/watch-dogs-2/xbox-one-20054627'
p918
F6.843994565868315e-07
sS'http://www.ign.com/videos/2016/12/03/crash-bandicoot-n-sane-trilogy-reveal-trailer'
p919
F4.884625153865693e-07
sS'http://www.ign.com/images/games/danganronpa-v3-vita-20032525'
p920
F9.240175729662027e-07
sS'http://www.ign.com/articles?tags=news'
p921
F1.9697350213962465e-06
sS'http://www.ign.com/images/games/apollo-justice-ace-attorney-android-20060197'
p922
F9.013296414871218e-07
sS'http://www.ign.com/articles/2016/10/05/until-dawn-rush-of-blood-review'
p923
F5.496311425402412e-07
sS'http://www.ign.com/articles/2016/12/07/the-flash-the-present-review?watch'
p924
F3.6988917195685246e-07
sS'http://www.pcmag.com/g00/article2/0,2817,2490016,00.asp'
p925
F4.5643822085858765e-08
sS'http://www.ign.com/boards/forums/soulcalibur.5260/'
p926
F4.784308997467186e-07
sS'http://www.ign.com/support/editorial?category=newstips'
p927
F1.015412437685408e-06
sS'http://www.ign.com/watch/ryan-mccaffrey'
p928
F8.66266474655815e-08
sS'http://www.ign.com/articles/2016/11/23/watch-dogs-2-review'
p929
F7.490027029010872e-07
sS'http://www.ign.com/watch/miranda-sanchez'
p930
F2.3503823014332393e-07
sS'http://fr.ign.com/'
p931
F9.737837927320672e-07
sS'http://www.ign.com/articles/2016/10/20/shadowverse-the-ccg-with-a-awin-the-matcha-card'
p932
F8.896790820789451e-07
sS'http://www.ign.com/watch/samuel-claiborn'
p933
F1.9252813702458546e-07
sS'http://www.ign.com/articles/2016/11/11/keepin-it-reel-episode-345-how-should-the-marvel-cinematic-universe-use-spider-man-next?watch'
p934
F1.12338828886432e-06
sS'http://www.ign.com/videos/2016/12/03/nintendo-voice-chat-pokemon-reviews-and-a-community-question-block'
p935
F3.0134005924345565e-06
sS'http://sea.ign.com/'
p936
F4.659180915994968e-07
sS'http://www.ign.com/articles/2016/10/04/send-us-your-clips-for-the-ps4-gamer-challenge?watch'
p937
F1.9076961230845538e-06
sS'http://za.ign.com/'
p938
F1.401347473448358e-06
sS'http://nl.ign.com/'
p939
F1.0935916000916742e-06
sS'http://www.ign.com/games/bulletstorm-full-clip-edition/xbox-one-20054907'
p940
F6.934098672917525e-07
sS'http://www.ign.com/articles/2016/10/05/playstation-vr-review?watch'
p941
F7.434863163821757e-07
sS'http://www.ign.com/wikis/eagle-flight'
p942
F7.210637131896975e-07
sS'http://www.ign.com/videos/series/ign-esports'
p943
F7.542883176579649e-07
sS'http://www.ign.com/wikis/list'
p944
F8.708749375691529e-07
sS'http://www.ign.com/games/the-walking-dead-a-telltale-game-series-season-3/ps3-20022254'
p945
F6.90249024591847e-07
sS'http://www.ign.com/boards/forums/gamespy-general-gaming.80133/'
p946
F6.91167956347675e-07
sS'http://www.ign.com/articles/2016/12/08/comic-book-reviews-for-december-7-2016'
p947
F9.669436766911652e-07
sS'http://www.ign.com/boards/threads/cant-write-a-new-blog.454890204/'
p948
F7.368534295369171e-07
sS'http://www.ign.com/sitemaps'
p949
F1.9716585907530792e-06
sS'http://people.ign.com/'
p950
F7.933117473206887e-07
sS'http://www.ign.com/videos/games/sniper-elite-4-pc-20050478'
p951
F7.427265715258686e-07
sS'http://www.ign.com/games/demons-crest/3ds-20062533'
p952
F2.7422457004158275e-06
sS'http://se.ign.com/'
p953
F1.8709643299403189e-06
sS'http://www.ign.com/videos/2016/11/29/final-fantasy-xv-chocobo-world-tour-gameplay'
p954
F2.9749190524525826e-07
sS'http://www.ign.com/articles/2016/11/30/marvels-agents-of-shield-deals-with-our-devils-review'
p955
F3.8407959358233726e-07
sS'http://www.ign.com/videos/2016/02/19/beyond-happy-4th-birthday-to-our-favorite-handheld'
p956
F4.940403907661875e-07
sS'http://www.ign.com/wikis/pokemon-sun-pokemon-moon/Island_Scan_QR_Code_Pokemon'
p957
F9.228443662966164e-07
sS'http://www.ign.com/games/minecraft-story-mode/vita-20047270'
p958
F6.659631875528816e-07
sS'http://www.ign.com/boards/forums/hip-hop.5113/'
p959
F4.188751860853014e-07
sS'http://www.ign.com/games/ys-origin/vita-20062331'
p960
F6.689050459186592e-07
sS'http://www.ign.com/blogs/constructive_review/2016/12/05/a-constructive-review-introduction'
p961
F1.4983142092253454e-06
sS'http://www.ign.com/videos/2016/12/07/conan-exiles-survive-in-the-world-of-conan-ign-first'
p962
F2.9807751923196154e-07
sS'https://twitter.com/hashtag/SuperMarioRun?src=hash'
p963
F2.886545762093785e-06
sS'http://www.ign.com/articles/2016/11/29/split-m-night-shyamalan-and-cast-talk-the-disturbing-new-thriller'
p964
F9.185525008785955e-07
sS'http://www.ign.com/articles/2016/12/05/dead-rising-4-review?watch'
p965
F7.398536470838914e-07
sS'http://www.ign.com/boards/forums/metroid.5217/'
p966
F4.695298597514309e-07
sS'http://www.ign.com/games/final-fantasy-xv/ps4-826846'
p967
F6.523355078937489e-07
sS'http://www.ign.com/articles/2016/11/21/the-best-gifts-for-comic-book-and-superhero-fans'
p968
F1.38233591269535e-06
sS'http://www.ign.com/boards/forums/uncharted.11422/'
p969
F4.625380061697945e-07
sS'http://www.ign.com/boards/threads/so-i-watched-all-eight-harry-potter-movies-in-a-row.250000008/'
p970
F4.5990396285447673e-07
sS'http://www.ign.com/watch/seanfinnegan'
p971
F2.967631156684693e-07
sS'http://www.ign.com/boards/forums/star-wars-videogames.7037/'
p972
F4.4454570207658413e-07
sS'http://www.ign.com/videos/2016/12/06/video-game-20-questions-game-scoop-415'
p973
F4.964700976060211e-07
sS'http://www.ign.com/articles/2016/12/09/arrow-how-did-that-thought-dead-character-come-back'
p974
F3.7808584212193873e-07
sS'http://www.ign.com/videos/2016/10/03/hyperx-cloud-stinger-gaming-headset-unboxing'
p975
F4.952522641695387e-07
sS'http://www.ign.com/videos/2016/12/08/pokemon-sun-and-moon-walkthrough-ulaula-meadow'
p976
F1.1263477807147296e-06
sS'http://www.ign.com/wikis/assassins-creed-the-ezio-collection?objectid=20058808'
p977
F6.978035934093846e-07
sS'http://www.ign.com/boards/forums/far-cry.5731/'
p978
F4.774879929675568e-07
sS'http://www.ign.com/videos/2016/12/07/werewolves-within-official-launch-trailer'
p979
F3.090273056527275e-07
sS'http://www.ign.com/videos/2016/12/07/gamecube-virtual-console-coming-to-switch-ign-daily-fix'
p980
F2.544930752434226e-06
sS'http://www.ign.com/games/titanfall-frontline/iphone-20045132'
p981
F7.088279919009313e-07
sS'http://www.ign.com/cheats/games/steep-pc-20054836'
p982
F7.528819379482235e-07
sS'http://www.ign.com/wikis/create?objectid=20062371'
p983
F1.2065607949787765e-06
sS'https://www.youtube.com/watch?v=yzpaEbkdAxM'
p984
F4.246904495017149e-08
sS'http://www.ign.com/articles/2016/12/01/arrow-invasion-review'
p985
F3.871483023837302e-07
sS'http://www.ign.com/games/escape-from-tarkov/pc-20046164'
p986
F6.36901702501941e-07
sS'http://www.ign.com/boards/forums/pikmin.6120/'
p987
F4.7301329096395615e-07
sS'http://www.ign.com/articles/2016/07/05/is-faeria-the-next-big-collectible-card-game'
p988
F9.644801259225252e-07
sS'http://www.ign.com/blogs/pacquiaovsvargaslive'
p989
F4.257950924986614e-07
sS'http://www.ign.com/articles/2016/12/02/la-la-land-review'
p990
F4.168572051475195e-07
sS'http://www.ign.com/boards/forums/fifa-soccer.5726/'
p991
F4.769240307711384e-07
sS'http://www.ign.com/articles/2016/12/09/spider-man-homecoming-star-tom-holland-calls-vultures-debut-like-a-horror-movie?watch'
p992
F1.4719162067541818e-06
sS'http://www.ign.com/wikis/battlefield-1/Field_Manuals'
p993
F3.607465867059833e-07
sS'http://www.ign.com/boards/forums/electronica-dance.8310/'
p994
F4.786199281543626e-07
sS'http://www.ign.com/boards/forums/midnight-club-racing.6011/'
p995
F4.7430972519917453e-07
sS'http://www.ign.com/blogs/maillink2016/2016/12/07/people-know-that-who-im'
p996
F9.339915483104793e-07
sS'http://www.ign.com/articles/2016/12/08/dragon-quest-heroes-2-gets-western-release-date?read'
p997
F1.1993931070878136e-06
sS'http://www.ign.com/articles/2016/12/06/your-name-review'
p998
F4.616566456397453e-07
sS'http://www.ign.com/boards/threads/any-skimboarders-here.454862189/'
p999
F9.033460388953703e-07
sS'http://www.ign.com/games/ultimate-chicken-horse/wii-u-20050770'
p1000
F2.5013891643394815e-06
sS'http://www.ign.com/videos/2016/12/07/our-favorite-star-wars-troopers-of-all-time'
p1001
F4.3263822791381844e-07
sS'http://www.ign.com/boards/forums/elder-scrolls.5312/'
p1002
F4.58858726575262e-07
sS'http://www.ign.com/boards/'
p1003
F1.2787336785630102e-06
sS'http://www.ign.com/boards/forums/littlebigplanet.10963/'
p1004
F4.81856419315311e-07
sS'https://www.youtube.com/watch?v=gVLnNm85W4s&list=PLraFbwCoisJCG2Wsep4O6WneiWMOKnSe7'
p1005
F3.747639642861934e-08
sS'http://www.ign.com/videos/2016/11/05/will-the-ghost-in-the-shell-movie-work-ign-keepin-it-reel'
p1006
F4.613050411876206e-07
sS'http://www.ign.com/wikis/kingdom-hearts-hd-2-8-final-chapter-prologue'
p1007
F6.974018642249233e-07
sS'http://www.ign.com/blogs/page/2'
p1008
F6.982057856822431e-07
sS'https://www.youtube.com/watch?v=XRZDOZu7cy8'
p1009
F5.246749605827005e-07
sS'http://www.ign.com/videos/2016/04/08/if-rogue-one-came-out-in-1977'
p1010
F4.560945173790255e-07
sS'http://www.ign.com/boards/forums/persona-shin-megami-tensei.6115/'
p1011
F4.756132854961491e-07
sS'http://www.ign.com/boards/forums/cooking-gardening-board.6967/'
p1012
F4.876759412877181e-07
sS'http://www.ign.com/articles/2016/12/08/dragon-quest-heroes-2-gets-western-release-date?watch'
p1013
F1.208969099958774e-06
sS'http://www.ign.com/cheats/games/killing-floor-2-ps4-20028713'
p1014
F7.482316480288399e-07
sS'http://www.ign.com/articles/2015/11/30/rainbow-six-siege-review'
p1015
F5.63785466099298e-07
sS'http://www.ign.com/articles/2016/11/22/batman-the-telltale-series-episode-4-guardian-of-gotham-review'
p1016
F6.4458338319902e-07
sS'http://www.ign.com/videos/2016/12/04/destiny-rise-of-iron-the-dawning-interview-psx-2016'
p1017
F2.772052718898608e-07
sS'http://www.ign.com/wikis/ign-community-central'
p1018
F8.677557579933322e-07
sS'http://www.ign.com/comics'
p1019
F6.026801184869112e-07
sS'http://www.ign.com/articles/2016/12/06/humans-season-2-photos-reveal-new-characters'
p1020
F1.1449782969363817e-06
sS'http://www.ign.com/games/clockwork/iphone-20032839'
p1021
F7.45468946559195e-07
sS'http://www.ign.com/videos?filter=games-review'
p1022
F1.2497115249229967e-06
sS'http://www.ign.com/wikis/nintendo-switch'
p1023
F1.2938311634581158e-05
sS'http://www.ign.com/videos/2016/10/01/11-awesome-destiny-fan-creations-you-need-to-see-best-of-the-web'
p1024
F2.8463041310119634e-07
sS'http://www.ign.com/blogs/maillink2016'
p1025
F9.816750714414032e-07
sS'http://www.ign.com/images/games/kingdom-hearts-hd-ii-8-ps4-20042901'
p1026
F8.567093622055811e-07
sS'http://www.ign.com/wikis/battlefield-1/Things_Battlefield_1_Doesn%27t_Tell_You'
p1027
F5.269191118567602e-07
sS'http://www.ign.com/articles/2015/11/30/rainbow-six-siege-review?watch'
p1028
F5.660687094199494e-07
sS'http://www.ign.com/videos?filter=games-trailer'
p1029
F8.33714410295039e-07
sS'http://www.ign.com/boards/threads/the-nintendo-switch-along-with-zelda-was-shown-on-jimmy-fallons-tonight-show.454894382/page-2'
p1030
F6.974487957097298e-06
sS'http://www.ign.com/wikis/pokemon-sun-pokemon-moon/How_to_Get_Wimpod_and_Golisopod_in_Pokemon_Sun_and_Moon'
p1031
F9.424691686919281e-07
sS'http://www.ign.com/boards/categories/gaming.80142/'
p1032
F2.099457605127715e-06
sS'http://www.ign.com/games/steep/ps4-20054837'
p1033
F6.69644576096568e-07
sS'http://www.ign.com/videos/2016/12/06/welcome-to-skyrim-episode-3-were-going-to-hogwarts'
p1034
F8.881136643392168e-07
sS'http://www.ign.com/articles/2016/10/28/keepin-it-reel-episode-343-wtf-happened-to-deadpool-2?watch'
p1035
F1.1399501613789446e-06
sS'http://www.ign.com/articles/2016/12/06/dragon-ball-super-episode-69-goku-vs-arale-a-ridiculous-battle-will-end-the-earth-review'
p1036
F4.695298597514309e-07
sS'http://www.ign.com/boards/forums/hockey.5111/'
p1037
F4.7393859082890913e-07
sS'http://www.ign.com/videos/2016/10/22/new-willy-wonka-casting-picks-ign-keepin-it-reel'
p1038
F4.7062433494898666e-07
sS'http://www.ign.com/games/upcoming/xbox-360'
p1039
F1.5597258002043241e-06
sS'http://www.ign.com/boards/threads/so-this-week-ive-won-%C2%A3350-on-roulette.454894751/'
p1040
F7.236481709430655e-07
sS'http://www.ign.com/trailers/attack-on-titan-live-action-trailer'
p1041
F3.1205230246231114e-07
sS'http://www.ign.com/tv/reviews'
p1042
F6.729927989770509e-07
sS'http://www.ign.com/articles/2016/12/02/how-supergirl-will-be-involved-in-the-arrowverse-after-the-crossover'
p1043
F1.1229023342219983e-06
sS'http://www.ign.com/wikis/batman-the-telltale-series'
p1044
F5.849285553639265e-07
sS'http://www.ign.com'
p1045
F2.1233778057119923e-06
sS'http://www.ign.com/boards/forums/gears-of-war.8403/'
p1046
F4.851369796390435e-07
sS'http://www.ign.com/games/ghost-recon-wildlands/xbox-one-20038801'
p1047
F6.13982279857421e-07
sS'http://www.ign.com/articles/2016/12/05/dead-rising-4-review'
p1048
F7.377509367592519e-07
sS'http://www.ign.com/articles/2016/11/30/answering-3-important-questions-about-resident-evil-7'
p1049
F9.7881952016701e-07
sS'http://www.ign.com/articles/2016/12/08/ea-announces-sea-of-solitude'
p1050
F7.552288267822267e-07
sS'http://www.ign.com/videos/2016/12/04/why-were-worried-about-the-power-rangers-movie'
p1051
F8.771810558716087e-07
sS'http://www.ign.com/boards/forums/destiny.80215/'
p1052
F4.7190768919310157e-07
sS'http://www.ign.com/xbox-one'
p1053
F3.9216155330485325e-07
sS'http://www.ign.com/videos/2016/10/08/how-crazy-is-the-westworld-vr-experience-ign-access'
p1054
F4.81856419315311e-07
sS'http://www.ign.com/articles/2016/10/05/playstation-vrs-launch-games-reviewed'
p1055
F9.408100638076201e-07
sS'http://www.ign.com/boards/forums/dragon-warrior.5658/'
p1056
F4.557513311357004e-07
sS'http://www.ign.com/boards/forums/wwe-games.6546/'
p1057
F4.4651199342377135e-07
sS'http://www.ign.com/articles/2016/12/09/spider-man-homecoming-star-tom-holland-calls-vultures-debut-like-a-horror-movie?abthid=584a07217bb8cf2b2000002d&read'
p1058
F1.4571616337113373e-06
sS'http://www.ign.com/boards/forums/diablo.5218/'
p1059
F4.750537404543889e-07
sS'http://www.ign.com/wikis/ign/Standards_and_Practices'
p1060
F4.4651199342377135e-07
sS'http://www.ign.com/games/watch-dogs-2/ps4-20054628'
p1061
F6.78648200649127e-07
sS'http://www.ign.com/articles/2016/12/01/ign-unfiltered-episode-13-inventor-and-oculus-co-founder-jack-mccauley?watch'
p1062
F1.660192377558737e-06
sS'http://www.ign.com/videos/2016/11/04/watch-party-psycho-pass-season-finale-episodes-21-22'
p1063
F4.952522641695387e-07
sS'http://www.ign.com/watch/justin-davis'
p1064
F1.4332548960703876e-07
sS'http://www.ign.com/wikis/gta-5/Executives_and_Other_Criminals'
p1065
F5.503802990271203e-07
sS'http://www.ign.com/videos/2016/12/05/local-multiplayer-games-might-be-making-a-comeback-game-scoop'
p1066
F4.90043300226008e-07
sS'http://www.ign.com/videos/2016/12/06/crystal-rift-is-an-old-school-dungeon-crawler-thats-so-bad-its-good'
p1067
F4.443826258835993e-07
sS'http://www.ign.com/wikis/pokemon-sun-pokemon-moon/Key_Items'
p1068
F8.959963299990323e-07
sS'http://www.ign.com/articles/2016/11/03/owlboy-review?read'
p1069
F5.623895256075635e-07
sS'http://www.ign.com/videos?filter=all'
p1070
F7.671862179599061e-07
sS'http://www.ign.com/wikis/ign-community-central/God_Eater_Sweepstakes_Official_Rules'
p1071
F3.7550745138211146e-07
sS'http://www.ign.com/cheats/games/assassins-creed-the-ezio-collection-xbox-one-20058807'
p1072
F7.350649503390119e-07
sS'http://www.ign.com/articles/2016/12/08/westworld-7-likeliest-theories-about-season-2'
p1073
F9.893719684406172e-07
sS'http://www.ign.com/articles/2016/10/20/10-of-the-best-oculus-rift-games?watch'
p1074
F9.005256007721468e-07
sS'http://www.ign.com/wikis/the-last-guardian'
p1075
F7.359581033770909e-07
sS'http://www.ign.com/xbox-360'
p1076
F5.96546473157596e-07
sS'http://www.ign.com/games/the-walking-dead-a-telltale-game-series-season-3/xbox-one-20022258'
p1077
F6.922211646621096e-07
sS'http://www.ign.com/videos/2016/12/07/resident-evil-the-final-chapter-road-to-racoon-city-an-interactive-experience-sizzle'
p1078
F2.989602759522931e-07
sS'http://www.ign.com/movies'
p1079
F3.926700285765613e-07
sS'http://www.ign.com/videos/2016/12/04/rogue-one-a-star-wars-story-jyn-rallies-the-rebel-alliance-clip'
p1080
F3.0104051644102673e-07
sS'http://www.ign.com/games/strafe/ps4-20062341'
p1081
F7.855947069771023e-07
sS'http://www.ign.com/watch/kyle-oconnor'
p1082
F2.335879363977423e-07
sS'http://www.ign.com/videos/2016/09/10/history-of-awesome-mass-effect'
p1083
F2.8719465105706297e-07
sS'http://www.ign.com/articles/2016/12/05/dead-rising-4-review?read'
p1084
F7.359581033770909e-07
sS'http://www.ign.com/watch/marty-sliva'
p1085
F8.698743631758521e-08
sS'http://www.ign.com/images/games/ys-origin-vita-20062331'
p1086
F9.332719862547702e-07
sS'http://www.ign.com/ps3'
p1087
F7.881503176048743e-07
sS'http://www.ign.com/ps4'
p1088
F3.8310785520515233e-07
sS'http://www.ign.com/boards/forums/digimon.5633/'
p1089
F4.58858726575262e-07
sS'http://www.ign.com/boards/forums/borderlands.11454/'
p1090
F4.7007646028664787e-07
sS'http://www.ign.com/games/resident-evil-7/pc-20054862'
p1091
F6.882880898628929e-07
sS'http://www.ign.com/boards/forums/movies.8275/'
p1092
F4.409854525513985e-07
sS'https://twitter.com/Tom_Jorgensen'
p1093
F1.4424708718250675e-07
sS'https://twitter.com/IGN/status/806942256578105344'
p1094
F3.4181349835177527e-07
sS'http://www.ign.com/videos/2016/12/09/super-mario-run-full-apple-store-demo-iphone-7-gameplay'
p1095
F2.082443336716808e-06
sS'http://www.ign.com/boards/forums/james-bond-007-series.7953/'
p1096
F7.151045089484603e-07
sS'http://www.ign.com/articles/2016/12/06/new-photos-from-marvels-iron-fist-include-claire-temple-colleen-wing-and-more?watch'
p1097
F1.4207041104284893e-06
sS'http://www.ign.com/articles/2016/11/08/call-of-duty-modern-warfare-remastered-review'
p1098
F5.382347622150585e-07
sS'http://www.ign.com/articles/2016/11/22/marvel-comics-solicitations-for-february-2017'
p1099
F4.081492716168099e-07
sS'http://www.ign.com/boards/forums/killzone.6968/'
p1100
F4.784308997467186e-07
sS'http://www.ign.com/games/horizon-zero-dawn/ps4-83790'
p1101
F6.726191216872248e-07
sS'http://www.ign.com/boards/forums/comics.5033/'
p1102
F4.4389411438574265e-07
sS'https://www.youtube.com/watch?v=NSgRFiAa84Q'
p1103
F4.414354049117017e-08
sS'http://www.ign.com/videos/games/danganronpa-v3-vita-20032525'
p1104
F7.927925642399816e-07
sS'http://www.ign.com/articles/2016/12/08/westworld-all-the-hints-at-the-man-in-black-reveal?watch'
p1105
F1.0862509309170478e-06
sS'http://www.ign.com/boards/categories/support-feedback.80267/'
p1106
F8.92694943374128e-07
sS'http://www.ign.com/articles/2016/12/02/keepin-it-reel-the-final-episode-before-we-relaunch-as-the-ign-movies-show?watch'
p1107
F1.0910120427727635e-06
sS'http://www.ign.com/watch/game-scoop'
p1108
F1.430546809351313e-07
sS'http://www.ign.com/videos/games/danganronpa-v3-ps4-20042906'
p1109
F7.927925642399816e-07
sS'http://www.ign.com/games/deathtrap/xbox-one-20046365'
p1110
F6.335706266520354e-07
sS'http://www.ign.com/articles/2016/02/21/this-is-the-samsung-galaxy-s7-and-s7-edge'
p1111
F1.5855851284799631e-06
sS'http://www.ign.com/articles/2016/12/01/game-scoop-415-time-to-fly-back-to-no-mans-sky'
p1112
F1.404018356697603e-06
sS'http://www.ign.com/wikis/playstation-4/PlayStation_VR_Troubleshooting_and_Problem_Fixes'
p1113
F4.5678244274460476e-07
sS'http://www.ign.com/articles/2016/12/08/office-christmas-party-review'
p1114
F4.434066757535475e-07
sS'http://www.ign.com/boards/forums/basketball.5109/'
p1115
F4.4849575644527647e-07
sS'http://www.ign.com/articles/2016/12/08/logan-richard-e-grants-villain-role-in-wolverine-finale-revealed'
p1116
F1.247823483888228e-06
sS'http://www.ign.com/boards/forums/gran-turismo.5208/'
p1117
F6.983399528201527e-07
sS'http://www.ign.com/articles/2016/12/07/daily-deals-call-of-duty-board-game-blowout-oculus-rift-with-100-credit?abthid=58488891b13000a618000014'
p1118
F1.0936386140463663e-06
sS'http://www.ign.com/articles/2016/12/07/daily-deals-call-of-duty-board-game-blowout-oculus-rift-with-100-credit?abthid=58488891b13000a618000013'
p1119
F1.0936386140463663e-06
sS'http://www.ign.com/articles/2016/10/27/nintendo-will-stream-a-nintendo-switch-presentation-in-january'
p1120
F1.527341579914045e-05
sS'http://www.ign.com/blogs/jr8zeppelin/2016/12/05/my-top-5-announcements-from-playstation-experience-2016'
p1121
F8.335231913935952e-07
sS'http://www.ign.com/videos/2016/12/05/marty-plays-mass-effect-episode-1-saren-surprise-party'
p1122
F4.2267517032752676e-07
sS'http://www.ign.com/articles/2016/07/13/pokemon-go-review'
p1123
F8.899405217151716e-07
sS'http://www.ign.com/games/the-walking-dead-a-telltale-game-series-season-3/xbox-360-20022255'
p1124
F6.89855944281715e-07
sS'http://www.ign.com/articles/2016/08/19/deus-ex-mankind-divided-review'
p1125
F4.989238213174183e-07
sS'https://twitter.com/FallonTonight'
p1126
F4.6508332665421995e-07
sS'http://www.ign.com/articles/2016/04/01/the-walking-dead-michonne-episode-2-review?watch'
p1127
F6.749927775772799e-07
sS'http://www.ign.com/articles/2016/10/19/games-that-should-be-revived-in-vr'
p1128
F1.4293652367654179e-06
sS'http://www.ign.com/videos/2016/12/05/rogue-one-a-star-wars-story-footage-reaction-what-we-thought-of-the-28-minutes-weve-seen'
p1129
F2.9940361793343834e-07
sS'http://www.ign.com/boards/forums/my-ign.80149/'
p1130
F4.882656340825038e-07
sS'http://www.ign.com/videos/2016/12/05/state-of-decay-2-devs-listening-to-fans-ign-daily-fix'
p1131
F3.4670493364587623e-07
sS'http://www.ign.com/articles/2016/12/08/arrow-what-we-leave-behind-review'
p1132
F3.7330879450190807e-07
sS'http://www.ign.com/games/power-rangers-mega-battle/pc-20059895'
p1133
F6.851736641169072e-07
sS'http://www.ign.com/blogs/boxinglive'
p1134
F6.186859234722634e-07
sS'http://www.ign.com/articles/2016/09/07/super-mario-run-coming-to-ios?watch'
p1135
F4.320210549781355e-06
sS'http://www.ign.com/boards/forums/dead-space.23951/'
p1136
F4.709902947739859e-07
sS'http://www.ign.com/articles/2016/11/24/unlocked-272-our-halo-6-predictions'
p1137
F1.360497572056033e-06
sS'http://www.ign.com/boards/forums/current-events.5361/'
p1138
F4.847487147493765e-07
sS'http://www.ign.com/boards/threads/avery-johnson-agrees-to-alabama-job.454442495/'
p1139
F7.350649503390119e-07
sS'http://www.ign.com/articles/2016/11/15/the-original-xboxas-15-best-exclusive-games'
p1140
F8.970579370250974e-07
sS'http://www.ign.com/cheats/games/pokemon-moon-version-3ds-20050016'
p1141
F1.382861915706269e-06
sS'http://www.ign.com/articles/2016/12/08/dragon-quest-heroes-2-gets-western-release-date'
p1142
F1.1993931070878136e-06
sS'http://www.ign.com/articles/2016/12/05/oculus-touch-controllers-review'
p1143
F5.932355720659607e-07
sS'http://www.ign.com/videos/games/sniper-elite-4-xbox-one-20050479'
p1144
F7.422714694599826e-07
sS'http://www.ign.com/videos/2016/12/02/15-minutes-of-star-wars-battlefront-rogue-one-gameplay'
p1145
F5.774008761480895e-07
sS'http://www.ign.com/games/pokemon-moon-version/3ds-20050016'
p1146
F4.141494147551083e-06
sS'http://www.ign.com/articles/2016/11/23/best-pc-gifts-of-2016'
p1147
F9.458049954393283e-07
sS'https://www.youtube.com/watch?v=B2Sdg2JRTRQ&list=PLE196726F02565118'
p1148
F3.40340992177943e-07
sS'http://www.ign.com/videos/2016/10/06/old-man-logan-14-new-marvel-legends-revealed-ign-access'
p1149
F1.2653764326170178e-06
sS'http://www.ign.com/videos?filter=series'
p1150
F1.5295290885842069e-06
sS'http://www.ign.com/boards/forums/football.5105/'
p1151
F4.434066757535475e-07
sS'https://www.youtube.com/watch?v=S4VJ29yH2Kc'
p1152
F4.4519920549749786e-08
sS'http://www.ign.com/articles/2016/11/30/villain-team-for-justice-league-vs-suicide-squad-revealed'
p1153
F1.22759124256049e-06
sS'http://www.ign.com/trailers/the-last-of-us-2-psx-2016-reveal-trailer'
p1154
F3.0839792213815977e-07
sS'http://www.ign.com/ps-vita'
p1155
F5.930419573231193e-07
sS'http://www.ign.com/cheats/games/the-dwarves-pc-20040456'
p1156
F7.189240582544164e-07
sS'http://www.ign.com/games/reviews/iphone'
p1157
F5.642231197758229e-07
sS'http://www.ign.com/articles/2016/12/07/ign-anime-club-episode-75-our-least-favorite-anime-endings?watch'
p1158
F9.750378607201316e-07
sS'http://www.ign.com/articles/2016/11/16/westworld-new-episode-images-show-bernard-getting-some-answers'
p1159
F1.2285872597958334e-06
sS'http://www.ign.com/articles/2016/12/06/top-comics-to-buy-this-week-december-7-2016'
p1160
F1.1895002338557458e-06
sS'http://www.ign.com/wikis/final-fantasy-15'
p1161
F6.737414005331989e-07
sS'http://www.ign.com/videos/series/ign-rewind-theater'
p1162
F1.1251272800235527e-06
sS'http://www.ign.com/articles/2016/12/07/sony-to-launch-smartphone-games-in-japan-based-on-classic-playstation-franchises'
p1163
F1.5616407490075214e-06
sS'http://www.ign.com/boards/forums/castlevania.5214/'
p1164
F4.7393859082890913e-07
sS'http://www.ign.com/games/kings-knight-wrath-of-the-dark-dragon/iphone-20059073'
p1165
F7.395525263484077e-07
sS'http://www.ign.com/boards/forums/final-fantasy.5026/'
p1166
F4.442196692917828e-07
sS'http://www.ign.com/articles/2016/07/13/pokemon-go-review?watch'
p1167
F8.925633938687678e-07
sS'https://www.youtube.com/watch?v=aAQEr-D0wT0'
p1168
F4.218215189632606e-08
sS'http://www.ign.com/articles/2015/05/12/the-witcher-3-the-wild-hunt-review?watch'
p1169
F5.245613617892718e-07
sS'http://www.ign.com/articles/2016/12/08/office-christmas-party-review?read'
p1170
F4.434066757535475e-07
sS'http://www.ign.com/boards/forums/xenosaga.6597/'
p1171
F4.845548152634767e-07
sS'http://www.ign.com/articles/2016/12/07/star-wars-battlefronts-vr-mission-might-be-my-favorite-psvr-experience'
p1172
F1.1204097652226154e-06
sS'http://www.ign.com/articles/2016/12/08/guitar-hero-skylanders-developer-vicarious-visions-working-on-destiny?read'
p1173
F1.3555244738814154e-06
sS'http://www.ign.com/articles/2016/11/23/watch-dogs-2-review?watch'
p1174
F7.511701352782297e-07
sS'http://www.ign.com/games/eagle-flight/ps4-20046733'
p1175
F7.163731745468314e-07
sS'http://www.ign.com/videos/2015/03/10/ori-and-the-blind-forest-review'
p1176
F2.8870043807404475e-07
sS'http://www.ign.com/games/sniper-elite-4/ps4-20050480'
p1177
F6.674308750185629e-07
sS'http://www.ign.com/articles/2016/12/09/hands-on-with-resident-evil-7-biohazard-collectors-edition?read'
p1178
F8.27732858325037e-07
sS'http://www.ign.com/boards/forums/mlb-sony-ce.5966/'
p1179
F4.793775378546465e-07
sS'http://www.ign.com/games/halo-wars-definitive-edition/xbox-one-20054807'
p1180
F6.402679905701331e-07
sS'https://twitter.com/Samuel_IGN'
p1181
F4.5201008886518347e-07
sS'http://www.ign.com/boards/forums/the-crosswalk.80237/'
p1182
F4.627146822607684e-07
sS'http://www.ign.com/wikis/resident-evil-7'
p1183
F6.008864276580812e-07
sS'http://www.ign.com/watch/alanah-pearce'
p1184
F8.702493090220486e-08
sS'http://www.ign.com/videos/2015/12/02/salt-and-sanctuary-currents-trailer'
p1185
F3.0730264793472645e-07
sS'http://www.ign.com/articles/2016/10/20/developers-respond-to-nintendo-switch'
p1186
F1.8689282440072713e-05
sS'http://www.ign.com/images/games/resident-evil-7-xbox-one-20054863'
p1187
F8.665143334468467e-07
sS'http://www.ign.com/boards/forums/titanfall.80213/'
p1188
F4.7356803680949636e-07
sS'http://www.ign.com/games/80s-overdrive/3ds-20052484'
p1189
F2.203857558809021e-06
sS'http://www.ign.com/boards/forums/mortal-kombat.6027/'
p1190
F4.697119186346226e-07
sS'http://www.ign.com/articles/2016/11/09/ign-anime-club-episode-71-britney-spears-is-a-weeaboo?watch'
p1191
F1.1853102134625162e-06
sS'http://www.ign.com/articles/2016/12/05/ash-vs-evil-dead-home-again-review'
p1192
F4.73198061780739e-07
sS'http://www.ign.com/games/strafe/pc-20030452'
p1193
F7.60443840652035e-07
sS'http://www.ign.com/articles/2016/05/28/overwatch-review?watch'
p1194
F4.8507222563749e-07
sS'http://www.ign.com/cheats/games/final-fantasy-xv-ps4-826846'
p1195
F7.088279919009313e-07
sS'http://www.ign.com/wikis/pokemon-sun-pokemon-moon/Evolutionary_Items'
p1196
F8.151998910892946e-07
sS'http://www.ign.com/videos/series/ign-movie-reviews'
p1197
F8.135574467150381e-07
sS'http://www.ign.com/videos/series'
p1198
F1.8579555799979934e-06
sS'http://www.ign.com/articles/2016/09/20/rez-infiniteas-new-area-explodes-on-ps-vr-with-sound-and-immersion'
p1199
F1.2420236208052205e-06
sS'http://www.ign.com/articles/2016/11/30/power-rangers-alpha-5-first-look-concept-art'
p1200
F1.2735355741786077e-06
sS'http://www.ign.com/games/potion-explosion/iphone-20061491'
p1201
F7.315139119315771e-07
sS'http://www.ign.com/articles/2016/10/12/here-they-lie-review'
p1202
F6.682900173733129e-07
sS'http://www.ign.com/videos/2016/12/08/8-things-the-elder-scrolls-series-needs-to-change'
p1203
F1.4580970608554306e-06
sS'http://www.ign.com/articles/2016/12/07/batman-the-telltale-series-episode-5-release-date-announced?watch'
p1204
F1.1519465939127916e-06
sS'http://www.ign.com/videos?page=2&filter=all'
p1205
F4.489389888173039e-06
sS'http://www.ign.com/articles/2016/12/09/arrow-how-did-that-thought-dead-character-come-back?abthid=584a04de983b546e1f000025'
p1206
F3.7844018686619546e-07
sS'http://www.ign.com/articles/2016/12/09/arrow-how-did-that-thought-dead-character-come-back?abthid=584a04de983b546e1f000024'
p1207
F3.7844018686619546e-07
sS'http://pk.ign.com/'
p1208
F7.932078563113488e-07
sS'http://www.ign.com/games/dead-rising-4/pc-20054801'
p1209
F6.692746067175093e-07
sS'http://www.ign.com/articles?tags=podcast'
p1210
F6.358987076948513e-07
sS'http://www.ign.com/wikis/ign-community-central/Community_Events'
p1211
F9.170227389543465e-07
sS'http://www.ign.com/articles/2016/12/07/playstation-4-hits-50-million-units-sold'
p1212
F1.2340943746522938e-06
sS'https://www.youtube.com/watch?v=NK0Jl-5ovp4'
p1213
F7.501668238633892e-07
sS'http://www.ign.com/articles/2015/10/23/sony-confirms-its-stopped-first-party-vita-development?watch'
p1214
F1.871735225832342e-06
sS'http://www.ign.com/articles/2016/12/07/batman-12-review-2'
p1215
F4.68803033343147e-07
sS'http://www.ign.com/videos/games/ys-origin-vita-20062331'
p1216
F9.289777899989967e-07
sS'http://www.ign.com/boards/forums/runescape.8375/'
p1217
F4.3890834715894625e-07
sS'http://www.ign.com/videos/2016/12/08/how-to-unlock-the-rarest-skins-in-titanfall-2-best-way-to-play'
p1218
F2.9690858778399304e-07
sS'http://www.ign.com/boards/forums/star-wars.5072/'
p1219
F4.525166373398176e-07
sS'http://www.ign.com/videos/2016/08/28/4-ways-legion-is-shaking-up-world-of-warcraft'
p1220
F2.938833183305899e-07
sS'http://www.ign.com/articles/2016/11/08/first-mass-effect-andromeda-story-details-revealed?watch'
p1221
F1.1814567992444979e-06
sS'http://www.ign.com/games/dynasty-warriors-godseekers/vita-20051953'
p1222
F6.910365306096359e-07
sS'http://www.ign.com/videos/2016/11/18/fireteam-chat-ep-95-destiny-2-and-trials-igns-destiny-show'
p1223
F4.081492716168099e-07
sS'http://www.ign.com/games/runbow/3ds-20054422'
p1224
F2.492565922137226e-06
sS'http://www.ign.com/articles/2016/12/03/psx-2016-the-last-of-us-part-2-announced?read'
p1225
F1.127920892140309e-06
sS'http://www.ign.com/articles/2016/11/28/star-wars-episode-8-luke-skywalker-lines-leak'
p1226
F1.2241178639437063e-06
sS'http://www.ign.com/videos/2016/12/03/the-last-of-us-part-2-uncharted-the-lost-legacy-ign-live-reacts'
p1227
F2.867867041095388e-07
sS'http://www.ign.com/blogs/simoncowellnetworth'
p1228
F7.902068089750108e-07
sS'http://www.ign.com/articles/2016/11/28/final-fantasy-xv-review?read'
p1229
F4.300782383995355e-07
sS'http://www.ign.com/articles/2016/12/06/rogue-one-director-gareth-edwards-on-which-other-star-wars-movie-hed-consider-making'
p1230
F1.1742797965865567e-06
sS'http://www.ign.com/blogs/ttdog666/2016/12/07/dec-7th-the-lost-guardian'
p1231
F9.827369157588089e-07
sS'http://www.ign.com/boards/forums/lego.7888/'
p1232
F4.79567315185547e-07
sS'http://www.ign.com/wikis/create?objectid=20060197'
p1233
F1.2065607949787765e-06
sS'http://www.ign.com/articles/2016/12/08/these-90s-batmobile-and-batwing-toys-are-spot-on-animated-series-replicas'
p1234
F1.1701961342336667e-06
sS'http://www.pcmag.com/'
p1235
F5.015472356058012e-08
sS'http://www.ign.com/videos/2015/06/26/gta-5-cinema-recreating-5-iconic-movie-scenes'
p1236
F4.081492716168099e-07
sS'http://www.ign.com/articles/2016/12/08/these-90s-batmobile-and-batwing-toys-are-spot-on-animated-series-replicas?watch'
p1237
F1.1765608373724667e-06
sS'http://www.ign.com/watch/ign-access'
p1238
F2.331383830174541e-07
sS'http://www.ign.com/games/resident-evil-7/xbox-one-20054863'
p1239
F6.882880898628929e-07
sS'http://www.ign.com/articles/2016/11/01/the-elder-scrolls-v-skyrim-special-edition-review'
p1240
F5.336506776029479e-07
sS'http://www.ign.com/articles/2016/12/05/the-walking-dead-sing-me-a-song-review'
p1241
F3.0637001470882444e-07
sS'http://www.ign.com/boards/threads/will-i3-6100-and-gtx-1060-3gb-bottleneck.454894657/'
p1242
F5.846462539375926e-07
sS'http://www.ign.com/wikis/the-last-guardian/Ign%3ANavigation'
p1243
F7.524143094153365e-07
sS'http://www.ign.com/boards/threads/yu-gi-oh-community-thread-brooklyn-rage-edition.453251199/page-185'
p1244
F6.36901702501941e-07
sS'http://www.ign.com/cheats/games/steep-xbox-one-20054838'
p1245
F7.575903928447102e-07
sS'http://www.ign.com/tech'
p1246
F4.262445595210034e-07
sS'http://www.ign.com/games/assassins-creed-the-ezio-collection/xbox-one-20058807'
p1247
F6.615986008512789e-07
sS'http://www.ign.com/games/apollo-justice-ace-attorney/android-20060197'
p1248
F1.0330190774519827e-06
sS'http://www.ign.com/wikis/steep'
p1249
F7.0388555384003e-07
sS'http://www.ign.com/articles/2016/12/08/south-park-the-end-of-serialization-as-we-know-it-review'
p1250
F4.1974602846801517e-07
sS'http://it.ign.com/'
p1251
F2.5719470024600674e-07
sS'http://www.ign.com/boards/forums/skateboarding.6295/'
p1252
F4.7375324136045823e-07
sS'http://www.ign.com/blogs/simoncowellnetworth/2016/12/08/know-about-the-simon-cowell-wiki'
p1253
F7.590144349365236e-07
sS'http://www.ign.com/videos/2016/03/15/salt-and-sanctuary-official-landfall-trailer'
p1254
F3.0714681494895836e-07
sS'http://www.ign.com/trailers/spider-man-homecoming-trailer-coming-soon-tease'
p1255
F3.109309646197874e-07
sS'http://www.ign.com/articles/2016/12/01/are-guns-in-video-games-holding-the-medium-back'
p1256
F7.622621684864659e-07
sS'http://www.ign.com/articles/2006/09/20/pokemon-mystery-dungeon-review'
p1257
F1.7820338907205338e-06
sS'http://www.ign.com/games/steep/pc-20054836'
p1258
F6.652317617565578e-07
sS'http://www.ign.com/boards/forums/movies-tv-and-tech.80003/'
p1259
F4.801375498052682e-07
sS'http://www.ign.com/boards/recent-activity/'
p1260
F9.923979012769183e-07
sS'http://www.ign.com/videos/games/resident-evil-7-xbox-one-20054863'
p1261
F6.471084605548568e-07
sS'http://www.ign.com/wikis/the-elder-scrolls-5-skyrim/Things_Not_to_Do_in_Skyrim'
p1262
F5.417652227901125e-07
sS'http://www.ign.com/videos/2016/12/08/naomi-plays-live-dead-rising-4'
p1263
F3.029982586690074e-07
sS'http://www.ign.com/games/star-wars-battlefront-vr-experience/ps4-20050948'
p1264
F7.31955914295282e-07
sS'http://www.ign.com/videos/2016/11/10/diablo-1996-vs-diablo-2016'
p1265
F2.880140366520903e-07
sS'http://hu.ign.com/'
p1266
F5.515078707756393e-07
sS'http://www.ign.com/blogs/jasonstanley2e/2016/12/07/scratch-map'
p1267
F8.246337904415873e-07
sS'http://www.ign.com/articles/2016/09/07/super-mario-run-coming-to-ios'
p1268
F4.300273475891699e-06
sS'http://www.ign.com/articles/2016/10/07/nycc-2016-cosplay-overwatch-zeldas-skull-kid-and-more?watch'
p1269
F1.4238211543943249e-06
sS'http://www.ign.com/wikis/black-friday-cyber-monday/Microsoft_Store_Black_Friday_2016_Deals'
p1270
F1.3527493446774894e-06
sS'https://www.youtube.com/watch?v=wZac0gK55YA'
p1271
F4.410496752926133e-08
sS'http://www.ign.com/boards/forums/dragon-age.7686/'
p1272
F4.643108616936343e-07
sS'http://www.ign.com/wikis/fallout-4'
p1273
F6.605163784943793e-07
sS'http://www.ign.com/articles/2016/10/25/world-of-final-fantasy-review?watch'
p1274
F6.060975841354362e-07
sS'http://www.ign.com/watch/naomi'
p1275
F8.675071885983183e-08
sS'http://www.ign.com/wikis/final-fantasy-15/Things_To_Do_First'
p1276
F5.308444514279981e-07
sS'http://www.ign.com/articles/2016/05/10/the-13-biggest-video-games-that-never-came-out'
p1277
F1.0832074856858644e-06
sS'http://www.ign.com/articles/2016/12/06/pokemon-go-will-reportedly-get-new-monsters-this-week'
p1278
F1.351491675149154e-06
sS'http://www.ign.com/cheats/games/dishonored-2-ps4-20038705'
p1279
F4.7430972519917453e-07
sS'http://www.ign.com/boards/forums/half-life.5220/'
p1280
F4.750537404543889e-07
sS'http://www.ign.com/wikis/pokemon-sun-pokemon-moon/New_Game_Mechanics_and_Features'
p1281
F9.427136483725228e-07
sS'http://www.ign.com/boards/threads/%C2%BB%C2%BB-the-official-theres-only-krane-here-now-so-dont-be-terrible-community-thread-%C2%AB%C2%AB.454533232/page-193'
p1282
F3.746944132875632e-07
sS'http://www.ign.com/boards/forums/apple-board.5146/'
p1283
F4.673561104007298e-07
sS'http://www.ign.com/games/treasurenauts/3ds-20006033'
p1284
F3.0532754584970175e-06
sS'http://www.ign.com/videos/2016/12/08/spider-man-homecoming-trailer-coming-soon-tease'
p1285
F2.999967900343466e-07
sS'http://www.ign.com/videos/2016/12/08/kingdom-hearts-hd-28-final-chapter-prologue-final-trailer'
p1286
F2.9488486810094736e-07
sS'http://www.ign.com/articles/2016/12/08/3-things-we-learned-about-nintendo-switch-last-night'
p1287
F5.0655371966014585e-06
sS'http://www.ign.com/videos/games/halo-wars-definitive-edition-pc-20054810'
p1288
F7.006287091721756e-07
sS'http://www.ign.com/games/the-dwarves/pc-20040456'
p1289
F9.691096305269533e-07
sS'http://www.ign.com/wikis/final-fantasy-15/Side_Quests'
p1290
F3.6764401765058927e-07
sS'http://www.ign.com/articles/2016/12/05/westworld-the-bicameral-mind-review'
p1291
F3.6708698126020963e-07
sS'http://www.ign.com/games/reviews/ps4'
p1292
F5.446884164382607e-07
sS'http://www.ign.com/wikis/playstation-4/PlayStation_VR_Games_Listed_by_Motion_Sickness_Potential'
p1293
F5.56703602094987e-07
sS'http://www.ign.com/articles/2016/09/07/super-mario-run-coming-to-ios?read'
p1294
F4.300273475891699e-06
sS'http://www.ign.com/videos/2016/12/08/the-last-of-us-part-2-theory-analysis-and-details-you-might-have-missed'
p1295
F2.903612267877976e-07
sS'http://www.ign.com/articles/2016/11/28/final-fantasy-xv-review?watch'
p1296
F4.307919765855945e-07
sS'https://twitter.com/jose_otero'
p1297
F4.2896141577857357e-07
sS'http://www.ign.com/cheats/games/steep-ps4-20054837'
p1298
F7.590144349365236e-07
sS'http://www.ign.com/boards/forums/metal-gear-solid.5200/'
p1299
F4.5506650569447473e-07
sS'http://in.ign.com/'
p1300
F1.8075008029822317e-07
sS'http://www.ign.com/boards/forums/devil-may-cry.5258/'
p1301
F4.5319380402495013e-07
sS'https://www.youtube.com/watch?v=xbZ0QhPeGms'
p1302
F8.768635817290565e-08
sS'http://www.ign.com/boards/threads/the-knicks-play-the-cavs-next-week-put-a-lot-of-stock-into-that-game.454892127/'
p1303
F5.241830541578068e-07
sS'http://www.ign.com/videos/2016/11/08/infamous-second-son-graphics-comparison-ps4-pro-vs-ps4'
p1304
F2.923231269687963e-07
sS'http://www.ign.com/articles/2016/12/08/future-pokemon-go-update-to-add-shiny-pokemon-and-more'
p1305
F1.1733698548611892e-06
sS'http://www.ign.com/boards/forums/harvest-moon.5828/'
p1306
F4.758000935422984e-07
sS'http://www.ign.com/videos/games/strafe-ps4-20062341'
p1307
F9.523483004392231e-07
sS'http://www.ign.com/games/pox-nora/vita-20055025'
p1308
F7.528819379482235e-07
sS'http://www.ign.com/blogs/jeriahking'
p1309
F3.9493165773484844e-07
sS'http://www.ign.com/movies/reviews'
p1310
F5.539035382527169e-07
sS'http://www.ign.com/boards/forums/pc.7203/'
p1311
F4.451992054974979e-07
sS'http://www.ign.com/videos/2016/07/13/pokemon-go-the-smartest-way-to-spend-10'
p1312
F1.1676019644903052e-06
sS'http://www.ign.com/boards/threads/pro-wrestling-board-fantasy-league-season-xv-anime-season.454876396/page-4'
p1313
F2.9925569124473607e-07
sS'http://www.ign.com/videos/2016/12/08/aqua-moto-racing-utopia-official-launch-trailer'
p1314
F3.0714681494895836e-07
sS'http://www.ign.com/videos/2016/12/02/dragon-ball-super-dub-clip-goku-and-king-kai'
p1315
F3.059058177168413e-07
sS'http://www.ign.com/cheats/games/sword-art-online-hollow-realization-ps4-20025059'
p1316
F7.337292781094438e-07
sS'http://www.ign.com/cheats/games/the-unspoken-pc-20052379'
p1317
F7.618786403513784e-07
sS'https://twitter.com/hashtag/NintendoSwitch?src=hash'
p1318
F3.200819409768901e-06
sS'http://www.ign.com/games/upcoming/pc'
p1319
F1.1799224397649594e-06
sS'http://www.ign.com/videos/2016/02/19/back-to-the-future-prequel-fan-made-trailer-121-gigawatts'
p1320
F4.602534339508707e-07
sS'http://www.ign.com/articles/2016/11/15/justice-league-dark-trailer-debut-for-r-rated-dc-animated-movie'
p1321
F1.4036929758501643e-06
sS'http://gr.ign.com/'
p1322
F1.0450713910661624e-06
sS'http://www.ign.com/articles/2016/11/30/oculus-co-founder-traditional-console-games-will-be-around-for-a-long-time-a-ign-unfiltered?watch'
p1323
F1.1449782969363817e-06
sS'http://www.ign.com/wikis/watch-dogs-2'
p1324
F7.206347639254562e-07
sS'http://www.ign.com/articles/2016/12/09/spider-man-homecoming-star-tom-holland-calls-vultures-debut-like-a-horror-movie?abthid=584a07217bb8cf2b2000002e&read'
p1325
F1.2147884458069513e-06
sS'http://www.ign.com/blogs/clinta13'
p1326
F2.4476703807617024e-06
sS'http://www.ign.com/articles/2015/12/31/final-fantasy-ix-announced-for-pc-and-mobile-in-japan'
p1327
F9.452146053048467e-07
sS'http://www.ign.com/articles/2016/09/24/iphone-7-plus-review'
p1328
F9.408100638076201e-07
sS'http://www.ign.com/boards/forums/other-sports.10753/'
p1329
F4.922336603651733e-07
sS'http://www.ign.com/boards/threads/have-you-ever-seen-disney-cartoons-in-terminator-version.454853929/'
p1330
F8.72128897162485e-07
sS'http://www.ign.com/wikis/game-of-thrones/Season_6_Differences'
p1331
F5.415230389623119e-07
sS'http://www.ign.com/boards/forums/dragon-ball.5653/'
p1332
F4.5903260256108057e-07
sS'https://www.youtube.com/watch?v=iVmqMe9Hpso&list=PLraFbwCoisJDET9N2S4Edc6UYR5WHq-fN'
p1333
F3.7088575046191036e-07
sS'http://www.ign.com/wikis/the-elder-scrolls-5-skyrim'
p1334
F6.436700521565843e-07
sS'http://www.ign.com/boards/forums/halo.5240/'
p1335
F4.682593885422078e-07
sS'http://www.ign.com/articles/2016/12/05/westworld-the-bicameral-mind-review?read'
p1336
F3.6708698126020963e-07
sS'https://www.youtube.com/watch?v=gVLnNm85W4s'
p1337
F4.379246034844522e-08
sS'http://www.ign.com/articles?tags=preview'
p1338
F6.467629675166533e-07
sS'https://www.youtube.com/watch?v=B2Sdg2JRTRQ'
p1339
F4.3964108229610644e-08
sS'http://www.ign.com/videos/2016/11/03/a-big-westworld-theory-is-looking-more-likely'
p1340
F3.1612396611656877e-07
sS'http://www.ign.com/blogs/chromaticsparks/2015/11/06/top-video-game-spies'
p1341
F9.313585634228793e-07
sS'http://www.ign.com/articles/2016/10/15/eve-valkyrie-review'
p1342
F6.14917278253143e-07
sS'http://www.ign.com/games/sword-art-online-hollow-realization/ps4-20025059'
p1343
F6.990115626997643e-07
sS'http://www.ign.com/articles/2016/12/02/the-dwarves-review'
p1344
F6.093496167800261e-07
sS'http://www.ign.com/games/reviews'
p1345
F1.8267361626692896e-06
sS'http://www.ign.com/blogs/pacquiaovsvargas/2016/12/06/13th-fina-world-swimming-championships-25m-2016-live-swimming-events-online-tv-score-schedule-preview-2016'
p1346
F5.660687094199494e-07
sS'http://www.ign.com/boards/forums/site-prime-article-comments-blog-myign-issues.9117/'
p1347
F4.767363392989735e-07
sS'http://www.ign.com/boards/forums/tiger-woods-golf.6470/'
p1348
F4.7209159710003577e-07
sS'http://www.ign.com/games'
p1349
F3.2217740376560947e-06
sS'http://www.ign.com/videos/2016/12/03/the-new-halo-tv-series-is-a-smart-move-unlocked'
p1350
F4.411460444860494e-07
sS'http://www.ign.com/videos/2016/03/23/dark-souls-prepare-to-try-episode-6-blighttown'
p1351
F4.338778789966661e-07
sS'http://www.ign.com/articles/2016/05/05/top-10-secret-bosses-in-video-games'
p1352
F1.0097296102775472e-06
sS'http://www.ign.com/boards/forums/mario-kart.5984/'
p1353
F7.156678051351073e-07
sS'http://www.ign.com/articles/2016/10/12/tumble-vr-review'
p1354
F6.782682184539147e-07
sS'http://www.ign.com/boards/forums/baseball.5104/'
p1355
F4.6077863756511667e-07
sS'http://www.ign.com/boards/forums/rock.5114/'
p1356
F4.861103684424927e-07
sS'http://www.ign.com/videos/games/ys-origin-ps4-20062330'
p1357
F9.289777899989967e-07
sS'http://www.ign.com/articles/2016/11/23/ign-anime-club-episode-73-anime-episodes-were-thankful-for?watch'
p1358
F1.1449782969363817e-06
sS'http://www.ign.com/boards/forums/red-dead-redemption.6186/'
p1359
F4.810909603489641e-07
sS'http://www.ign.com/articles/2016/11/10/pokemon-sun-and-moon-everything-you-need-to-know'
p1360
F2.0736472797612213e-06
sS'http://www.ign.com/boards/categories/gamespy.80130/'
p1361
F9.523483004392231e-07
sS'http://www.ign.com/games/danganronpa-v3/ps4-20042906'
p1362
F7.09658487497769e-07
sS'http://www.ign.com/boards/forums/the-sims.5219/'
p1363
F4.6377757969322044e-07
sS'https://www.youtube.com/watch?v=4Nn4qmHg6lM'
p1364
F4.459202820285252e-08
sS'http://www.ign.com/videos/2016/12/08/baywatch-official-teaser-trailer'
p1365
F3.1761589883552484e-07
sS'http://www.ign.com/boards/threads/thread-sign-up-and-ct-reference.454431239/page-7'
p1366
F9.63866198407616e-07
sS'http://www.ign.com/articles/2016/04/01/mlb-the-show-16-review'
p1367
F5.489669357214614e-07
sS'http://www.ign.com/videos/2016/12/02/star-wars-battlefront-rogue-one-x-wing-vr-full-mission-gameplay'
p1368
F8.573156674866892e-07
sS'http://www.ign.com/articles/2016/06/22/hunt-for-the-wilderpeople-review'
p1369
F4.405043775122515e-07
sS'http://www.ign.com/wikis/gta-5/Assassination_Investor'
p1370
F4.79567315185547e-07
sS'http://www.ign.com/articles/2016/12/03/psx-2016-the-last-of-us-part-2-announced?watch'
p1371
F1.1346825010853238e-06
sS'http://www.ign.com/boards/forums/nintendo-lobby.80041/index.rss'
p1372
F1.022118827657901e-05
sS'http://www.ign.com/blogs/jr8zeppelin'
p1373
F3.4695318291814165e-07
sS'http://www.ign.com/boards/forums/sly-cooper.6301/'
p1374
F4.756132854961491e-07
sS'http://www.ign.com/boards/threads/what-books-are-you-reading-now.453885641/page-12'
p1375
F3.8310785520515233e-07
sS'http://www.ign.com/games/mario-maker/3ds-20058267'
p1376
F5.182773979572269e-06
sS'http://www.ign.com/wikis/create?objectid=20025059'
p1377
F1.2065607949787765e-06
sS'http://www.ign.com/games/gigantic/pc-20021620'
p1378
F6.565783404654156e-07
sS'http://www.ign.com/videos/2016/12/06/join-the-ghost-recon-wildlands-beta-ign-daily-fix'
p1379
F7.790270341856538e-07
sS'http://www.ign.com/games/death-stranding/ps4-20047134'
p1380
F7.500848533490352e-07
sS'http://www.ign.com/boards/forums/college-football.8546/'
p1381
F4.475016764531554e-07
sS'http://www.ign.com/trailers/dragon-ball-z-resurrection-f-official-trailer'
p1382
F3.0997621242545845e-07
sS'http://www.ign.com/boards/forums/jak-and-daxter.5885/'
p1383
F4.675364871318764e-07
sS'http://www.ign.com/wikis/ign-community-central/Beginner_Tips_for_Writing'
p1384
F6.505838013741631e-07
s.