(dp0
S'53.html'
p1
F1.315625020556641e-06
sS'1559.html'
p2
F1.57074016837078e-07
sS'771.html'
p3
F9.205068679017415e-06
sS'1828.html'
p4
F7.052409984802057e-07
sS'26.html'
p5
F8.864140209424177e-07
sS'436.html'
p6
F5.858642669666292e-07
sS'85.html'
p7
F1.344721330036973e-06
sS'59.html'
p8
F8.913307389666624e-07
sS'922.html'
p9
F1.3671115612249977e-06
sS'1658.html'
p10
F1.1958955906612033e-07
sS'120.html'
p11
F1.3759747921418078e-06
sS'255.html'
p12
F6.590973003374578e-06
sS'427.html'
p13
F1.1137221708672554e-06
sS'1396.html'
p14
F7.83874141167894e-07
sS'1761.html'
p15
F8.515211147433218e-07
sS'708.html'
p16
F6.793623710652567e-06
sS'1485.html'
p17
F7.81586570717015e-08
sS'1013.html'
p18
F1.0999276980859793e-06
sS'87.html'
p19
F2.7678626785825e-07
sS'124.html'
p20
F8.391341981170668e-07
sS'732.html'
p21
F5.30755573361549e-06
sS'1253.html'
p22
F5.914087237518023e-07
sS'1180.html'
p23
F4.2098031159278745e-07
sS'1833.html'
p24
F7.95515836333754e-07
sS'1209.html'
p25
F6.588399409855103e-07
sS'606.html'
p26
F9.265728110180627e-07
sS'710.html'
p27
F5.898580978374032e-07
sS'799.html'
p28
F1.021206892942286e-06
sS'1865.html'
p29
F5.378670987771412e-07
sS'1754.html'
p30
F1.2306995542406213e-06
sS'1857.html'
p31
F8.266972507907359e-07
sS'614.html'
p32
F6.610339231592133e-06
sS'1271.html'
p33
F4.513881992680289e-07
sS'1947.html'
p34
F8.25282019498113e-07
sS'1875.html'
p35
F5.503225991075969e-07
sS'475.html'
p36
F7.996630752909441e-06
sS'1806.html'
p37
F6.490821653640669e-07
sS'1888.html'
p38
F5.315970664347486e-07
sS'737.html'
p39
F8.726605062652661e-07
sS'709.html'
p40
F5.898580978374032e-07
sS'1931.html'
p41
F8.350849239613422e-07
sS'1757.html'
p42
F8.508769989227897e-07
sS'1101.html'
p43
F6.498321158728642e-07
sS'315.html'
p44
F6.69160852216495e-07
sS'1918.html'
p45
F5.533002422901761e-07
sS'1184.html'
p46
F4.321396052923273e-07
sS'696.html'
p47
F8.580163177543311e-07
sS'1943.html'
p48
F4.3380616759580717e-07
sS'1001.html'
p49
F6.365927518822456e-07
sS'510.html'
p50
F6.991046566662076e-07
sS'1278.html'
p51
F7.342424233524334e-07
sS'147.html'
p52
F6.405805196901639e-07
sS'554.html'
p53
F5.400189114622794e-07
sS'1819.html'
p54
F8.228671489216737e-07
sS'1765.html'
p55
F2.658613548985885e-07
sS'1993.html'
p56
F5.733228300590867e-07
sS'536.html'
p57
F6.427767957576732e-07
sS'1386.html'
p58
F7.337634654767958e-07
sS'419.html'
p59
F6.482094079384909e-07
sS'1893.html'
p60
F7.157870776811505e-07
sS'1324.html'
p61
F4.087425118371831e-07
sS'1157.html'
p62
F4.400858343411299e-07
sS'1756.html'
p63
F3.486854905691035e-07
sS'1355.html'
p64
F4.5651761062334745e-07
sS'464.html'
p65
F9.630645484382945e-07
sS'519.html'
p66
F8.098339759365932e-07
sS'1008.html'
p67
F1.1203778810517211e-06
sS'32.html'
p68
F1.2903991720798912e-06
sS'790.html'
p69
F6.610339231592133e-06
sS'1693.html'
p70
F1.3795185094136963e-07
sS'976.html'
p71
F6.409455228352865e-07
sS'484.html'
p72
F9.319464727223926e-07
sS'1192.html'
p73
F4.2256175528772656e-07
sS'754.html'
p74
F8.639473061259047e-07
sS'1148.html'
p75
F4.278658777390369e-07
sS'1919.html'
p76
F5.065413055730688e-07
sS'1446.html'
p77
F1.1818232744021096e-07
sS'1717.html'
p78
F1.7883297179267535e-07
sS'794.html'
p79
F7.960788340947827e-07
sS'524.html'
p80
F8.289310188474046e-07
sS'556.html'
p81
F5.229471839032673e-07
sS'1362.html'
p82
F8.069292629669498e-07
sS'471.html'
p83
F6.17027259890386e-06
sS'1313.html'
p84
F6.879873960709039e-07
sS'1571.html'
p85
F8.267985244953532e-08
sS'14.html'
p86
F2.0171916071625707e-06
sS'1185.html'
p87
F4.18163342965029e-07
sS'1227.html'
p88
F6.663858960757868e-07
sS'624.html'
p89
F1.4608563539947117e-06
sS'80.html'
p90
F9.607613534129894e-07
sS'1323.html'
p91
F6.863921116523846e-07
sS'1204.html'
p92
F4.358230889484417e-07
sS'986.html'
p93
F1.0133868401584937e-06
sS'466.html'
p94
F7.287718772762734e-07
sS'21.html'
p95
F9.936920429115972e-07
sS'1364.html'
p96
F4.426837436347611e-07
sS'477.html'
p97
F5.707049175930634e-07
sS'1539.html'
p98
F2.7551512891456204e-07
sS'1803.html'
p99
F9.130352212466949e-07
sS'802.html'
p100
F8.493778448849193e-07
sS'550.html'
p101
F7.569713274400592e-07
sS'1465.html'
p102
F7.7993911732855e-09
sS'1316.html'
p103
F8.388213218314153e-07
sS'142.html'
p104
F6.771317029369869e-06
sS'1156.html'
p105
F1.0976379708976658e-06
sS'1892.html'
p106
F7.157870776811505e-07
sS'1519.html'
p107
F1.5620877552783334e-07
sS'1283.html'
p108
F8.098339759365932e-07
sS'1197.html'
p109
F4.2933564602134654e-07
sS'465.html'
p110
F6.17027259890386e-06
sS'1354.html'
p111
F8.289310188474046e-07
sS'619.html'
p112
F6.362326881085566e-07
sS'1128.html'
p113
F6.420430322921963e-07
sS'741.html'
p114
F5.681108043312767e-07
sS'1795.html'
p115
F5.966368772503154e-07
sS'716.html'
p116
F6.858898735219073e-06
sS'669.html'
p117
F6.294680428516665e-07
sS'856.html'
p118
F1.057198677233015e-06
sS'1814.html'
p119
F5.333614948202598e-07
sS'1521.html'
p120
F1.1732766072344706e-07
sS'20.html'
p121
F9.450563617074792e-06
sS'449.html'
p122
F7.493511867641268e-06
sS'1338.html'
p123
F4.4250959582058537e-07
sS'945.html'
p124
F6.380370916482859e-07
sS'4.html'
p125
F9.184025086348204e-07
sS'1961.html'
p126
F8.639473061259047e-07
sS'941.html'
p127
F8.046204524863577e-07
sS'1279.html'
p128
F2.4316026644529356e-07
sS'1810.html'
p129
F5.439358764873926e-07
sS'1593.html'
p130
F2.774690164222812e-07
sS'431.html'
p131
F5.550293055473329e-06
sS'42.html'
p132
F4.3649957026617306e-07
sS'1188.html'
p133
F6.410672830029985e-07
sS'775.html'
p134
F8.969123900352595e-06
sS'332.html'
p135
F5.415789083177313e-07
sS'478.html'
p136
F6.310571627354435e-06
sS'750.html'
p137
F8.692885568592952e-07
sS'1327.html'
p138
F5.899612198824797e-07
sS'58.html'
p139
F8.913307389666624e-07
sS'441.html'
p140
F5.357748952493108e-07
sS'1330.html'
p141
F2.2761217980087577e-07
sS'184.html'
p142
F5.76850970551758e-07
sS'1407.html'
p143
F5.744940717956732e-07
sS'899.html'
p144
F9.71940719391643e-07
sS'746.html'
p145
F8.966595397177585e-07
sS'385.html'
p146
F1.0627923210278987e-06
sS'212.html'
p147
F9.016908958524473e-07
sS'1797.html'
p148
F6.821463872504111e-07
sS'714.html'
p149
F5.768509705517579e-06
sS'939.html'
p150
F5.579659685396468e-07
sS'969.html'
p151
F1.1159319370792936e-06
sS'423.html'
p152
F7.977726188481759e-07
sS'1392.html'
p153
F1.4879092494390582e-06
sS'1091.html'
p154
F4.316421306891512e-07
sS'517.html'
p155
F5.400189114622794e-07
sS'1006.html'
p156
F1.2939333503557454e-06
sS'755.html'
p157
F8.639473061259047e-07
sS'538.html'
p158
F7.725682641318188e-07
sS'1043.html'
p159
F4.2835468110279055e-07
sS'135.html'
p160
F5.4412723475528614e-06
sS'1643.html'
p161
F1.197168361617633e-07
sS'1477.html'
p162
F8.16476295692769e-08
sS'717.html'
p163
F6.71808521135306e-06
sS'1794.html'
p164
F1.1093287895226115e-06
sS'1604.html'
p165
F3.6937151682659634e-07
sS'1779.html'
p166
F3.611105594144231e-07
sS'676.html'
p167
F6.922211646621096e-07
sS'1099.html'
p168
F4.015920716086855e-07
sS'1546.html'
p169
F8.195099756490806e-08
sS'213.html'
p170
F5.372980149438177e-06
sS'7.html'
p171
F2.184900082698468e-06
sS'998.html'
p172
F1.1203778810517211e-06
sS'1670.html'
p173
F1.2069306787295365e-07
sS'250.html'
p174
F5.6318060375964355e-06
sS'39.html'
p175
F1.4936388163270855e-07
sS'1588.html'
p176
F7.986275660619449e-06
sS'548.html'
p177
F8.319965921419586e-07
sS'450.html'
p178
F9.100804147054434e-07
sS'1347.html'
p179
F8.815512481002571e-07
sS'777.html'
p180
F6.362326881085566e-07
sS'61.html'
p181
F1.2929418305470436e-06
sS'955.html'
p182
F8.204663694937477e-07
sS'337.html'
p183
F1.0021019087536108e-06
sS'1236.html'
p184
F6.413109421755576e-07
sS'1105.html'
p185
F3.9468750616699223e-07
sS'1936.html'
p186
F5.292625749259385e-07
sS'1953.html'
p187
F1.2379230292471695e-06
sS'1433.html'
p188
F1.8513156559840817e-06
sS'1762.html'
p189
F1.497018089667192e-07
sS'47.html'
p190
F6.947865303124942e-07
sS'1263.html'
p191
F1.5062391437813713e-07
sS'660.html'
p192
F1.0894521961994461e-06
sS'898.html'
p193
F2.1478493584373965e-06
sS'1620.html'
p194
F1.6995256737146374e-07
sS'742.html'
p195
F9.118509991698509e-07
sS'968.html'
p196
F6.409455228352865e-07
sS'1034.html'
p197
F6.246905179059208e-07
sS'507.html'
p198
F6.270119245127803e-07
sS'1616.html'
p199
F1.5526009559364087e-07
sS'1431.html'
p200
F5.83736062571836e-07
sS'399.html'
p201
F1.4100399781584807e-06
sS'1822.html'
p202
F8.857160571464e-07
sS'317.html'
p203
F1.1254221036277417e-06
sS'1711.html'
p204
F1.5662202625674297e-07
sS'792.html'
p205
F9.04955263536547e-07
sS'1078.html'
p206
F7.144232407595605e-07
sS'599.html'
p207
F8.225662834193258e-07
sS'1088.html'
p208
F6.045464309795385e-07
sS'1117.html'
p209
F5.428858072277645e-07
sS'1484.html'
p210
F7.828376314120176e-08
sS'438.html'
p211
F6.218128206610989e-07
sS'587.html'
p212
F7.074587374691371e-06
sS'805.html'
p213
F7.803593078783934e-06
sS'826.html'
p214
F1.0878717529747852e-06
sS'1032.html'
p215
F8.797127679165235e-07
sS'1530.html'
p216
F1.379856958508253e-07
sS'999.html'
p217
F1.290963342665564e-06
sS'840.html'
p218
F1.208486670150331e-06
sS'497.html'
p219
F5.560352904478141e-07
sS'1662.html'
p220
F1.1099855857271837e-07
sS'1906.html'
p221
F5.532095373324236e-07
sS'1531.html'
p222
F1.3883724914538732e-07
sS'150.html'
p223
F6.245748987095659e-07
sS'1677.html'
p224
F1.2296232975250634e-07
sS'1047.html'
p225
F1.1203778810517211e-06
sS'19.html'
p226
F3.7308769239665937e-06
sS'1948.html'
p227
F8.25282019498113e-07
sS'1966.html'
p228
F7.849681734654068e-07
sS'1442.html'
p229
F2.079222537108924e-07
sS'101.html'
p230
F5.397597853051478e-07
sS'762.html'
p231
F8.505553062955978e-07
sS'545.html'
p232
F6.319434789752404e-06
sS'665.html'
p233
F1.1847751652168969e-06
sS'1266.html'
p234
F6.133366371733522e-07
sS'531.html'
p235
F8.5998424508863e-07
sS'977.html'
p236
F1.116670475753734e-06
sS'469.html'
p237
F6.485038426800423e-06
sS'1358.html'
p238
F4.358230889484417e-07
sS'965.html'
p239
F1.1203778810517211e-06
sS'146.html'
p240
F5.701264027247481e-07
sS'873.html'
p241
F1.0370553711517468e-06
sS'1042.html'
p242
F5.553946967952245e-07
sS'811.html'
p243
F9.610897065754682e-07
sS'1464.html'
p244
F3.4579139027848997e-07
sS'916.html'
p245
F2.328212817277202e-06
sS'208.html'
p246
F3.968597913406463e-07
sS'1141.html'
p247
F4.354856339821634e-07
sS'231.html'
p248
F7.597834465220723e-06
sS'609.html'
p249
F8.369489528094702e-07
sS'1206.html'
p250
F4.456653694833312e-07
sS'1816.html'
p251
F6.362326881085566e-07
sS'346.html'
p252
F5.701264027247481e-07
sS'855.html'
p253
F9.804120214200418e-07
sS'1133.html'
p254
F1.333298371287153e-06
sS'1325.html'
p255
F6.743761346378465e-07
sS'1565.html'
p256
F4.6109687677929145e-07
sS'1869.html'
p257
F5.315970664347486e-07
sS'1016.html'
p258
F1.326485132754632e-06
sS'529.html'
p259
F5.599101008342101e-07
sS'891.html'
p260
F7.610686012015751e-07
sS'1621.html'
p261
F5.8868504949546165e-08
sS'225.html'
p262
F4.8045249015522815e-06
sS'396.html'
p263
F7.849681734654068e-07
sS'582.html'
p264
F8.899204055189303e-07
sS'244.html'
p265
F7.65210471140087e-07
sS'1140.html'
p266
F4.2966363352785637e-07
sS'520.html'
p267
F5.726296621449204e-06
sS'1100.html'
p268
F5.37695694347958e-07
sS'869.html'
p269
F1.5417480709648136e-06
sS'88.html'
p270
F5.492477502812149e-07
sS'515.html'
p271
F5.441990288224132e-07
sS'1004.html'
p272
F8.186749582066434e-07
sS'559.html'
p273
F5.229471839032673e-07
sS'844.html'
p274
F6.529756535850975e-06
sS'1064.html'
p275
F5.904773714309334e-07
sS'55.html'
p276
F2.9884680992984273e-06
sS'541.html'
p277
F5.6074745392618545e-06
sS'852.html'
p278
F9.804120214200418e-07
sS'1326.html'
p279
F7.45433659758733e-07
sS'144.html'
p280
F6.56300564975347e-06
sS'819.html'
p281
F2.4044019791434157e-06
sS'1059.html'
p282
F6.597415792234181e-07
sS'123.html'
p283
F8.444890334654114e-07
sS'382.html'
p284
F1.1847751652168969e-06
sS'528.html'
p285
F5.704155134766369e-07
sS'1017.html'
p286
F1.4247744047826828e-06
sS'1229.html'
p287
F4.3991372412042546e-07
sS'90.html'
p288
F5.52484966884051e-07
sS'876.html'
p289
F1.0013585097115085e-06
sS'1798.html'
p290
F6.735684985484598e-07
sS'900.html'
p291
F1.0232195808756168e-06
sS'1523.html'
p292
F7.845301942920407e-08
sS'445.html'
p293
F5.357748952493108e-07
sS'1109.html'
p294
F7.717731681481495e-07
sS'137.html'
p295
F5.847567730782234e-06
sS'304.html'
p296
F4.266891958562079e-06
sS'841.html'
p297
F1.208486670150331e-06
sS'153.html'
p298
F9.307897332030848e-07
sS'233.html'
p299
F9.197542048862862e-07
sS'544.html'
p300
F6.879032488844961e-06
sS'558.html'
p301
F5.229471839032673e-07
sS'902.html'
p302
F9.71940719391643e-07
sS'1876.html'
p303
F9.197542048862862e-07
sS'1829.html'
p304
F8.145252661664938e-07
sS'1014.html'
p305
F8.483102508114088e-07
sS'506.html'
p306
F6.416767784232333e-07
sS'1035.html'
p307
F4.5862709672842946e-07
sS'51.html'
p308
F1.3717797470438147e-06
sS'654.html'
p309
F8.716461778968834e-07
sS'1507.html'
p310
F4.0814927161680986e-08
sS'740.html'
p311
F1.4597730344885976e-06
sS'1859.html'
p312
F1.998684066410675e-06
sS'990.html'
p313
F1.1042467859056884e-06
sS'1708.html'
p314
F1.7348232457987786e-07
sS'295.html'
p315
F6.3401165763370485e-06
sS'1126.html'
p316
F3.8321351098430435e-07
sS'894.html'
p317
F7.586731514675774e-07
sS'672.html'
p318
F6.867273458949499e-07
sS'628.html'
p319
F7.986222169513156e-07
sS'838.html'
p320
F9.020524399165421e-07
sS'511.html'
p321
F1.69279065850403e-06
sS'1000.html'
p322
F8.369489528094702e-07
sS'413.html'
p323
F9.156364611932665e-07
sS'1452.html'
p324
F9.097859855838952e-08
sS'263.html'
p325
F5.528002721917211e-06
sS'1218.html'
p326
F6.113366263999609e-07
sS'1015.html'
p327
F7.294807993358806e-07
sS'807.html'
p328
F8.397606514191326e-06
sS'1926.html'
p329
F8.567093622055811e-07
sS'1475.html'
p330
F5.415789083177313e-07
sS'333.html'
p331
F1.127113619815559e-06
sS'863.html'
p332
F2.1038517317504888e-06
sS'1050.html'
p333
F1.2554234292142054e-06
sS'743.html'
p334
F1.1790978957818952e-06
sS'1605.html'
p335
F4.109525765658074e-07
sS'1094.html'
p336
F8.906250139160158e-07
sS'1977.html'
p337
F6.596126226989415e-07
sS'1054.html'
p338
F1.0480056452570758e-06
sS'1505.html'
p339
F4.094268736172119e-08
sS'1116.html'
p340
F4.133992622476766e-07
sS'1124.html'
p341
F6.620714494266791e-07
sS'11.html'
p342
F1.6520454525429752e-06
sS'50.html'
p343
F5.52484966884051e-07
sS'1009.html'
p344
F1.2939333503557454e-06
sS'518.html'
p345
F7.001925879713216e-07
sS'433.html'
p346
F9.104077817610928e-06
sS'1272.html'
p347
F3.8895552993635135e-07
sS'1304.html'
p348
F4.5265971532230504e-07
sS'1033.html'
p349
F6.565327194022926e-07
sS'1872.html'
p350
F5.505021497108946e-07
sS'459.html'
p351
F1.0992111328103532e-06
sS'1131.html'
p352
F4.281916226021805e-07
sS'365.html'
p353
F5.285993386165075e-07
sS'501.html'
p354
F6.211261140673264e-07
sS'908.html'
p355
F5.520577030786083e-06
sS'1846.html'
p356
F8.295423249085015e-07
sS'810.html'
p357
F4.387982807005766e-07
sS'1860.html'
p358
F7.243138393920979e-07
sS'1679.html'
p359
F1.2399243745325483e-07
sS'1973.html'
p360
F7.579915044312184e-07
sS'1629.html'
p361
F3.318169299634006e-07
sS'1776.html'
p362
F3.4922675957029744e-07
sS'772.html'
p363
F9.396747166995323e-06
sS'1122.html'
p364
F4.018311714369831e-07
sS'1652.html'
p365
F1.1936114097792104e-07
sS'95.html'
p366
F1.1731950277179059e-06
sS'1219.html'
p367
F8.593272670557127e-07
sS'803.html'
p368
F6.157989375415665e-06
sS'417.html'
p369
F9.307897332030848e-07
sS'355.html'
p370
F9.815526985828343e-07
sS'1895.html'
p371
F5.22542300670143e-07
sS'721.html'
p372
F8.853674872695222e-07
sS'1339.html'
p373
F7.494066572790992e-07
sS'448.html'
p374
F7.312421757087199e-06
sS'602.html'
p375
F8.225662834193258e-07
sS'1081.html'
p376
F1.0106553392416244e-06
sS'590.html'
p377
F8.952323060691827e-07
sS'561.html'
p378
F9.332351155220641e-07
sS'1439.html'
p379
F2.5933357753911887e-06
sS'1349.html'
p380
F6.578125102783205e-07
sS'1786.html'
p381
F5.302605558968862e-07
sS'661.html'
p382
F8.329206905412278e-07
sS'1262.html'
p383
F3.4793052662416584e-07
sS'835.html'
p384
F9.100804147054434e-07
sS'1600.html'
p385
F4.5007468784865445e-07
sS'1897.html'
p386
F5.414920054120321e-07
sS'411.html'
p387
F9.223939258515194e-07
sS'1967.html'
p388
F7.849681734654068e-07
sS'824.html'
p389
F7.686090827303915e-07
sS'692.html'
p390
F8.723221346071562e-07
sS'1541.html'
p391
F4.0755775093330725e-08
sS'1861.html'
p392
F7.243138393920979e-07
sS'831.html'
p393
F8.11001725000669e-07
sS'1130.html'
p394
F4.280286881947975e-07
sS'586.html'
p395
F6.880552717019291e-06
sS'1178.html'
p396
F4.197236539462418e-07
sS'1090.html'
p397
F4.585647747965463e-07
sS'1760.html'
p398
F8.121728466252187e-07
sS'1589.html'
p399
F5.780791240020187e-07
sS'89.html'
p400
F5.492477502812149e-07
sS'1066.html'
p401
F3.993220126566648e-06
sS'597.html'
p402
F5.457833054710956e-07
sS'86.html'
p403
F1.3471369970969197e-06
sS'563.html'
p404
F8.751499423567904e-07
sS'1832.html'
p405
F8.228671489216737e-07
sS'151.html'
p406
F3.0205676492371855e-07
sS'1599.html'
p407
F5.10443036284804e-07
sS'947.html'
p408
F7.9947362656427e-07
sS'1579.html'
p409
F4.1164436528431825e-08
sS'688.html'
p410
F7.032568881374979e-07
sS'1764.html'
p411
F7.176738904950515e-06
sS'323.html'
p412
F5.369257243799179e-07
sS'1414.html'
p413
F5.361579564232259e-07
sS'983.html'
p414
F6.365927518822456e-07
sS'1095.html'
p415
F4.129439767165668e-07
sS'205.html'
p416
F8.746962617231166e-07
sS'77.html'
p417
F3.861876815959803e-06
sS'1436.html'
p418
F8.515211147433218e-07
sS'300.html'
p419
F1.3878585966390229e-06
sS'725.html'
p420
F9.12664821562619e-07
sS'643.html'
p421
F7.158629990937173e-07
sS'1244.html'
p422
F1.069257977733772e-06
sS'1610.html'
p423
F5.334977053442927e-07
sS'1381.html'
p424
F1.706141957494203e-07
sS'560.html'
p425
F5.219765162765327e-07
sS'776.html'
p426
F6.9750809279511565e-06
sS'1820.html'
p427
F5.341212690294056e-07
sS'1207.html'
p428
F6.624613619410648e-07
sS'467.html'
p429
F7.996630752909441e-06
sS'1356.html'
p430
F8.210652500554219e-07
sS'882.html'
p431
F1.0351466802845963e-06
sS'1607.html'
p432
F8.232887305686365e-07
sS'1789.html'
p433
F6.96507363824104e-07
sS'975.html'
p434
F6.438805910566273e-07
sS'392.html'
p435
F1.54702544822484e-06
sS'943.html'
p436
F9.753116120600531e-07
sS'723.html'
p437
F8.529416079586958e-07
sS'152.html'
p438
F7.366466225120682e-07
sS'584.html'
p439
F5.848199456351379e-06
sS'0.html'
p440
F8.215449843528542e-07
sS'1981.html'
p441
F5.326038790605719e-07
sS'773.html'
p442
F7.952346359674288e-06
sS'1280.html'
p443
F8.850191916411707e-07
sS'1007.html'
p444
F8.666097015222866e-07
sS'516.html'
p445
F5.387257627279348e-07
sS'1885.html'
p446
F5.148097906525986e-07
sS'981.html'
p447
F1.1013636350286501e-06
sS'1069.html'
p448
F8.960643063536336e-07
sS'113.html'
p449
F9.11555423481303e-07
sS'94.html'
p450
F1.3717797470438147e-06
sS'1625.html'
p451
F7.168362175477492e-08
sS'890.html'
p452
F1.0031445237002926e-06
sS'457.html'
p453
F1.0992111328103532e-06
sS'1193.html'
p454
F1.0899800315658216e-06
sS'687.html'
p455
F6.793623710652567e-06
sS'1576.html'
p456
F8.173662204446504e-08
sS'84.html'
p457
F1.1717285339332584e-06
sS'1082.html'
p458
F7.768365970828232e-07
sS'1463.html'
p459
F1.29116091893472e-07
sS'494.html'
p460
F6.18054611305455e-07
sS'798.html'
p461
F1.021206892942286e-06
sS'1656.html'
p462
F1.2113497658582037e-07
sS'861.html'
p463
F1.1203778810517211e-06
sS'885.html'
p464
F9.872961315762972e-07
sS'1179.html'
p465
F8.753769592030569e-07
sS'281.html'
p466
F8.948762072998632e-07
sS'1052.html'
p467
F8.086695848856421e-07
sS'1427.html'
p468
F2.4162810953227725e-07
sS'307.html'
p469
F5.52484966884051e-07
sS'1959.html'
p470
F8.746962617231166e-07
sS'1011.html'
p471
F7.061264234626039e-07
sS'1522.html'
p472
F1.1719726949113649e-07
sS'49.html'
p473
F9.450563617074792e-06
sS'487.html'
p474
F9.242887367098833e-07
sS'141.html'
p475
F6.573853592976203e-06
sS'1210.html'
p476
F4.192543393872262e-07
sS'635.html'
p477
F2.453728808984573e-06
sS'1471.html'
p478
F1.0346096012089334e-06
sS'1171.html'
p479
F6.62721558862487e-07
sS'987.html'
p480
F8.369489528094702e-07
sS'1914.html'
p481
F8.057732038509513e-07
sS'1549.html'
p482
F4.099939468493687e-08
sS'1935.html'
p483
F5.292625749259385e-07
sS'768.html'
p484
F1.0034428122889635e-06
sS'1592.html'
p485
F6.143639269093694e-07
sS'942.html'
p486
F6.380370916482859e-07
sS'1261.html'
p487
F4.121873919296182e-07
sS'715.html'
p488
F6.3936683928150515e-06
sS'1796.html'
p489
F5.582428747275077e-07
sS'1873.html'
p490
F5.505021497108946e-07
sS'1942.html'
p491
F8.295423249085015e-07
sS'1189.html'
p492
F4.169234220073862e-07
sS'91.html'
p493
F1.2053786890012087e-06
sS'1844.html'
p494
F9.220158955540394e-07
sS'331.html'
p495
F5.415789083177313e-07
sS'1596.html'
p496
F6.585827825385995e-07
sS'1.html'
p497
F5.445134473743562e-06
sS'573.html'
p498
F6.821463872504111e-07
sS'1420.html'
p499
F8.899204055189303e-07
sS'892.html'
p500
F1.5754333229354735e-06
sS'452.html'
p501
F8.713085922354207e-07
sS'1345.html'
p502
F8.006116673138278e-07
sS'278.html'
p503
F1.110789393590449e-06
sS'1139.html'
p504
F8.746962617231166e-07
sS'1107.html'
p505
F1.6821585054223538e-07
sS'1494.html'
p506
F4.113733881567905e-08
sS'569.html'
p507
F6.56277358562385e-07
sS'823.html'
p508
F8.557317554780738e-07
sS'1196.html'
p509
F1.0770388668861815e-06
sS'1640.html'
p510
F1.29116091893472e-07
sS'804.html'
p511
F7.290755322251385e-06
sS'495.html'
p512
F6.18054611305455e-07
sS'1780.html'
p513
F1.6124704595411813e-07
sS'765.html'
p514
F9.396747166995323e-06
sS'1437.html'
p515
F8.145252661664938e-07
sS'881.html'
p516
F9.736232480461003e-07
sS'1818.html'
p517
F5.484443649809498e-07
sS'1653.html'
p518
F1.227744370853447e-07
sS'1642.html'
p519
F1.1741747312901128e-07
sS'69.html'
p520
F1.3469065597043271e-06
sS'627.html'
p521
F2.620828034892656e-06
sS'1224.html'
p522
F1.1041022699017746e-06
sS'1329.html'
p523
F6.047631142881333e-07
sS'1288.html'
p524
F4.164603452706139e-07
sS'837.html'
p525
F9.020524399165421e-07
sS'1270.html'
p526
F4.4443279042905096e-07
sS'615.html'
p527
F6.982986651322718e-06
sS'862.html'
p528
F1.0611881062037057e-06
sS'704.html'
p529
F5.560352904478141e-07
sS'523.html'
p530
F7.464229545958381e-07
sS'169.html'
p531
F9.704234345614365e-07
sS'219.html'
p532
F5.096150460599344e-06
sS'1927.html'
p533
F8.438555083090233e-07
sS'1880.html'
p534
F5.511315005271572e-07
sS'959.html'
p535
F8.210652500554219e-07
sS'923.html'
p536
F6.606456886702789e-07
sS'312.html'
p537
F7.418693438258387e-06
sS'1989.html'
p538
F5.783338779310684e-07
sS'239.html'
p539
F7.667753187293307e-07
sS'1174.html'
p540
F4.5102621995827106e-07
sS'289.html'
p541
F6.353343081479401e-07
sS'905.html'
p542
F8.147219163997547e-07
sS'1884.html'
p543
F5.148097906525986e-07
sS'521.html'
p544
F5.886514423565751e-06
sS'34.html'
p545
F1.497018089667192e-07
sS'1952.html'
p546
F1.2379230292471695e-06
sS'1225.html'
p547
F4.5156940689519395e-07
sS'626.html'
p548
F5.430168441109959e-07
sS'1444.html'
p549
F1.1128407128768579e-07
sS'189.html'
p550
F8.319965921419586e-07
sS'357.html'
p551
F5.271131174207722e-07
sS'663.html'
p552
F8.286257035550114e-07
sS'1478.html'
p553
F1.0357821294437643e-06
sS'129.html'
p554
F1.1221661937110216e-06
sS'1259.html'
p555
F3.5574300840478433e-07
sS'1830.html'
p556
F1.0999276980859793e-06
sS'680.html'
p557
F1.3317198807134114e-06
sS'1956.html'
p558
F8.47032675132476e-07
sS'458.html'
p559
F1.0992111328103532e-06
sS'1887.html'
p560
F5.129317795603867e-07
sS'1030.html'
p561
F5.976936198596854e-07
sS'503.html'
p562
F6.56277358562385e-07
sS'1603.html'
p563
F8.746314885994701e-07
sS'760.html'
p564
F9.468513405521279e-07
sS'1785.html'
p565
F8.145252661664938e-07
sS'1348.html'
p566
F4.6328640550903133e-07
sS'829.html'
p567
F8.557317554780738e-07
sS'68.html'
p568
F7.158629990937173e-07
sS'140.html'
p569
F6.145754959438018e-06
sS'322.html'
p570
F9.346567449737665e-07
sS'482.html'
p571
F7.021594210836006e-07
sS'310.html'
p572
F5.946393264718562e-06
sS'1073.html'
p573
F6.733668916946592e-07
sS'201.html'
p574
F9.428829778507359e-07
sS'1784.html'
p575
F8.168913526332084e-07
sS'954.html'
p576
F1.0338781181764043e-06
sS'932.html'
p577
F8.121728466252187e-07
sS'1039.html'
p578
F6.735684985484598e-07
sS'305.html'
p579
F4.392942006509541e-06
sS'134.html'
p580
F7.136300666619686e-06
sS'1119.html'
p581
F8.843234218364214e-07
sS'1881.html'
p582
F1.615248984169914e-07
sS'1648.html'
p583
F1.2056370767158928e-07
sS'1018.html'
p584
F1.548326761976501e-06
sS'527.html'
p585
F7.047991181553433e-07
sS'405.html'
p586
F9.216381749905186e-07
sS'1374.html'
p587
F6.041135298474371e-07
sS'591.html'
p588
F8.899204055189303e-07
sS'1080.html'
p589
F1.0106553392416244e-06
sS'630.html'
p590
F6.257910389852173e-07
sS'878.html'
p591
F1.1203778810517211e-06
sS'29.html'
p592
F1.2306995542406213e-06
sS'1077.html'
p593
F1.0138435264316612e-06
sS'1029.html'
p594
F9.037434862688226e-07
sS'889.html'
p595
F1.5887844527908589e-06
sS'648.html'
p596
F5.285993386165075e-07
sS'109.html'
p597
F9.23024665680466e-07
sS'316.html'
p598
F1.159648858325699e-06
sS'502.html'
p599
F6.96507363824104e-07
sS'1031.html'
p600
F9.11555423481303e-07
sS'1203.html'
p601
F6.73299716226613e-07
sS'966.html'
p602
F1.1652548956242348e-06
sS'381.html'
p603
F1.1847751652168969e-06
sS'463.html'
p604
F6.409455228352865e-07
sS'1352.html'
p605
F4.270536797934427e-07
sS'1027.html'
p606
F1.3895730606249885e-06
sS'111.html'
p607
F8.569269115611438e-07
sS'522.html'
p608
F5.046475516267061e-07
sS'964.html'
p609
F7.017213927485515e-07
sS'1118.html'
p610
F1.7342883018438605e-07
sS'901.html'
p611
F2.1501954527666565e-06
sS'690.html'
p612
F8.934546406480762e-07
sS'1543.html'
p613
F1.2308791135569684e-07
sS'641.html'
p614
F9.410424366223604e-07
sS'1246.html'
p615
F4.481511524206885e-07
sS'168.html'
p616
F2.417492784388412e-07
sS'971.html'
p617
F6.438805910566273e-07
sS'1083.html'
p618
F3.993111084756578e-07
sS'592.html'
p619
F5.587628153124759e-06
sS'815.html'
p620
F6.640256154521416e-07
sS'1416.html'
p621
F5.771469433432159e-07
sS'234.html'
p622
F3.2035867357093003e-06
sS'260.html'
p623
F6.25849068569693e-06
sS'1726.html'
p624
F1.7168183647373748e-07
sS'290.html'
p625
F3.08434163031513e-07
sS'951.html'
p626
F8.198683619358076e-07
sS'1809.html'
p627
F3.796352995531313e-07
sS'1251.html'
p628
F1.2894834458264364e-06
sS'588.html'
p629
F7.313780185799272e-07
sS'1201.html'
p630
F4.3514870118991413e-07
sS'781.html'
p631
F8.332291796858725e-07
sS'439.html'
p632
F5.989086794934757e-06
sS'904.html'
p633
F1.8084556150738392e-06
sS'245.html'
p634
F5.587975124569936e-07
sS'1985.html'
p635
F5.795257045728635e-07
sS'177.html'
p636
F3.302969792623702e-06
sS'81.html'
p637
F9.597776387166622e-07
sS'130.html'
p638
F7.349620336987441e-07
sS'500.html'
p639
F9.148917385733453e-07
sS'617.html'
p640
F6.391246548726863e-07
sS'821.html'
p641
F1.208486670150331e-06
sS'1908.html'
p642
F6.875668658777066e-07
sS'1533.html'
p643
F1.3914638700840277e-07
sS'1903.html'
p644
F7.729221662225799e-07
sS'126.html'
p645
F8.391341981170668e-07
sS'241.html'
p646
F1.2700708233826813e-06
sS'733.html'
p647
F5.52620679231603e-07
sS'883.html'
p648
F1.514350286181917e-06
sS'1971.html'
p649
F8.53459326688868e-07
sS'266.html'
p650
F5.215731341155771e-06
sS'769.html'
p651
F9.995788441136801e-07
sS'393.html'
p652
F6.438805910566273e-07
sS'1581.html'
p653
F4.105625931002e-08
sS'102.html'
p654
F5.47643326473188e-07
sS'581.html'
p655
F7.273581587946512e-07
sS'359.html'
p656
F6.838051018698651e-07
sS'608.html'
p657
F8.419606231855749e-07
sS'814.html'
p658
F7.95515836333754e-07
sS'372.html'
p659
F7.666011307877747e-07
sS'711.html'
p660
F5.565855480336111e-07
sS'1792.html'
p661
F8.400742289588709e-07
sS'1855.html'
p662
F8.192712254740918e-07
sS'1681.html'
p663
F1.4004723513146514e-07
sS'483.html'
p664
F1.3054461035697422e-06
sS'67.html'
p665
F7.158629990937173e-07
sS'530.html'
p666
F8.966595397177585e-07
sS'849.html'
p667
F7.511581920373476e-07
sS'1322.html'
p668
F8.696245787212431e-07
sS'1898.html'
p669
F5.521233929528442e-07
sS'1162.html'
p670
F1.351453014708764e-06
sS'1380.html'
p671
F3.8962916265186285e-07
sS'1153.html'
p672
F4.4619571304082823e-07
sS'1863.html'
p673
F8.934546406480762e-07
sS'1983.html'
p674
F5.780366868324398e-07
sS'817.html'
p675
F8.836287451499828e-07
sS'456.html'
p676
F1.1064190746648472e-06
sS'1341.html'
p677
F4.416409079607099e-07
sS'1238.html'
p678
F4.3065060971513324e-07
sS'1824.html'
p679
F8.034709946970914e-07
sS'96.html'
p680
F1.1731950277179059e-06
sS'1975.html'
p681
F5.519427834033012e-07
sS'119.html'
p682
F1.3887152994764544e-06
sS'793.html'
p683
F7.960788340947827e-07
sS'880.html'
p684
F1.9250303352697e-06
sS'480.html'
p685
F9.178779213185867e-07
sS'1851.html'
p686
F1.0106553392416244e-06
sS'718.html'
p687
F1.0029610496218837e-05
sS'479.html'
p688
F6.485038426800423e-06
sS'127.html'
p689
F8.111966773384096e-07
sS'616.html'
p690
F9.249643246398677e-06
sS'1273.html'
p691
F4.513881992680289e-07
sS'176.html'
p692
F1.3921527135840693e-06
sS'825.html'
p693
F8.36637703663762e-07
sS'1805.html'
p694
F6.490821653640669e-07
sS'1482.html'
p695
F8.208255929479919e-08
sS'1170.html'
p696
F4.3481228936062153e-07
sS'1005.html'
p697
F1.1203778810517211e-06
sS'514.html'
p698
F5.886514423565751e-06
sS'668.html'
p699
F9.130352212466949e-07
sS'816.html'
p700
F1.9753277966690946e-06
sS'1393.html'
p701
F1.4347696333876631e-06
sS'422.html'
p702
F7.977726188481759e-07
sS'1181.html'
p703
F6.679687604370119e-07
sS'1165.html'
p704
F8.646113701582844e-07
sS'1102.html'
p705
F4.2966363352785637e-07
sS'1151.html'
p706
F1.0579941615650188e-06
sS'486.html'
p707
F1.4238726488302887e-06
sS'933.html'
p708
F6.475874453517145e-07
sS'853.html'
p709
F1.0486569849993113e-06
sS'1949.html'
p710
F1.2370154610439092e-06
sS'1941.html'
p711
F7.827831541934086e-07
sS'897.html'
p712
F1.0421797954687413e-06
sS'353.html'
p713
F1.5252330746792244e-06
sS'1248.html'
p714
F4.4112133042193255e-07
sS'1511.html'
p715
F7.370810514225333e-08
sS'373.html'
p716
F9.277190866605592e-07
sS'12.html'
p717
F9.614182842529298e-07
sS'279.html'
p718
F5.867811124548398e-07
sS'1285.html'
p719
F4.278658777390369e-07
sS'97.html'
p720
F6.947865303124942e-07
sS'534.html'
p721
F8.352916281504416e-07
sS'470.html'
p722
F6.003252261912891e-06
sS'1363.html'
p723
F1.523374041950065e-06
sS'568.html'
p724
F9.15760699519073e-06
sS'251.html'
p725
F5.890311008421245e-06
sS'1152.html'
p726
F8.930999544072473e-07
sS'585.html'
p727
F5.997473064682081e-06
sS'1602.html'
p728
F9.200995366695488e-06
sS'747.html'
p729
F8.966595397177585e-07
sS'10.html'
p730
F1.4637077326947664e-06
sS'549.html'
p731
F7.068659777393766e-07
sS'764.html'
p732
F8.295423249085015e-07
sS'1781.html'
p733
F1.743697709775117e-07
sS'1858.html'
p734
F1.998684066410675e-06
sS'1991.html'
p735
F5.756701087901371e-07
sS'532.html'
p736
F8.5998424508863e-07
sS'1817.html'
p737
F5.607474539261854e-07
sS'1172.html'
p738
F9.006080004611112e-07
sS'921.html'
p739
F6.606456886702789e-07
sS'1772.html'
p740
F7.141964397307479e-07
sS'1411.html'
p741
F5.256352301756673e-07
sS'580.html'
p742
F7.074587374691371e-06
sS'1845.html'
p743
F8.295423249085015e-07
sS'3.html'
p744
F3.861876815959803e-06
sS'107.html'
p745
F3.2573148433665867e-07
sS'498.html'
p746
F5.560352904478141e-07
sS'1518.html'
p747
F7.835465258957426e-08
sS'398.html'
p748
F1.9604443325296965e-06
sS'434.html'
p749
F6.528493282506837e-07
sS'1026.html'
p750
F8.808609182270384e-07
sS'1161.html'
p751
F6.542416009553672e-07
sS'806.html'
p752
F8.274066881764826e-06
sS'1058.html'
p753
F9.384255221712414e-07
sS'1753.html'
p754
F5.041951557937822e-07
sS'928.html'
p755
F8.051964155876364e-07
sS'1540.html'
p756
F1.2306995542406215e-07
sS'693.html'
p757
F5.535725357165e-07
sS'1886.html'
p758
F5.129317795603867e-07
sS'1768.html'
p759
F7.00410580682396e-07
sS'1498.html'
p760
F6.863502303837501e-08
sS'1315.html'
p761
F4.5707411319623243e-07
sS'645.html'
p762
F8.400742289588709e-07
sS'1242.html'
p763
F4.397417484659609e-07
sS'1232.html'
p764
F8.709712679643267e-07
sS'1619.html'
p765
F5.64008921267513e-08
sS'285.html'
p766
F5.819241554971174e-07
sS'719.html'
p767
F1.145089303606306e-06
sS'1645.html'
p768
F1.1969135907383784e-07
sS'179.html'
p769
F2.0623404264095066e-06
sS'1979.html'
p770
F5.186073732484684e-07
sS'1960.html'
p771
F8.639473061259047e-07
sS'780.html'
p772
F5.610271284667969e-07
sS'893.html'
p773
F1.0031445237002926e-06
sS'579.html'
p774
F5.997473064682081e-06
sS'1735.html'
p775
F1.6819069865070693e-07
sS'1405.html'
p776
F8.672778662883022e-07
sS'326.html'
p777
F5.59631538594989e-07
sS'131.html'
p778
F8.92179086751212e-07
sS'1281.html'
p779
F2.0460255725916233e-06
sS'286.html'
p780
F1.3967624907813676e-06
sS'489.html'
p781
F1.5474984000585987e-06
sS'1481.html'
p782
F3.9169141046588486e-08
sS'504.html'
p783
F7.201404561945762e-07
sS'1037.html'
p784
F7.339230486576303e-07
sS'694.html'
p785
F5.601889405258606e-07
sS'1547.html'
p786
F1.2324975083008706e-07
sS'657.html'
p787
F1.094221199003821e-06
sS'857.html'
p788
F2.171543228911058e-06
sS'1910.html'
p789
F8.006116673138278e-07
sS'1591.html'
p790
F7.007185662803509e-07
sS'896.html'
p791
F1.0250845011323766e-06
sS'296.html'
p792
F1.83662046012146e-06
sS'276.html'
p793
F3.08434163031513e-07
sS'574.html'
p794
F7.45927979161756e-07
sS'492.html'
p795
F1.024462106171155e-06
sS'65.html'
p796
F1.3074692668453252e-06
sS'1767.html'
p797
F4.3498043023044396e-07
sS'1284.html'
p798
F7.534222321339102e-07
sS'76.html'
p799
F1.1280178425350262e-06
sS'839.html'
p800
F1.9753277966690946e-06
sS'1672.html'
p801
F1.1572627495637119e-07
sS'1899.html'
p802
F5.521233929528442e-07
sS'287.html'
p803
F8.069292629669498e-07
sS'1307.html'
p804
F2.7788028472725494e-07
sS'1896.html'
p805
F5.414920054120321e-07
sS'1980.html'
p806
F8.441721520269629e-07
sS'1335.html'
p807
F4.5012380655299245e-07
sS'444.html'
p808
F5.37438792439526e-07
sS'72.html'
p809
F1.1707529065111657e-06
sS'490.html'
p810
F5.338677705628514e-07
sS'1447.html'
p811
F8.07624492084957e-08
sS'1198.html'
p812
F6.542416009553672e-07
sS'1169.html'
p813
F1.3233639912657975e-06
sS'206.html'
p814
F8.746962617231166e-07
sS'1473.html'
p815
F3.4579139027848997e-07
sS'1682.html'
p816
F1.378166371693124e-07
sS'1864.html'
p817
F5.378670987771412e-07
sS'488.html'
p818
F1.5474984000585987e-06
sS'1237.html'
p819
F4.458420105334634e-07
sS'1994.html'
p820
F5.721563543112554e-07
sS'822.html'
p821
F6.751857098294885e-07
sS'1489.html'
p822
F4.0853468169387954e-08
sS'1480.html'
p823
F4.562213629850454e-08
sS'703.html'
p824
F5.565855480336111e-07
sS'106.html'
p825
F6.679687604370119e-07
sS'1445.html'
p826
F7.469185873678141e-07
sS'1804.html'
p827
F7.215262300038024e-07
sS'74.html'
p828
F1.1280178425350262e-06
sS'156.html'
p829
F6.590973003374578e-06
sS'1306.html'
p830
F4.0462568078270793e-07
sS'1255.html'
p831
F4.0564709432958097e-07
sS'1996.html'
p832
F5.721563543112554e-07
sS'56.html'
p833
F1.3751337317554132e-06
sS'601.html'
p834
F8.186749582066434e-07
sS'454.html'
p835
F6.534181775056219e-07
sS'1665.html'
p836
F1.1898237704420647e-07
sS'851.html'
p837
F2.162003225708813e-06
sS'673.html'
p838
F6.581974210508648e-07
sS'812.html'
p839
F8.743563098141687e-07
sS'509.html'
p840
F6.943576497382272e-07
sS'31.html'
p841
F4.3498043023044396e-07
sS'1987.html'
p842
F5.774432200081767e-07
sS'41.html'
p843
F1.4960225995157974e-07
sS'105.html'
p844
F4.0423792258358696e-07
sS'1467.html'
p845
F4.103229709549602e-08
sS'571.html'
p846
F6.930741790363081e-07
sS'370.html'
p847
F7.866149598433063e-07
sS'1951.html'
p848
F7.960788340947827e-07
sS'35.html'
p849
F1.4962215916146956e-07
sS'926.html'
p850
F5.579659685396468e-07
sS'334.html'
p851
F1.127113619815559e-06
sS'1611.html'
p852
F4.115238869451701e-07
sS'963.html'
p853
F8.034709946970914e-07
sS'1038.html'
p854
F5.024684600547624e-07
sS'1644.html'
p855
F1.1953872397193708e-07
sS'356.html'
p856
F5.807315387203633e-06
sS'1894.html'
p857
F5.22542300670143e-07
sS'1934.html'
p858
F7.893750123339845e-07
sS'1551.html'
p859
F4.101733491014906e-08
sS'600.html'
p860
F8.186749582066434e-07
sS'217.html'
p861
F5.758665832299973e-06
sS'1413.html'
p862
F3.953811573201856e-07
sS'379.html'
p863
F6.751857098294885e-07
sS'103.html'
p864
F5.47643326473188e-07
sS'1491.html'
p865
F3.8543701774120336e-08
sS'1443.html'
p866
F2.2398633862523458e-07
sS'1023.html'
p867
F2.0921129434146212e-06
sS'1163.html'
p868
F6.66912683345412e-07
sS'481.html'
p869
F9.175035828514911e-07
sS'224.html'
p870
F7.626165373396122e-06
sS'1428.html'
p871
F7.73985820579767e-07
sS'706.html'
p872
F9.593683518771242e-07
sS'1466.html'
p873
F3.903593116934787e-08
sS'1988.html'
p874
F5.816232639999628e-07
sS'344.html'
p875
F6.427767957576732e-07
sS'336.html'
p876
F1.0021019087536108e-06
sS'649.html'
p877
F8.36637703663762e-07
sS'1538.html'
p878
F1.7483049309541932e-07
sS'914.html'
p879
F1.6023638070882166e-06
sS'1110.html'
p880
F4.313111167852485e-07
sS'1695.html'
p881
F1.3795185094136963e-07
sS'5.html'
p882
F8.913307389666624e-07
sS'112.html'
p883
F8.398651512513151e-07
sS'210.html'
p884
F7.579915044312184e-07
sS'472.html'
p885
F7.344821368435703e-07
sS'1361.html'
p886
F1.1203778810517211e-06
sS'766.html'
p887
F5.940543545756688e-06
sS'1783.html'
p888
F2.424265932275707e-07
sS'1404.html'
p889
F9.11555423481303e-07
sS'958.html'
p890
F1.0345120103396026e-06
sS'48.html'
p891
F5.810224135206239e-07
sS'1160.html'
p892
F8.249793858275966e-07
sS'1836.html'
p893
F8.344654247595905e-07
sS'1513.html'
p894
F1.175237924959178e-07
sS'994.html'
p895
F1.1042467859056884e-06
sS'330.html'
p896
F9.258101996509695e-07
sS'1265.html'
p897
F3.5702265951415406e-06
sS'666.html'
p898
F1.1847751652168969e-06
sS'818.html'
p899
F7.444469838358227e-07
sS'207.html'
p900
F3.440778761091178e-07
sS'1417.html'
p901
F5.37695694347958e-07
sS'1041.html'
p902
F4.958240049555956e-07
sS'950.html'
p903
F1.0332450023661311e-06
sS'1247.html'
p904
F1.904389490817034e-06
sS'640.html'
p905
F5.454064054511552e-06
sS'1060.html'
p906
F4.366690188571149e-07
sS'508.html'
p907
F6.183943884419615e-07
sS'446.html'
p908
F5.453863721580257e-06
sS'967.html'
p909
F6.438805910566273e-07
sS'18.html'
p910
F3.6162992316315794e-06
sS'1673.html'
p911
F1.1316492883057626e-07
sS'540.html'
p912
F5.515819185563557e-06
sS'1532.html'
p913
F1.3856361081250652e-07
sS'1720.html'
p914
F2.641755266735388e-07
sS'578.html'
p915
F1.792604609682754e-06
sS'1177.html'
p916
F1.1106431601263111e-06
sS'246.html'
p917
F5.8464625393759255e-06
sS'1328.html'
p918
F4.5156940689519395e-07
sS'749.html'
p919
F8.692885568592952e-07
sS'1425.html'
p920
F7.822387987315215e-07
sS'1962.html'
p921
F8.547563773373313e-07
sS'656.html'
p922
F6.603871189291162e-07
sS'291.html'
p923
F3.968597913406463e-07
sS'566.html'
p924
F9.061702947711558e-07
sS'664.html'
p925
F8.286257035550114e-07
sS'874.html'
p926
F2.099737532808399e-06
sS'274.html'
p927
F1.0795195706102955e-06
sS'192.html'
p928
F1.0097481082369192e-06
sS'1902.html'
p929
F7.729221662225799e-07
sS'1106.html'
p930
F4.2256175528772656e-07
sS'962.html'
p931
F8.577982149791012e-07
sS'214.html'
p932
F3.074226271046537e-07
sS'128.html'
p933
F8.111966773384096e-07
sS'116.html'
p934
F4.877967877605932e-07
sS'671.html'
p935
F6.719590158757037e-07
sS'639.html'
p936
F5.30437674070582e-06
sS'125.html'
p937
F8.391341981170668e-07
sS'1770.html'
p938
F6.96507363824104e-07
sS'789.html'
p939
F8.25282019498113e-07
sS'283.html'
p940
F4.6328640550903133e-07
sS'1053.html'
p941
F3.0012257005761155e-07
sS'870.html'
p942
F9.296358616329983e-07
sS'936.html'
p943
F5.579659685396468e-07
sS'1661.html'
p944
F1.197423240979272e-07
sS'164.html'
p945
F2.1760241022232296e-06
sS'25.html'
p946
F3.9579851955521746e-07
sS'848.html'
p947
F9.492484325535257e-07
sS'377.html'
p948
F6.588399409855104e-06
sS'662.html'
p949
F8.286257035550114e-07
sS'991.html'
p950
F8.580163177543311e-07
sS'38.html'
p951
F6.583258247615653e-07
sS'358.html'
p952
F6.705570149483922e-07
sS'447.html'
p953
F5.607305129154928e-06
sS'1336.html'
p954
F8.301545332663675e-07
sS'842.html'
p955
F6.435122383157483e-06
sS'1233.html'
p956
F4.252776531477989e-07
sS'171.html'
p957
F6.377895690523018e-06
sS'17.html'
p958
F4.3263822791381845e-06
sS'380.html'
p959
F6.751857098294885e-07
sS'867.html'
p960
F1.0250845011323766e-06
sS'252.html'
p961
F6.53988018939493e-06
sS'1144.html'
p962
F4.3819999710788e-07
sS'778.html'
p963
F6.238820812955786e-07
sS'924.html'
p964
F1.196658928272264e-06
sS'1135.html'
p965
F4.2835468110279055e-07
sS'1870.html'
p966
F9.04955263536547e-07
sS'1969.html'
p967
F8.063508190508444e-07
sS'1668.html'
p968
F1.2208154900975994e-07
sS'944.html'
p969
F7.98905818590858e-07
sS'54.html'
p970
F8.959453545009383e-07
sS'265.html'
p971
F4.5875179142574553e-07
sS'384.html'
p972
F1.0627923210278987e-06
sS'1970.html'
p973
F8.53459326688868e-07
sS'149.html'
p974
F6.796733489884761e-07
sS'328.html'
p975
F5.514016630274157e-07
sS'979.html'
p976
F6.800842760434873e-07
sS'1821.html'
p977
F5.400189114622794e-07
sS'1732.html'
p978
F1.681404174254003e-07
sS'197.html'
p979
F5.069217632158306e-08
sS'1825.html'
p980
F8.034709946970914e-07
sS'937.html'
p981
F8.965404297895281e-07
sS'1944.html'
p982
F8.295423249085015e-07
sS'670.html'
p983
F9.168625696357122e-06
sS'28.html'
p984
F1.293834129947007e-07
sS'638.html'
p985
F7.986222169513156e-07
sS'1173.html'
p986
F4.3871271161307644e-07
sS'1842.html'
p987
F8.234695406851596e-07
sS'788.html'
p988
F6.56300564975347e-06
sS'1725.html'
p989
F2.73821663236594e-07
sS'367.html'
p990
F6.731654054912795e-07
sS'1087.html'
p991
F8.864140209424177e-07
sS'596.html'
p992
F9.082433529074913e-07
sS'139.html'
p993
F7.307247373615448e-06
sS'1143.html'
p994
F6.560221962923375e-07
sS'934.html'
p995
F8.92745549663435e-07
sS'575.html'
p996
F7.043577912184897e-07
sS'1137.html'
p997
F1.7298875702820884e-06
sS'915.html'
p998
F6.420430322921963e-07
sS'879.html'
p999
F1.0097481082369192e-06
sS'865.html'
p1000
F1.0699360106936538e-06
sS'1922.html'
p1001
F7.816951998442863e-07
sS'836.html'
p1002
F9.020524399165421e-07
sS'1231.html'
p1003
F1.031981094106356e-06
sS'1868.html'
p1004
F5.315970664347486e-07
sS'1514.html'
p1005
F7.833282678105348e-08
sS'1577.html'
p1006
F8.202270618170687e-08
sS'686.html'
p1007
F6.611958222341972e-06
sS'264.html'
p1008
F3.2463474533215814e-06
sS'1176.html'
p1009
F4.426837436347611e-07
sS'1249.html'
p1010
F4.146182796077877e-07
sS'779.html'
p1011
F6.203268709058427e-06
sS'253.html'
p1012
F5.283430480280874e-06
sS'920.html'
p1013
F8.061581886592891e-07
sS'1921.html'
p1014
F7.816951998442863e-07
sS'416.html'
p1015
F5.392422783201956e-07
sS'1389.html'
p1016
F7.763004779682043e-07
sS'1134.html'
p1017
F4.3649957026617306e-07
sS'1239.html'
p1018
F4.453125069580079e-07
sS'1788.html'
p1019
F6.96507363824104e-07
sS'935.html'
p1020
F7.95515836333754e-07
sS'1010.html'
p1021
F8.666097015222866e-07
sS'1891.html'
p1022
F7.708036038665565e-07
sS'702.html'
p1023
F5.571368957780723e-07
sS'970.html'
p1024
F8.357053436671084e-07
sS'104.html'
p1025
F8.011819035441083e-07
sS'1529.html'
p1026
F1.3737901716853053e-07
sS'325.html'
p1027
F5.59631538594989e-07
sS'1831.html'
p1028
F1.0999276980859793e-06
sS'1158.html'
p1029
F4.433817077555885e-07
sS'1839.html'
p1030
F3.5755225447423013e-07
sS'92.html'
p1031
F1.2069306787295365e-06
sS'351.html'
p1032
F6.612929997506925e-07
sS'476.html'
p1033
F5.704155134766369e-07
sS'1365.html'
p1034
F6.842210417128516e-07
sS'797.html'
p1035
F1.0286779996121883e-06
sS'1714.html'
p1036
F1.6635010242175804e-07
sS'974.html'
p1037
F8.369489528094702e-07
sS'1410.html'
p1038
F5.704155134766369e-07
sS'1371.html'
p1039
F6.160237637327098e-07
sS'161.html'
p1040
F7.229173474138354e-07
sS'785.html'
p1041
F5.313459577590591e-07
sS'1459.html'
p1042
F1.311789379097292e-07
sS'327.html'
p1043
F1.0021019087536108e-06
sS'1040.html'
p1044
F5.626172353664195e-07
sS'929.html'
p1045
F9.212607637804489e-07
sS'820.html'
p1046
F8.473517081551246e-07
sS'1072.html'
p1047
F7.201404561945762e-07
sS'16.html'
p1048
F3.828532778621473e-06
sS'1294.html'
p1049
F4.400858343411299e-07
sS'1150.html'
p1050
F6.393668392815052e-07
sS'884.html'
p1051
F9.384255221712414e-07
sS'1076.html'
p1052
F1.0138435264316612e-06
sS'1147.html'
p1053
F1.2782493097453726e-06
sS'1423.html'
p1054
F6.483339438477972e-07
sS'216.html'
p1055
F7.0559775738271486e-06
sS'1228.html'
p1056
F4.341410237653138e-07
sS'1377.html'
p1057
F3.0759075542136395e-07
sS'406.html'
p1058
F9.071446714322001e-07
sS'349.html'
p1059
F6.163613110005084e-07
sS'1214.html'
p1060
F4.467273203240381e-07
sS'631.html'
p1061
F7.164709506853044e-07
sS'1666.html'
p1062
F1.1883154369067483e-07
sS'136.html'
p1063
F7.418693438258387e-06
sS'248.html'
p1064
F5.768509705517579e-06
sS'148.html'
p1065
F6.308801977430892e-07
sS'1623.html'
p1066
F5.4320040205520956e-08
sS'808.html'
p1067
F8.743563098141687e-06
sS'724.html'
p1068
F9.618293224249064e-07
sS'1749.html'
p1069
F8.864140209424177e-07
sS'513.html'
p1070
F8.829351590077928e-07
sS'1002.html'
p1071
F1.1203778810517211e-06
sS'738.html'
p1072
F5.128538264023988e-06
sS'340.html'
p1073
F6.224071085681694e-06
sS'117.html'
p1074
F7.393904859175688e-07
sS'375.html'
p1075
F5.423622915023761e-07
sS'339.html'
p1076
F5.563280339797985e-06
sS'118.html'
p1077
F5.610271284667969e-07
sS'66.html'
p1078
F1.1873955586656523e-06
sS'321.html'
p1079
F9.137769232948237e-07
sS'1773.html'
p1080
F6.583258247615653e-07
sS'1915.html'
p1081
F8.000422422303898e-07
sS'1256.html'
p1082
F4.336389331441511e-07
sS'1127.html'
p1083
F4.197236539462418e-07
sS'215.html'
p1084
F7.254232277797199e-06
sS'647.html'
p1085
F7.833282678105349e-07
sS'679.html'
p1086
F6.792629182221787e-07
sS'122.html'
p1087
F1.3759747921418078e-06
sS'1813.html'
p1088
F2.6617590927021484e-07
sS'75.html'
p1089
F1.1266620518589022e-06
sS'348.html'
p1090
F6.99974730912214e-07
sS'1585.html'
p1091
F4.0844567631660425e-08
sS'1705.html'
p1092
F1.706918653377736e-07
sS'1904.html'
p1093
F5.505021497108946e-07
sS'547.html'
p1094
F8.724348959999442e-07
sS'1801.html'
p1095
F9.130352212466949e-07
sS'995.html'
p1096
F8.580163177543311e-07
sS'552.html'
p1097
F5.446062199971482e-06
sS'1940.html'
p1098
F8.25282019498113e-07
sS'1254.html'
p1099
F7.816951998442863e-07
sS'843.html'
p1100
F6.708902937828597e-06
sS'1654.html'
p1101
F1.208746392194206e-07
sS'324.html'
p1102
F5.369257243799179e-07
sS'338.html'
p1103
F1.0021019087536108e-06
sS'593.html'
p1104
F5.744407297277255e-06
sS'1663.html'
p1105
F1.2221418867621992e-07
sS'946.html'
p1106
F9.758757020612447e-07
sS'1321.html'
p1107
F5.998183749960513e-07
sS'1958.html'
p1108
F8.746962617231166e-07
sS'366.html'
p1109
F5.271131174207722e-07
sS'1618.html'
p1110
F4.828099468680821e-07
sS'462.html'
p1111
F5.500534927021652e-07
sS'1774.html'
p1112
F1.4960225995157974e-07
sS'730.html'
p1113
F5.372980149438177e-06
sS'1508.html'
p1114
F9.093446989296104e-07
sS'770.html'
p1115
F1.0972097079359422e-06
sS'1882.html'
p1116
F5.096780211037281e-07
sS'634.html'
p1117
F5.423622915023761e-07
sS'1211.html'
p1118
F8.781103767181327e-07
sS'1867.html'
p1119
F8.977329549688173e-07
sS'698.html'
p1120
F6.727627946028277e-07
sS'371.html'
p1121
F3.4793052662416584e-07
sS'395.html'
p1122
F7.849681734654068e-07
sS'160.html'
p1123
F7.229173474138354e-07
sS'801.html'
p1124
F8.493778448849193e-07
sS'1282.html'
p1125
F1.2605820611609205e-06
sS'1854.html'
p1126
F8.192712254740918e-07
sS'1320.html'
p1127
F1.0158272660228128e-06
sS'652.html'
p1128
F5.538450972801222e-07
sS'1501.html'
p1129
F8.141126095215518e-08
sS'1850.html'
p1130
F6.679687604370119e-07
sS'1978.html'
p1131
F8.729991405323461e-07
sS'62.html'
p1132
F1.4025678211669925e-06
sS'1516.html'
p1133
F7.824564500389038e-08
sS'1995.html'
p1134
F5.756701087901371e-07
sS'1268.html'
p1135
F8.326124297379185e-07
sS'193.html'
p1136
F6.344384616897508e-07
sS'33.html'
p1137
F4.329712827467005e-07
sS'1594.html'
p1138
F4.945161456224772e-07
sS'1252.html'
p1139
F6.013147144917649e-07
sS'589.html'
p1140
F7.273581587946512e-07
sS'997.html'
p1141
F1.0516636056244651e-06
sS'163.html'
p1142
F2.1760241022232296e-06
sS'1401.html'
p1143
F8.028974964853162e-07
sS'557.html'
p1144
F5.229471839032673e-07
sS'1680.html'
p1145
F1.404318842167201e-07
sS'1937.html'
p1146
F8.740166220481181e-07
sS'1945.html'
p1147
F8.413308844995722e-07
sS'1138.html'
p1148
F8.832818159214198e-07
sS'927.html'
p1149
F9.018113783345228e-07
sS'1194.html'
p1150
F8.808609182270384e-07
sS'949.html'
p1151
F1.1203778810517211e-06
sS'1923.html'
p1152
F5.215731341155772e-07
sS'249.html'
p1153
F5.30755573361549e-06
sS'1694.html'
p1154
F1.3714452482027896e-07
sS'1990.html'
p1155
F5.774432200081767e-07
sS'378.html'
p1156
F6.588399409855104e-06
sS'1269.html'
p1157
F4.412943870443029e-07
sS'1257.html'
p1158
F3.403164761726285e-07
sS'1487.html'
p1159
F9.286381512225939e-08
sS'1408.html'
p1160
F5.331087168606294e-07
sS'744.html'
p1161
F3.865496194418997e-06
sS'27.html'
p1162
F1.0358555007074494e-06
sS'218.html'
p1163
F5.606775788540451e-06
sS'577.html'
p1164
F6.612929997506925e-07
sS'1295.html'
p1165
F8.000422422303898e-07
sS'972.html'
p1166
F6.409455228352865e-07
sS'37.html'
p1167
F2.658613548985885e-07
sS'1793.html'
p1168
F1.1093287895226115e-06
sS'1145.html'
p1169
F4.20822818023168e-07
sS'931.html'
p1170
F9.966267506579398e-07
sS'562.html'
p1171
F9.332351155220641e-07
sS'1871.html'
p1172
F9.04955263536547e-07
sS'1676.html'
p1173
F1.218699233560052e-07
sS'1190.html'
p1174
F1.121718580550387e-06
sS'451.html'
p1175
F8.679470621727839e-07
sS'1595.html'
p1176
F5.463892684776556e-07
sS'1085.html'
p1177
F5.686852338604287e-07
sS'1512.html'
p1178
F7.721440091817188e-08
sS'1434.html'
p1179
F2.0869376485638737e-06
sS'473.html'
p1180
F7.287718772762734e-07
sS'1187.html'
p1181
F4.236758540775623e-07
sS'1901.html'
p1182
F5.126979911467311e-07
sS'745.html'
p1183
F3.865496194418997e-06
sS'1250.html'
p1184
F4.499437570303712e-07
sS'658.html'
p1185
F1.0894521961994461e-06
sS'1664.html'
p1186
F1.1546493456948552e-07
sS'301.html'
p1187
F8.941648589633769e-07
sS'414.html'
p1188
F9.071446714322001e-07
sS'700.html'
p1189
F8.679470621727839e-07
sS'1972.html'
p1190
F7.579915044312184e-07
sS'739.html'
p1191
F5.283430480280874e-06
sS'695.html'
p1192
F5.590752448190497e-07
sS'1954.html'
p1193
F7.64690273675002e-07
sS'982.html'
p1194
F8.50233856822319e-07
sS'1146.html'
p1195
F6.616819956328987e-07
sS'1639.html'
p1196
F1.29116091893472e-07
sS'1065.html'
p1197
F1.5110953688553573e-06
sS'684.html'
p1198
F5.505919689554225e-07
sS'1234.html'
p1199
F4.328046912566095e-07
sS'1061.html'
p1200
F6.502077413733688e-07
sS'1359.html'
p1201
F6.854719028494382e-07
sS'1089.html'
p1202
F6.719590158757037e-07
sS'598.html'
p1203
F8.419606231855749e-07
sS'468.html'
p1204
F5.759280089988752e-06
sS'691.html'
p1205
F6.593548608299695e-07
sS'407.html'
p1206
F6.412064941393726e-06
sS'1376.html'
p1207
F8.180795582370385e-07
sS'1154.html'
p1208
F4.260831032484576e-07
sS'1344.html'
p1209
F4.533895173623249e-07
sS'453.html'
p1210
F5.392422783201956e-07
sS'1601.html'
p1211
F9.872332173285429e-06
sS'1929.html'
p1212
F6.984535191405949e-07
sS'36.html'
p1213
F2.6567297887952955e-07
sS'1992.html'
p1214
F5.727389982565824e-07
sS'1351.html'
p1215
F4.458420105334634e-07
sS'460.html'
p1216
F7.963606319121614e-07
sS'1319.html'
p1217
F8.679470621727839e-07
sS'277.html'
p1218
F5.870873656450563e-07
sS'1674.html'
p1219
F1.1813268142994413e-07
sS'491.html'
p1220
F5.338677705628514e-07
sS'303.html'
p1221
F7.2894897858302345e-06
sS'1199.html'
p1222
F8.636156564882365e-07
sS'1655.html'
p1223
F1.2030581738779978e-07
sS'526.html'
p1224
F1.311789379097292e-06
sS'1019.html'
p1225
F8.509940383999455e-06
sS'1612.html'
p1226
F5.334198622414483e-07
sS'1049.html'
p1227
F9.200049557600283e-07
sS'1742.html'
p1228
F2.765820980024411e-07
sS'143.html'
p1229
F6.319434789752405e-07
sS'1342.html'
p1230
F8.36326685930058e-07
sS'455.html'
p1231
F6.534181775056219e-07
sS'485.html'
p1232
F1.3904318820468825e-06
sS'763.html'
p1233
F9.995788441136801e-07
sS'1955.html'
p1234
F7.64690273675002e-07
sS'1900.html'
p1235
F5.126979911467311e-07
sS'1660.html'
p1236
F1.244313487362752e-07
sS'400.html'
p1237
F1.4100399781584807e-06
sS'1472.html'
p1238
F2.0652253229668202e-06
sS'1964.html'
p1239
F8.760587169594455e-07
sS'948.html'
p1240
F6.197572410886655e-07
sS'1221.html'
p1241
F4.4619571304082823e-07
sS'622.html'
p1242
F5.914087237518023e-07
sS'1675.html'
p1243
F1.1610852524524442e-07
sS'1276.html'
p1244
F6.203268709058426e-07
sS'613.html'
p1245
F8.551896040871222e-07
sS'795.html'
p1246
F8.145252661664938e-07
sS'132.html'
p1247
F3.2573148433665867e-07
sS'726.html'
p1248
F8.689527945739111e-07
sS'1986.html'
p1249
F5.777398010148578e-07
sS'910.html'
p1250
F1.021980065938154e-06
sS'1075.html'
p1251
F1.042985064975362e-06
sS'383.html'
p1252
F1.0696646943475922e-06
sS'866.html'
p1253
F1.5710326711954303e-06
sS'412.html'
p1254
F9.175035828514911e-07
sS'1938.html'
p1255
F8.740166220481181e-07
sS'1982.html'
p1256
F5.727389982565824e-07
sS'731.html'
p1257
F5.152027752256159e-06
sS'376.html'
p1258
F1.0092951032534123e-06
sS'461.html'
p1259
F5.500534927021652e-07
sS'761.html'
p1260
F9.420932936146801e-07
sS'953.html'
p1261
F1.1203778810517211e-06
sS'397.html'
p1262
F1.9604443325296965e-06
sS'13.html'
p1263
F1.7270103263704114e-06
sS'1215.html'
p1264
F6.277117146071027e-07
sS'1318.html'
p1265
F8.515211147433218e-07
sS'1230.html'
p1266
F6.578125102783205e-07
sS'1669.html'
p1267
F1.1895721156682825e-07
sS'493.html'
p1268
F1.024462106171155e-06
sS'1048.html'
p1269
F6.194159650748502e-07
sS'1164.html'
p1270
F4.414675795038964e-07
sS'919.html'
p1271
F1.3664472698930127e-06
sS'63.html'
p1272
F5.604680580846677e-07
sS'1791.html'
p1273
F1.6110847788254483e-07
sS'712.html'
p1274
F6.511487077139959e-06
sS'625.html'
p1275
F6.609044609729306e-07
sS'1226.html'
p1276
F6.237667611326772e-07
sS'155.html'
p1277
F9.428829778507359e-07
sS'1274.html'
p1278
F4.4077562405012854e-07
sS'611.html'
p1279
F8.369489528094702e-07
sS'938.html'
p1280
F8.006116673138278e-07
sS'1946.html'
p1281
F8.413308844995722e-07
sS'1874.html'
p1282
F5.503225991075969e-07
sS'1823.html'
p1283
F7.95515836333754e-07
sS'1853.html'
p1284
F9.035015201413077e-07
sS'957.html'
p1285
F1.1203778810517211e-06
sS'1847.html'
p1286
F1.6122393472494311e-07
sS'909.html'
p1287
F1.1203778810517211e-06
sS'227.html'
p1288
F7.273809171851016e-06
sS'1843.html'
p1289
F9.220158955540394e-07
sS'1782.html'
p1290
F8.168913526332084e-07
sS'767.html'
p1291
F8.238716254218222e-07
sS'911.html'
p1292
F1.6023638070882166e-06
sS'435.html'
p1293
F6.369532234291779e-07
sS'1235.html'
p1294
F1.104969933768102e-06
sS'1939.html'
p1295
F8.25282019498113e-07
sS'888.html'
p1296
F1.0282078542741573e-06
sS'1849.html'
p1297
F5.497846493528485e-07
sS'907.html'
p1298
F2.2717875787742343e-06
sS'1476.html'
p1299
F5.618327489921598e-07
sS'254.html'
p1300
F4.26729663344434e-06
sS'1070.html'
p1301
F6.113366263999609e-07
sS'612.html'
p1302
F8.551896040871222e-07
sS'1277.html'
p1303
F1.3892870225309939e-06
sS'44.html'
p1304
F2.326974333007712e-07
sS'1159.html'
p1305
F6.642870428598e-07
sS'401.html'
p1306
F6.900977868563976e-07
sS'154.html'
p1307
F4.768110215489558e-06
sS'1441.html'
p1308
F1.0363693907503235e-06
sS'40.html'
p1309
F5.441990288224132e-07
sS'1486.html'
p1310
F5.6395236768070186e-08
sS'1129.html'
p1311
F1.3482134149931218e-06
sS'1811.html'
p1312
F5.333614948202598e-07
sS'912.html'
p1313
F9.23024665680466e-07
sS'553.html'
p1314
F8.543235892981732e-07
sS'758.html'
p1315
F1.2185976752905887e-05
sS'24.html'
p1316
F5.904773714309334e-07
sS'1827.html'
p1317
F7.052409984802057e-07
sS'256.html'
p1318
F6.719833445873574e-06
sS'313.html'
p1319
F6.663858960757868e-07
sS'850.html'
p1320
F8.385086787744524e-07
sS'632.html'
p1321
F1.1506335848771768e-06
sS'1217.html'
p1322
F4.0331996865397204e-07
sS'858.html'
p1323
F9.804120214200418e-07
sS'1614.html'
p1324
F6.59258252059152e-07
sS'388.html'
p1325
F7.432991580898203e-07
sS'309.html'
p1326
F4.837064685340477e-07
sS'1057.html'
p1327
F5.120755960133208e-07
sS'683.html'
p1328
F5.574129794727096e-07
sS'1096.html'
p1329
F3.0945237759998017e-07
sS'242.html'
p1330
F9.599516913910825e-08
sS'1240.html'
p1331
F1.1275655498956777e-06
sS'1515.html'
p1332
F1.1720541045178466e-07
sS'713.html'
p1333
F9.175035828514911e-07
sS'1790.html'
p1334
F2.3419933220402417e-07
sS'235.html'
p1335
F2.9101226092857746e-06
sS'1045.html'
p1336
F6.69160852216495e-07
sS'1435.html'
p1337
F2.0830729492146814e-06
sS'621.html'
p1338
F6.096798875750287e-07
sS'1222.html'
p1339
F4.2900815887716555e-07
sS'420.html'
p1340
F8.398651512513151e-07
sS'913.html'
p1341
F6.420430322921963e-07
sS'1036.html'
p1342
F8.666097015222866e-07
sS'505.html'
p1343
F6.99974730912214e-07
sS'1606.html'
p1344
F6.185984341046679e-07
sS'1544.html'
p1345
F2.4576346789948173e-07
sS'697.html'
p1346
F6.757941679639099e-07
sS'162.html'
p1347
F5.433053480370595e-07
sS'343.html'
p1348
F5.945345626722664e-07
sS'79.html'
p1349
F9.663740486047492e-07
sS'23.html'
p1350
F6.123349986804181e-07
sS'992.html'
p1351
F6.44618563080761e-07
sS'410.html'
p1352
F1.0473551141302867e-06
sS'728.html'
p1353
F8.726605062652661e-07
sS'1766.html'
p1354
F9.532706716745152e-06
sS'99.html'
p1355
F9.269545880312551e-07
sS'1700.html'
p1356
F1.6508062702904724e-07
sS'535.html'
p1357
F8.352916281504416e-07
sS'341.html'
p1358
F6.771317029369869e-06
sS'1826.html'
p1359
F8.25282019498113e-07
sS'1136.html'
p1360
F1.3202575030233897e-06
sS'1202.html'
p1361
F4.3531710239006506e-07
sS'1399.html'
p1362
F6.083609478506913e-07
sS'428.html'
p1363
F1.1282441249507803e-06
sS'363.html'
p1364
F5.649011387700831e-06
sS'474.html'
p1365
F7.787862518915988e-06
sS'1367.html'
p1366
F1.3868319474490543e-07
sS'689.html'
p1367
F9.358231219433677e-07
sS'832.html'
p1368
F8.162985432336198e-07
sS'110.html'
p1369
F5.947441271991159e-07
sS'1020.html'
p1370
F1.5119077857203334e-06
sS'1667.html'
p1371
F1.1969135907383784e-07
sS'222.html'
p1372
F5.598056075027946e-06
sS'1609.html'
p1373
F4.5280880181275e-07
sS'846.html'
p1374
F8.550812562340768e-07
sS'1120.html'
p1375
F8.557317554780738e-07
sS'1733.html'
p1376
F1.4966197346672803e-07
sS'1526.html'
p1377
F4.066442746641342e-08
sS'1856.html'
p1378
F1.6231737266607908e-07
sS'925.html'
p1379
F7.271230721240646e-07
sS'1022.html'
p1380
F9.111862232287793e-07
sS'813.html'
p1381
F8.353950186230435e-07
sS'172.html'
p1382
F6.377895690523018e-06
sS'1984.html'
p1383
F5.795257045728635e-07
sS'347.html'
p1384
F6.490821653640669e-07
sS'1715.html'
p1385
F1.725773845621246e-07
sS'796.html'
p1386
F8.145252661664938e-07
sS'1671.html'
p1387
F1.1532288215869675e-07
sS'651.html'
p1388
F5.495160686741221e-07
sS'828.html'
p1389
F6.277117146071027e-06
sS'543.html'
p1390
F8.234695406851596e-07
sS'629.html'
p1391
F5.454064054511552e-06
sS'1402.html'
p1392
F7.657313768386168e-07
sS'583.html'
p1393
F5.744407297277255e-06
sS'722.html'
p1394
F9.460549979612515e-07
sS'108.html'
p1395
F7.161668458675264e-07
sS'752.html'
p1396
F9.035015201413077e-07
sS'1835.html'
p1397
F8.344654247595905e-07
sS'362.html'
p1398
F9.815526985828343e-07
sS'100.html'
p1399
F5.397597853051478e-07
sS'1314.html'
p1400
F2.1901467923986137e-07
sS'786.html'
p1401
F5.692608262023927e-07
sS'121.html'
p1402
F1.3759747921418078e-06
sS'555.html'
p1403
F8.204663694937477e-07
sS'1111.html'
p1404
F3.5800744512282873e-07
sS'1500.html'
p1405
F4.105026613298037e-08
sS'653.html'
p1406
F5.538450972801222e-07
sS'996.html'
p1407
F6.394880003274178e-07
sS'1707.html'
p1408
F1.4906697489741955e-07
sS'875.html'
p1409
F1.1203778810517211e-06
sS'342.html'
p1410
F9.104077817610928e-06
sS'403.html'
p1411
F1.0485266522892693e-06
sS'1372.html'
p1412
F5.765553011665443e-07
sS'784.html'
p1413
F8.25282019498113e-07
sS'871.html'
p1414
F1.0338781181764043e-06
sS'418.html'
p1415
F9.122947222838021e-07
sS'1387.html'
p1416
F7.047991181553433e-07
sS'361.html'
p1417
F9.861420741460502e-07
sS'1483.html'
p1418
F1.1761390553909745e-07
sS'791.html'
p1419
F9.04955263536547e-07
sS'1712.html'
p1420
F1.730552911655274e-07
sS'1759.html'
p1421
F8.50233856822319e-07
sS'1290.html'
p1422
F1.6778928886872436e-07
sS'1799.html'
p1423
F6.930741790363081e-07
sS'261.html'
p1424
F6.362326881085565e-06
sS'993.html'
p1425
F1.1203778810517211e-06
sS'756.html'
p1426
F6.588399409855104e-06
sS'1889.html'
p1427
F5.315970664347486e-07
sS'1838.html'
p1428
F2.6244969495471955e-07
sS'827.html'
p1429
F6.751857098294885e-07
sS'299.html'
p1430
F2.6565505222778327e-06
sS'906.html'
p1431
F9.884528933004638e-07
sS'1848.html'
p1432
F5.497846493528485e-07
sS'978.html'
p1433
F8.36326685930058e-07
sS'360.html'
p1434
F6.794680716254472e-07
sS'681.html'
p1435
F6.793623710652567e-06
sS'496.html'
p1436
F9.071446714322001e-07
sS'83.html'
p1437
F1.1717285339332584e-06
sS'1920.html'
p1438
F5.065413055730688e-07
sS'1597.html'
p1439
F6.153048971132274e-07
sS'595.html'
p1440
F5.310950862020435e-07
sS'1084.html'
p1441
F6.143415579333303e-07
sS'1379.html'
p1442
F7.811523559555056e-07
sS'408.html'
p1443
F6.5802629399956794e-06
sS'1149.html'
p1444
F8.622916002881779e-07
sS'1028.html'
p1445
F1.031981094106356e-06
sS'421.html'
p1446
F5.428858072277645e-07
sS'1390.html'
p1447
F7.415025659696294e-07
sS'1506.html'
p1448
F4.097549878245403e-08
sS'655.html'
p1449
F8.716461778968834e-07
sS'1812.html'
p1450
F4.3649957026617306e-07
sS'45.html'
p1451
F3.4922675957029744e-07
sS'623.html'
p1452
F5.883155818911757e-07
sS'567.html'
p1453
F5.296571595413433e-06
sS'70.html'
p1454
F2.208493571811377e-06
sS'133.html'
p1455
F6.940812334763887e-06
sS'1289.html'
p1456
F4.867414074322493e-07
sS'895.html'
p1457
F1.9102415691488346e-06
sS'1291.html'
p1458
F4.117347703425798e-07
sS'757.html'
p1459
F6.588399409855104e-06
sS'1802.html'
p1460
F1.6087805957893706e-07
sS'1778.html'
p1461
F2.423221440275588e-07
sS'1383.html'
p1462
F8.871130856277035e-07
sS'1787.html'
p1463
F5.64008921267513e-08
sS'223.html'
p1464
F5.361414694011957e-06
sS'350.html'
p1465
F6.505838013741631e-07
sS'1608.html'
p1466
F6.585827825385995e-07
sS'52.html'
p1467
F1.156786705651921e-06
sS'988.html'
p1468
F6.589685955336427e-07
sS'1729.html'
p1469
F1.586991242347528e-07
sS'1558.html'
p1470
F1.57132528297997e-07
sS'1997.html'
p1471
F5.733228300590867e-07
sS'211.html'
p1472
F5.489796937901064e-07
sS'650.html'
p1473
F5.495160686741221e-07
sS'594.html'
p1474
F5.348832109253106e-07
sS'735.html'
p1475
F9.331060908966635e-07
sS'1800.html'
p1476
F6.391246548726863e-07
sS'409.html'
p1477
F1.0536337510078006e-06
sS'1378.html'
p1478
F7.313780185799272e-07
sS'1292.html'
p1479
F3.558555496918469e-07
sS'551.html'
p1480
F5.296571595413433e-06
sS'917.html'
p1481
F1.0043387433713643e-06
sS'1815.html'
p1482
F6.362326881085566e-07
sS'1223.html'
p1483
F1.0997843103010638e-06
sS'620.html'
p1484
F6.409455228352865e-07
sS'220.html'
p1485
F4.9594241612606365e-06
sS'1650.html'
p1486
F1.1805829057262048e-07
sS'1182.html'
p1487
F6.711571554748974e-07
sS'437.html'
p1488
F6.01529086938999e-07
sS'1976.html'
p1489
F5.361579564232259e-07
sS'1186.html'
p1490
F4.430324507979236e-07
sS'82.html'
p1491
F9.607613534129894e-07
sS'1419.html'
p1492
F3.0352385120775177e-07
sS'71.html'
p1493
F1.1692925078751851e-06
sS'1613.html'
p1494
F2.0529628277411448e-07
sS'685.html'
p1495
F6.727627946028277e-07
sS'985.html'
p1496
F7.123872023913414e-07
sS'1113.html'
p1497
F4.0579343166519767e-07
sS'415.html'
p1498
F8.454411067838617e-07
sS'1866.html'
p1499
F8.977329549688173e-07
sS'374.html'
p1500
F5.582428747275077e-07
sS'1924.html'
p1501
F5.215731341155772e-07
sS'1659.html'
p1502
F1.1943718332723806e-07
sS'282.html'
p1503
F4.6520239560625644e-07
sS'1957.html'
p1504
F8.47032675132476e-07
sS'887.html'
p1505
F1.087170804680343e-06
sS'226.html'
p1506
F7.477253959790132e-06
sS'1750.html'
p1507
F3.4579139027848997e-07
sS'1932.html'
p1508
F8.350849239613422e-07
sS'1678.html'
p1509
F1.3704427297465008e-07
sS'1862.html'
p1510
F8.934546406480762e-07
sS'1114.html'
p1511
F9.575988018523791e-07
sS'1067.html'
p1512
F6.005656126940352e-07
sS'43.html'
p1513
F2.239566085563966e-07
sS'1965.html'
p1514
F8.760587169594455e-07
sS'1649.html'
p1515
F1.1529924073143993e-07
sS'1212.html'
p1516
F1.108017526178022e-06
sS'1916.html'
p1517
F8.000422422303898e-07
sS'1258.html'
p1518
F4.4513628515074317e-07
sS'1651.html'
p1519
F1.1385216524047854e-07
sS'572.html'
p1520
F7.087960885796648e-07
sS'499.html'
p1521
F9.148917385733453e-07
sS'429.html'
p1522
F1.1282441249507803e-06
sS'1398.html'
p1523
F7.757650983282262e-07
sS'1132.html'
p1524
F6.762681718893354e-07
sS'1168.html'
p1525
F8.696245787212431e-07
sS'1527.html'
p1526
F1.3721144090948133e-07
sS'1647.html'
p1527
F1.295324035670115e-07
sS'354.html'
p1528
F6.794680716254472e-07
sS'308.html'
p1529
F7.546015603147996e-07
sS'1907.html'
p1530
F5.532095373324236e-07
sS'1241.html'
p1531
F4.383707687357475e-07
sS'646.html'
p1532
F1.0576957146929271e-06
sS'1998.html'
p1533
F5.756701087901371e-07
sS'6.html'
p1534
F8.215449843528542e-07
sS'1879.html'
p1535
F5.392422783201956e-07
sS'886.html'
p1536
F2.328212817277202e-06
sS'329.html'
p1537
F5.514016630274157e-07
sS'1333.html'
p1538
F8.222656378479005e-07
sS'442.html'
p1539
F5.607305129154928e-06
sS'1055.html'
p1540
F1.0121710191145123e-06
sS'537.html'
p1541
F6.772181773485418e-07
sS'389.html'
p1542
F7.233822460295357e-07
sS'1775.html'
p1543
F5.441990288224132e-07
sS'78.html'
p1544
F3.865496194418997e-06
sS'1063.html'
p1545
F7.400390740631105e-07
sS'1905.html'
p1546
F5.505021497108946e-07
sS'352.html'
p1547
F5.883155818911757e-07
sS'1422.html'
p1548
F2.4448150240728714e-07
sS'1641.html'
p1549
F1.2176438542714093e-07
sS'980.html'
p1550
F7.03037120359955e-07
sS'787.html'
p1551
F5.552119410542586e-07
sS'637.html'
p1552
F8.023248163879658e-07
sS'705.html'
p1553
F1.3034291918608667e-06
sS'1933.html'
p1554
F7.893750123339845e-07
sS'1771.html'
p1555
F4.3649957026617306e-07
sS'542.html'
p1556
F7.03037120359955e-07
sS'570.html'
p1557
F6.536080142800279e-07
sS'46.html'
p1558
F7.662529922179346e-07
sS'238.html'
p1559
F8.746962617231166e-07
sS'1310.html'
p1560
F6.69160852216495e-07
sS'138.html'
p1561
F4.389824971027155e-06
sS'294.html'
p1562
F3.2975775994954102e-06
sS'918.html'
p1563
F1.0376931665829594e-06
sS'727.html'
p1564
F1.0596885469391691e-06
sS'1517.html'
p1565
F7.820756396968142e-08
sS'604.html'
p1566
F5.563102831730603e-07
sS'565.html'
p1567
F9.061702947711558e-07
sS'675.html'
p1568
F6.825603110290825e-07
sS'394.html'
p1569
F6.438805910566273e-07
sS'1305.html'
p1570
F2.59543007054898e-07
sS'114.html'
p1571
F9.384255221712414e-07
sS'1331.html'
p1572
F8.419606231855749e-07
sS'440.html'
p1573
F1.2855535915153464e-06
sS'860.html'
p1574
F1.9745922631525944e-06
sS'204.html'
p1575
F9.586869823090295e-06
sS'576.html'
p1576
F6.574280494307001e-07
sS'1968.html'
p1577
F8.063508190508444e-07
sS'1758.html'
p1578
F8.425913053003206e-07
sS'64.html'
p1579
F8.323043970225143e-07
sS'707.html'
p1580
F5.571368957780723e-07
sS'1878.html'
p1581
F5.392422783201956e-07
sS'1245.html'
p1582
F4.294995771576663e-07
sS'642.html'
p1583
F5.421009120847846e-07
sS'1890.html'
p1584
F7.708036038665565e-07
sS'443.html'
p1585
F7.493511867641268e-06
sS'1332.html'
p1586
F4.528419454814525e-07
sS'1216.html'
p1587
F1.1097665672611762e-06
sS'633.html'
p1588
F1.2845748678065413e-06
sS'319.html'
p1589
F3.8812757399862685e-08
sS'1062.html'
p1590
F8.899204055189303e-07
sS'302.html'
p1591
F7.099071899400197e-06
sS'1142.html'
p1592
F1.3084832019107345e-06
sS'259.html'
p1593
F5.572170209308688e-06
sS'1528.html'
p1594
F1.3764799223885563e-07
sS'603.html'
p1595
F9.11555423481303e-07
sS'240.html'
p1596
F2.796611749498163e-06
sS'830.html'
p1597
F6.663858960757868e-07
sS'1909.html'
p1598
F7.966426293030652e-07
sS'1121.html'
p1599
F4.5781823059663327e-07
sS'1098.html'
p1600
F6.223862371316459e-07
sS'677.html'
p1601
F6.69160852216495e-07
sS'229.html'
p1602
F5.286294496582971e-06
sS'864.html'
p1603
F1.1203778810517211e-06
sS'364.html'
p1604
F5.807315387203633e-06
sS'1243.html'
p1605
F6.57044037719584e-07
sS'644.html'
p1606
F1.1778632382994012e-06
sS'1312.html'
p1607
F4.4112133042193255e-07
sS'1590.html'
p1608
F5.520975843522294e-07
sS'430.html'
p1609
F6.896746735597351e-07
sS'701.html'
p1610
F9.175035828514911e-07
sS'1598.html'
p1611
F6.142297374823051e-07
sS'636.html'
p1612
F2.620828034892656e-06
sS'1213.html'
p1613
F8.716461778968834e-07
sS'1384.html'
p1614
F8.483102508114088e-07
sS'1913.html'
p1615
F7.949536343292777e-07
sS'564.html'
p1616
F8.751499423567904e-07
sS'961.html'
p1617
F6.978035934093846e-07
sS'1430.html'
p1618
F6.140062186549825e-07
sS'753.html'
p1619
F9.035015201413077e-07
sS'314.html'
p1620
F6.2806219574312e-07
sS'232.html'
p1621
F1.3403948910580649e-06
sS'674.html'
p1622
F6.40215932029555e-07
sS'1068.html'
p1623
F6.096798875750287e-07
sS'1286.html'
p1624
F2.9956308723726446e-07
sS'1301.html'
p1625
F6.825603110290825e-07
sS'940.html'
p1626
F9.013296414871218e-07
sS'699.html'
p1627
F6.386847893153067e-06
sS'145.html'
p1628
F6.813200439587692e-07
sS'8.html'
p1629
F1.1078720215783925e-06
sS'390.html'
p1630
F7.233822460295357e-07
sS'175.html'
p1631
F3.80405611287091e-07
sS'1837.html'
p1632
F9.100804147054434e-07
sS'1520.html'
p1633
F7.826742224992541e-08
sS'386.html'
p1634
F1.0627923210278987e-06
sS'1963.html'
p1635
F8.547563773373313e-07
sS'1841.html'
p1636
F8.234695406851596e-07
sS'230.html'
p1637
F6.332205010170496e-06
sS'335.html'
p1638
F1.0092951032534123e-06
sS'989.html'
p1639
F1.1203778810517211e-06
sS'618.html'
p1640
F6.413109421755576e-07
sS'872.html'
p1641
F1.5536731941656464e-06
sS'1079.html'
p1642
F7.144232407595605e-07
sS'539.html'
p1643
F6.636338599268012e-07
sS'1003.html'
p1644
F1.2782493097453726e-06
sS'512.html'
p1645
F5.384678758142307e-07
sS'228.html'
p1646
F6.475874453517145e-06
sS'682.html'
p1647
F5.599101008342101e-07
sS'1112.html'
p1648
F6.790578886664219e-07
sS'1025.html'
p1649
F8.234695406851596e-07
sS'1103.html'
p1650
F4.0331996865397204e-07
sS'607.html'
p1651
F9.265728110180627e-07
sS'1208.html'
p1652
F4.361610673035781e-07
sS'1195.html'
p1653
F4.4513628515074317e-07
sS'610.html'
p1654
F8.369489528094702e-07
sS'1275.html'
p1655
F4.222445167327057e-07
sS'1925.html'
p1656
F8.567093622055811e-07
sS'1191.html'
p1657
F8.438555083090233e-07
sS'1479.html'
p1658
F4.1406883331220204e-08
sS'93.html'
p1659
F4.892820324384202e-07
sS'1297.html'
p1660
F4.3649957026617306e-07
sS'369.html'
p1661
F4.132473888963732e-07
sS'973.html'
p1662
F1.1174099926250941e-06
sS'751.html'
p1663
F8.692885568592952e-07
sS'311.html'
p1664
F7.207656298026823e-06
sS'1950.html'
p1665
F1.2370154610439092e-06
sS'1763.html'
p1666
F1.4962215916146956e-07
sS'194.html'
p1667
F1.0013032310844388e-06
sS'387.html'
p1668
F7.432991580898203e-07
sS'729.html'
p1669
F5.215731341155771e-06
sS'659.html'
p1670
F1.0894521961994461e-06
sS'783.html'
p1671
F5.739078533550653e-07
sS'1877.html'
p1672
F9.197542048862862e-07
sS'1205.html'
p1673
F1.0770388668861815e-06
sS'1074.html'
p1674
F1.042985064975362e-06
sS'877.html'
p1675
F2.112128687776689e-06
sS'1646.html'
p1676
F1.1761390553909745e-07
sS'1183.html'
p1677
F8.679470621727839e-07
sS'1840.html'
p1678
F9.100804147054434e-07
sS'759.html'
p1679
F9.035015201413077e-07
sS'1808.html'
p1680
F5.439358764873926e-07
sS'1777.html'
p1681
F3.4793052662416584e-07
sS'1056.html'
p1682
F7.366466225120682e-07
sS'221.html'
p1683
F5.755094566667538e-06
sS'667.html'
p1684
F9.130352212466949e-07
sS'1264.html'
p1685
F4.0948649165487005e-07
sS'1220.html'
p1686
F1.0758027855546365e-06
sS'2.html'
p1687
F1.1199316931261727e-06
sS'1309.html'
p1688
F4.359920126263287e-07
sS'1175.html'
p1689
F8.682820475306276e-07
sS'533.html'
p1690
F8.777677663487538e-07
sS'1092.html'
p1691
F3.993111084756578e-07
sS'854.html'
p1692
F2.1763448723138464e-06
sS'800.html'
p1693
F1.021206892942286e-06
sS'1046.html'
p1694
F5.028428218935754e-07
sS'868.html'
p1695
F1.0460564717073106e-06
sS'1912.html'
p1696
F7.904844642135826e-07
sS'1373.html'
p1697
F6.273616244149068e-07
sS'402.html'
p1698
F9.655445429836292e-07
sS'1928.html'
p1699
F8.438555083090233e-07
sS'1044.html'
p1700
F7.951409466842093e-07
sS'30.html'
p1701
F2.587866700711491e-06
sS'1021.html'
p1702
F1.420277010828192e-06
sS'984.html'
p1703
F8.046204524863577e-07
sS'1657.html'
p1704
F1.2126556625441226e-07
sS'748.html'
p1705
F8.740166220481181e-07
sS'1051.html'
p1706
F6.110045587050125e-07
sS'525.html'
p1707
F9.496491283882887e-07
sS'1911.html'
p1708
F8.051964155876364e-07
sS'1395.html'
p1709
F2.7039889244613653e-07
sS'424.html'
p1710
F1.1208244246471982e-06
sS'1200.html'
p1711
F6.593548608299695e-07
sS'1769.html'
p1712
F2.6567297887952955e-07
sS'774.html'
p1713
F6.8102827961625885e-06
sS'1071.html'
p1714
F7.201404561945762e-07
sS'275.html'
p1715
F4.253925309579415e-06
sS'1807.html'
p1716
F6.136712452678275e-07
sS'809.html'
p1717
F6.663858960757867e-06
sS'903.html'
p1718
F1.023840466543624e-06
sS'859.html'
p1719
F1.0552151900337036e-06
sS'15.html'
p1720
F1.537218165460783e-06
sS'1298.html'
p1721
F6.096798875750287e-07
sS'1024.html'
p1722
F1.1226141642474331e-06
sS'98.html'
p1723
F9.269545880312551e-07
sS'1012.html'
p1724
F7.178426244900626e-07
sS'368.html'
p1725
F6.705570149483922e-07
sS'258.html'
p1726
F5.731280872499633e-06
sS'432.html'
p1727
F6.535274639965779e-06
sS'930.html'
p1728
F7.285358760206788e-07
sS'1167.html'
p1729
F4.3683859905861287e-07
sS'1115.html'
p1730
F2.1049015579639373e-07
sS'257.html'
p1731
F5.338432512225011e-06
sS'1917.html'
p1732
F1.9208664490709152e-07
sS'1930.html'
p1733
F6.984535191405949e-07
sS'345.html'
p1734
F6.391246548726863e-07
sS'1375.html'
p1735
F6.863083542257035e-07
sS'404.html'
p1736
F9.175035828514911e-07
sS'320.html'
p1737
F9.137769232948237e-07
sS'833.html'
p1738
F9.119249230449355e-07
sS'1155.html'
p1739
F6.674403041391978e-07
sS'1303.html'
p1740
F4.1553727099221574e-07
sS'1883.html'
p1741
F5.096780211037281e-07
sS'736.html'
p1742
F8.794834969319218e-07
sS'1738.html'
p1743
F1.7548508464523058e-07
sS'318.html'
p1744
F8.444890334654114e-07
sS'720.html'
p1745
F7.155594100355776e-07
sS'247.html'
p1746
F6.53228450973245e-06
sS'425.html'
p1747
F1.1137221708672554e-06
sS'1525.html'
p1748
F3.479951096943225e-08
sS'678.html'
p1749
F6.409455228352865e-07
sS'845.html'
p1750
F9.697063729102828e-06
sS'262.html'
p1751
F5.340067560467652e-06
sS'306.html'
p1752
F5.599101008342101e-07
sS'1587.html'
p1753
F9.87061673763412e-06
sS'1852.html'
p1754
F9.035015201413077e-07
sS'57.html'
p1755
F8.913307389666624e-07
sS'782.html'
p1756
F5.552119410542586e-07
sS'734.html'
p1757
F6.751857098294885e-07
sS'960.html'
p1758
F6.277117146071027e-07
sS'952.html'
p1759
F6.211261140673264e-07
sS'1166.html'
p1760
F4.214535004031203e-07
sS'1370.html'
p1761
F9.047126481843924e-07
sS'546.html'
p1762
F8.899204055189303e-07
sS'391.html'
p1763
F1.54702544822484e-06
sS'847.html'
p1764
F3.0319660177248734e-07
sS'956.html'
p1765
F6.225010473580121e-07
sS'60.html'
p1766
F5.535725357165e-07
sS'426.html'
p1767
F1.1137221708672554e-06
sS'73.html'
p1768
F1.1380608990043788e-06
sS'1123.html'
p1769
F4.0770547030660673e-07
sS'9.html'
p1770
F1.2451005294167451e-06
sS'1834.html'
p1771
F7.95515836333754e-07
sS'605.html'
p1772
F5.563102831730603e-07
sS'22.html'
p1773
F1.427486538801939e-06
sS'834.html'
p1774
F6.751857098294885e-07
sS'1300.html'
p1775
F4.4761615303459135e-07
sS'115.html'
p1776
F5.120755960133208e-07
sS'1755.html'
p1777
F8.057732038509513e-07
sS'1583.html'
p1778
F1.0501908249238428e-07
s.